
/home/wenda/ai_deck/uwb-aideck/BUILD/GAP8_V2/GCC_RISCV/test:     file format elf32-littleriscv

Sections:
Idx Name          Size      VMA       LMA       File off  Algn  Flags
  0 .data_tiny_fc 000003e0  00000004  1b000004  00001004  2**2  CONTENTS, ALLOC, LOAD, DATA
  1 .stack        00001038  1b0003e8  1b0003e8  000013e8  2**3  CONTENTS, ALLOC, LOAD, DATA
  2 .vectors      000000a0  1c000000  1c000000  00003000  2**0  CONTENTS, ALLOC, LOAD, READONLY, CODE
  3 .text         00007348  1c0000a0  1c0000a0  000030a0  2**1  CONTENTS, ALLOC, LOAD, READONLY, CODE
  4 .init_array   00000048  1c0073e8  1c0073e8  0000a3e8  2**2  CONTENTS, ALLOC, LOAD, DATA
  5 .fini_array   0000000c  1c007430  1c007430  0000a430  2**2  CONTENTS, ALLOC, LOAD, DATA
  6 .init         00000000  1c00743c  1c00743c  0000b020  2**0  CONTENTS, ALLOC, LOAD, CODE
  7 .fini         00000000  1c00743c  1c00743c  0000b020  2**0  CONTENTS, ALLOC, LOAD, CODE
  8 .preinit_array 00000000  1c00743c  1c00743c  0000b020  2**0  CONTENTS, ALLOC, LOAD, DATA
  9 .boot         00000000  1c00743c  1c00743c  0000b020  2**0  CONTENTS
 10 .got          00000000  1c00743c  1c00743c  0000b020  2**0  CONTENTS, ALLOC, LOAD, DATA
 11 .shbss        00000000  1c00743c  1c00743c  0000b020  2**0  CONTENTS
 12 .gnu.offload_funcs 00000000  1c00743c  1c00743c  0000b020  2**0  CONTENTS
 13 .gnu.offload_vars 00000000  1c00743c  1c00743c  0000b020  2**0  CONTENTS
 14 .rodata       00000498  1c00743c  1c00743c  0000a43c  2**2  CONTENTS, ALLOC, LOAD, READONLY, DATA
 15 .data         0000030c  1c0078d4  1c0078d4  0000a8d4  2**2  CONTENTS, ALLOC, LOAD, DATA
 16 .bss          0000041c  1c007be0  1c007be0  0000abe0  2**2  ALLOC
 17 .data_tiny_l1 00000018  00000004  1c007ffc  0000b004  2**2  CONTENTS, ALLOC, LOAD, DATA
 18 .l1cluster_g  00000004  1000001c  1c008014  0000b01c  2**2  CONTENTS, ALLOC, LOAD, DATA
 19 .bss_l1       00000000  10000020  10000020  0000b020  2**0  CONTENTS
 20 .debug_frame  00006404  00000000  00000000  0000b020  2**2  CONTENTS, READONLY, DEBUGGING
 21 .debug_info   0007fd76  00000000  00000000  00011424  2**0  CONTENTS, READONLY, DEBUGGING
 22 .debug_abbrev 0000cd77  00000000  00000000  0009119a  2**0  CONTENTS, READONLY, DEBUGGING
 23 .debug_loc    00021e6c  00000000  00000000  0009df11  2**0  CONTENTS, READONLY, DEBUGGING
 24 .debug_aranges 000016e0  00000000  00000000  000bfd80  2**3  CONTENTS, READONLY, DEBUGGING
 25 .debug_ranges 00004898  00000000  00000000  000c1460  2**3  CONTENTS, READONLY, DEBUGGING
 26 .debug_line   000250c4  00000000  00000000  000c5cf8  2**0  CONTENTS, READONLY, DEBUGGING
 27 .debug_str    0000b4a6  00000000  00000000  000eadbc  2**0  CONTENTS, READONLY, DEBUGGING
 28 .comment      0000001a  00000000  00000000  000f6262  2**0  CONTENTS, READONLY
 29 .Pulp_Chip.Info 0000004e  00000000  00000000  000f627c  2**0  CONTENTS, READONLY
SYMBOL TABLE:
00000004 l    d  .data_tiny_fc	00000000 .data_tiny_fc
1b0003e8 l    d  .stack	00000000 .stack
1c000000 l    d  .vectors	00000000 .vectors
1c0000a0 l    d  .text	00000000 .text
1c0073e8 l    d  .init_array	00000000 .init_array
1c007430 l    d  .fini_array	00000000 .fini_array
1c00743c l    d  .init	00000000 .init
1c00743c l    d  .fini	00000000 .fini
1c00743c l    d  .preinit_array	00000000 .preinit_array
1c00743c l    d  .boot	00000000 .boot
1c00743c l    d  .got	00000000 .got
1c00743c l    d  .shbss	00000000 .shbss
1c00743c l    d  .gnu.offload_funcs	00000000 .gnu.offload_funcs
1c00743c l    d  .gnu.offload_vars	00000000 .gnu.offload_vars
1c00743c l    d  .rodata	00000000 .rodata
1c0078d4 l    d  .data	00000000 .data
1c007be0 l    d  .bss	00000000 .bss
00000004 l    d  .data_tiny_l1	00000000 .data_tiny_l1
1000001c l    d  .l1cluster_g	00000000 .l1cluster_g
10000020 l    d  .bss_l1	00000000 .bss_l1
00000000 l    d  .debug_frame	00000000 .debug_frame
00000000 l    d  .debug_info	00000000 .debug_info
00000000 l    d  .debug_abbrev	00000000 .debug_abbrev
00000000 l    d  .debug_loc	00000000 .debug_loc
00000000 l    d  .debug_aranges	00000000 .debug_aranges
00000000 l    d  .debug_ranges	00000000 .debug_ranges
00000000 l    d  .debug_line	00000000 .debug_line
00000000 l    d  .debug_str	00000000 .debug_str
00000000 l    d  .comment	00000000 .comment
00000000 l    d  .Pulp_Chip.Info	00000000 .Pulp_Chip.Info
00000000 l    df *ABS*	00000000 bridge.c
1c003996 l     F .text	0000001c __rt_event_enqueue
1c0039b2 l     F .text	00000020 __rt_bridge_check_bridge_req.part.5
1c0039d2 l     F .text	00000046 __rt_bridge_wait
00000004 l     O .data_tiny_fc	00000004 __rt_bridge_flash_handle
00000008 l     O .data_tiny_fc	00000004 __rt_bridge_flash_type
0000000c l     O .data_tiny_fc	00000004 __rt_bridge_flash_itf
00000010 l     O .data_tiny_fc	00000004 __rt_bridge_flash_cs
00000014 l     O .data_tiny_fc	00000004 __rt_bridge_eeprom_handle
00000000 l    df *ABS*	00000000 events.c
00000000 l    df *ABS*	00000000 periph-v2.c
00000000 l    df *ABS*	00000000 hyperram-v1.c
1c004edc l     F .text	00000014 l2_memcpy
1c004ef0 l     F .text	00000024 rt_event_enqueue
1c004f14 l     F .text	00000032 pi_task_wait_on.isra.4
1c005206 l     F .text	0000004a __pi_hyper_copy_exec
1c00536a l     F .text	00000296 __pi_hyper_copy_misaligned
1c005250 l     F .text	00000056 __pi_hyper_copy
1c005318 l     F .text	00000052 exec_pending_task
1c005600 l     F .text	0000009e __pi_hyper_copy_2d
1c0056c2 l     F .text	0000002e __rt_hyper_init
1c007cc0 l     O .bss	00000080 __pi_hyper_temp_buffer
1c007798 l     O .rodata	00000034 __hyper_pad
1c007ed8 l     O .bss	00000004 __pi_hyper_cluster_reqs_first
1c007edc l     O .bss	00000004 __rt_hyper_open_count
00000000 l    df *ABS*	00000000 udma-v2.c
00000000 l    df *ABS*	00000000 pwm.c
00000000 l    df *ABS*	00000000 rtc.c
00000000 l    df *ABS*	00000000 conf.c
00000000 l    df *ABS*	00000000 debug.c
00000000 l    df *ABS*	00000000 utils.c
1c0037b6 l     F .text	0000007c __rt_fc_cluster_lock_req
1b000bf0 l     O .stack	00000018 cbsys_first
00000000 l    df *ABS*	00000000 himax.c
00000000 l    df *ABS*	00000000 io.c
1c005b6e l     F .text	0000000e __rt_io_end_of_flush
1c005b7c l     F .text	00000050 __rt_io_uart_wait_req
1c005bcc l     F .text	00000042 __rt_do_putc_host
1c005c0e l     F .text	0000005a __rt_io_start
1c005c68 l     F .text	00000020 rt_event_execute.isra.4.constprop.12
1c005c88 l     F .text	00000070 __rt_io_lock
1c005cf8 l     F .text	00000034 __rt_putc_host_cluster_req
1c005d2c l     F .text	00000070 __rt_io_unlock
1c005d9c l     F .text	000000da __rt_io_uart_flush.constprop.11
1c005e76 l     F .text	00000092 __rt_io_uart_wait_pending
1c005f08 l     F .text	00000028 __rt_io_stop
1c006074 l     F .text	000000ac tfp_putc.isra.9
1c007e30 l     O .bss	00000080 __rt_io_event
1b000c0c l     O .stack	00000010 __rt_io_fc_lock
1c007b60 l     O .data	00000080 __rt_putc_host_buffer
1c007eec l     O .bss	00000004 __rt_io_event_current
1c007ef0 l     O .bss	00000004 __rt_io_pending_flush
1c007ef4 l     O .bss	00000004 __rt_putc_host_buffer_index
1c007ef8 l     O .bss	00000004 _rt_io_uart
00000000 l    df *ABS*	00000000 crt0.o
1c000094 l       .vectors	00000000 __rt_no_irq_handler
00000000 l    df *ABS*	00000000 sched.o
1c000132 l       .text	00000000 __rt_handle_special_event
1c00012c l       .text	00000000 __rt_no_first
1c00012e l       .text	00000000 __rt_common
1c000130 l       .text	00000000 enqueue_end
1c000192 l       .text	00000000 __rt_remote_enqueue_event_loop_cluster
1c0001ce l       .text	00000000 __rt_remote_enqueue_event_loop_cluster_continue
1c0001b8 l       .text	00000000 __rt_cluster_pool_update_end
1c0001a0 l       .text	00000000 __rt_cluster_pool_update_loop
1c0001a8 l       .text	00000000 __rt_cluster_pool_update_loop_end
1c0001b0 l       .text	00000000 __rt_cluster_pool_update_no_current
1c0001ec l       .text	00000000 __rt_remote_enqueue_event_loop_next_cluster
00000000 l    df *ABS*	00000000 vectors.o
1c000266 l       .text	00000000 __rt_call_c_function
00000000 l    df *ABS*	00000000 udma-v2.o
1c000356 l       .text	00000000 __rt_udma_no_copy
1c00031e l       .text	00000000 repeat_transfer
1c00036e l       .text	00000000 handle_special_end
1c0002ca l       .text	00000000 resume_after_special_end
1c000308 l       .text	00000000 checkTask
1c0002de l       .text	00000000 __rt_udma_call_enqueue_callback_resume
1c000304 l       .text	00000000 transfer_resume
1c0002fc l       .text	00000000 hyper
1c0002fc l       .text	00000000 fc_tcdm
1c0002fc l       .text	00000000 dual
1c00031e l       .text	00000000 dmaCmd
1c000346 l       .text	00000000 not_last
1c0003b6 l       .text	00000000 i2c_step1
1c0003d2 l       .text	00000000 i2c_step2
1c000378 l       .text	00000000 spim_step3
1c000394 l       .text	00000000 spim_step2
00000000 l    df *ABS*	00000000 soc_event_eu.o
1c000426 l       .text	00000000 __rt_fc_socevents_not_hyper_rx
1c00042c l       .text	00000000 __rt_fc_socevents_not_hyper_tx
1c000446 l       .text	00000000 __rt_soc_evt_no_udma_channel
1c0004b4 l       .text	00000000 rtc_event_handler
1c000472 l       .text	00000000 __rt_soc_evt_pwm
1c000486 l       .text	00000000 __rt_soc_evt_store
1c00049a l       .text	00000000 socevents_set
00000000 l    df *ABS*	00000000 hyperram-v1_asm.o
1c000514 l       .text	00000000 __rt_hyper_handle_copy_end
1c0004ce l       .text	00000000 __rt_hyper_repeat_copy
1c000500 l       .text	00000000 __rt_hyper_repeat_copy_not_last
1c000526 l       .text	00000000 __rt_hyper_handle_emu_task
1c000540 l       .text	00000000 __rt_hyper_handle_pending_tasks
1c0005a2 l       .text	00000000 __rt_hyper_repeat_copy_not_last2
00000000 l    df *ABS*	00000000 gpio.o
1c0005f0 l       .text	00000000 __rt_gpio_handler_end
00000000 l    df *ABS*	00000000 libgcc2.c
00000000 l    df *ABS*	00000000 libgcc2.c
00000000 l    df *ABS*	00000000 extendsfdf2.c
00000000 l    df *ABS*	00000000 test.c
1c000ce6 l     F .text	000000fc decode_packet.constprop.3
1c007be0 l     O .bss	0000000c flash
1c007bec l     O .bss	00000014 flash_conf.14875
1c007c00 l     O .bss	0000000c gpio_device.14873
1c007a90 l     O .data	00000018 buff_packet
1c007aa8 l     O .data	0000001c buff_uart_rcv
00000000 l    df *ABS*	00000000 ImgIO.c
00000000 l    df *ABS*	00000000 flash.c
00000000 l    df *ABS*	00000000 fs.c
1c001414 l     F .text	00000032 pi_task_wait_on.isra.3
00000000 l    df *ABS*	00000000 read_fs.c
1c0014f8 l     F .text	00000008 pi_flash_read_async
1c001500 l     F .text	0000003e __pi_read_fs_write
1c00153e l     F .text	00000010 __pi_read_fs_seek
1c00154e l     F .text	00000040 __pi_read_fs_direct_read_async
1c00158e l     F .text	00000018 __pi_read_fs_copy_async
1c0015a6 l     F .text	00000018 __pi_read_fs_copy_2d_async
1c0015be l     F .text	00000024 rt_event_enqueue
1c0015e2 l     F .text	00000038 __pi_fs_free
1c00161a l     F .text	00000004 __pi_read_fs_unmount
1c00161e l     F .text	00000126 __pi_read_fs_open
1c001744 l     F .text	00000126 __pi_fs_mount_step
1c00186a l     F .text	0000004e __pi_read_fs_close
1c0018b8 l     F .text	00000098 __pi_read_fs_mount
1c001950 l     F .text	00000070 __pi_fs_read_cached
1c001a9e l     F .text	00000090 __pi_read_fs_try_read
1c001b2e l     F .text	00000040 __pi_read_fs_read_async
00000000 l    df *ABS*	00000000 host_fs.c
1c001b6e l     F .text	0000000c __pi_host_fs_mount
1c001b7a l     F .text	00000002 __pi_host_fs_unmount
1c001b7c l     F .text	00000024 rt_event_enqueue
1c001ba0 l     F .text	00000006 __pi_host_fs_seek
1c001ba6 l     F .text	0000007e __pi_host_fs_copy_2d_async
1c001c24 l     F .text	00000028 __pi_host_fs_write_async
1c001c4c l     F .text	00000024 __pi_host_fs_read_async
1c001c70 l     F .text	00000042 __pi_host_fs_copy_async
1c001cb2 l     F .text	00000002 __pi_host_fs_direct_read_async
1c001cb4 l     F .text	0000001c __pi_host_fs_close
1c001cd0 l     F .text	0000005c __pi_host_fs_open
1c007c0c l     O .bss	00000088 bsp_fs_data
00000000 l    df *ABS*	00000000 hyperflash.c
1c001d2c l     F .text	0000001c __rt_event_enqueue
1c001d48 l     F .text	0000000e hyperflash_ioctl
1c001d56 l     F .text	00000040 hyperflash_stall_task
1c001d96 l     F .text	00000088 hyperflash_read_2d_async
1c00200e l     F .text	000000fc hyperflash_handle_pending_task
1c001e1e l     F .text	00000018 hyperflash_copy_2d_async
1c001e36 l     F .text	0000000e hyperflash_set_reg_exec
1c001e44 l     F .text	000000b0 hyperflash_erase_sector_async
1c00260a l     F .text	00000052 hyperflash_check_erase
1c001ef4 l     F .text	000000a6 hyperflash_erase_chip_async
1c001f9a l     F .text	00000074 hyperflash_read_async
1c002260 l     F .text	0000005c hyperflash_program_async
1c002166 l     F .text	00000050 hyperflash_reg_set_async
1c00210a l     F .text	0000005c hyperflash_reg_get_async
1c0021b6 l     F .text	000000aa hyperflash_program_resume
1c00265c l     F .text	00000050 hyperflash_check_program
1c0022bc l     F .text	00000018 hyperflash_copy_async
1c0022d4 l     F .text	0000001e hyperflash_close
1c0022f2 l     F .text	00000090 hyperflash_open
1c002382 l     F .text	00000032 pi_task_wait_on.isra.3
1c0023b4 l     F .text	0000002a hyperflash_copy_2d
1c0023de l     F .text	00000022 hyperflash_erase_sector
1c002400 l     F .text	00000022 hyperflash_erase_chip
1c002422 l     F .text	00000022 hyperflash_read
1c002444 l     F .text	00000020 hyperflash_reg_get
1c002464 l     F .text	00000020 hyperflash_reg_set
1c002484 l     F .text	00000020 hyperflash_program
1c0024a4 l     F .text	0000002a hyperflash_copy
1c0024ce l     F .text	000000aa hyperflash_erase_resume
1c002578 l     F .text	00000042 hyperflash_erase_async
1c0025ba l     F .text	00000020 hyperflash_erase
1c0025da l     F .text	00000030 hyperflash_get_status_reg
1c007924 l     O .data	00000054 hyperflash_api
00000000 l    df *ABS*	00000000 partition.c
00000000 l    df *ABS*	00000000 flash_partition.c
00000000 l    df *ABS*	00000000 md5.c
1c002948 l     F .text	000008d6 body
00000000 l    df *ABS*	00000000 semihost.c
1c003424 l     F .text	0000000e __internal_semihost
00000000 l    df *ABS*	00000000 ai_deck.c
1c0034ba l     F .text	0000003c __bsp_init_pads
1c007ecc l     O .bss	00000004 __bsp_init_pads_done
00000000 l    df *ABS*	00000000 init.c
1c00350e l     F .text	00000026 cluster_start
1c0073ec l     O .init_array	00000004 ctor_list
1c007434 l     O .fini_array	00000004 dtor_list
00000000 l    df *ABS*	00000000 irq.c
00000000 l    df *ABS*	00000000 alloc.c
00000000 l    df *ABS*	00000000 time.c
1c003fb6 l     F .text	00000018 __rt_time_poweroff
1c003fce l     F .text	00000018 __rt_time_poweron
1c007ed0 l     O .bss	00000004 timer_count
00000000 l    df *ABS*	00000000 time_irq.c
00000000 l    df *ABS*	00000000 freq.c
00000000 l    df *ABS*	00000000 pmu_driver.c
1c004472 l     F .text	0000002c SetFllMultDivFactors
1c00449e l     F .text	00000026 soc_eu_fcEventMask_setEvent
1c007ad0 l     O .data	00000007 SystemStateToSCUFastSeq
1c007ae8 l     O .data	00000003 ToHWDCDC_Pos
1c007af8 l     O .data	00000004 RetPMUStateToPMUState
00000000 l    df *ABS*	00000000 cluster.c
1c0048bc l     F .text	00000062 __rt_init_cluster_data
1c00491e l     F .text	00000064 __rt_cluster_init
1c004982 l     F .text	0000012a __rt_cluster_mount_step
00000000 l    df *ABS*	00000000 pulpos_emu.c
1c004c68 l     F .text	0000003c __rt_cluster_pulpos_emu_init
1c007c94 l     O .bss	0000002c __rt_pulpos_emu_global_cluster_task
1c007ed4 l     O .bss	00000004 __rt_fc_cluster_device
00000000 l    df *ABS*	00000000 cluster_call.c
00000000 l    df *ABS*	00000000 pads-v1.c
00000000 l    df *ABS*	00000000 gpio-v2.c
1c007d40 l     O .bss	00000098 __rt_gpio
00000000 l    df *ABS*	00000000 uart.c
1c00582e l     F .text	0000004a __rt_uart_setup
1c005878 l     F .text	00000022 __rt_uart_setfreq_after
1c00589a l     F .text	00000042 __rt_uart_wait_tx_done.isra.17
1c0058dc l     F .text	0000002c __rt_uart_setfreq_before
1c007afc l     O .data	00000044 __rt_uart
00000000 l    df *ABS*	00000000 pads-v1.c
00000000 l    df *ABS*	00000000 alloc_extern.c
00000000 l    df *ABS*	00000000 pwm-v1.c
1c005a28 l     F .text	00000028 __pos_pwm_init
1c007dd8 l     O .bss	00000058 __pos_pwm
00000000 l    df *ABS*	00000000 i2s-v1.c
1c005a50 l     F .text	00000034 __rt_i2s_resume
1c005a84 l     F .text	0000002a __rt_i2s_setfreq_after
1c005aae l     F .text	0000002c __rt_i2s_setfreq_before
1c007ee0 l     O .bss	00000004 __rt_i2s_first
00000000 l    df *ABS*	00000000 i2c-v2.c
1c007b40 l     O .data	00000020 __rt_i2c
00000000 l    df *ABS*	00000000 spim-v2.c
1c007ee4 l     O .bss	00000008 __rt_spim_open_count
00000000 l    df *ABS*	00000000 fprintf.c
00000000 l    df *ABS*	00000000 prf.c
1c0062e2 l     F .text	00000092 _to_x
1c006374 l     F .text	00000020 _rlrshift
1c006394 l     F .text	00000044 _ldiv5
1c0063d8 l     F .text	00000034 _get_digit
00000000 l    df *ABS*	00000000 sprintf.c
1c006ec2 l     F .text	0000001e sprintf_out
00000000 l    df *ABS*	00000000 uart.c
1c006f42 l     F .text	00000024 __rt_uart_setup.isra.5
1c006f66 l     F .text	00000022 __rt_uart_setfreq_after
1c006f88 l     F .text	00000042 __rt_uart_wait_tx_done.isra.6
1c006fca l     F .text	0000002c __rt_uart_setfreq_before
1c006ff6 l     F .text	00000042 __rt_uart_cluster_req
1c007038 l     F .text	00000026 soc_eu_fcEventMask_setEvent
1c007eb0 l     O .bss	00000010 __rt_uart
00000000 l    df *ABS*	00000000 pe-eu-v3.o
1c0072f6 l       .text	00000000 __rt_slave_start
1c00724c l       .text	00000000 __rt_master_event
1c007260 l       .text	00000000 __rt_master_loop
1c007250 l       .text	00000000 __rt_push_event_to_fc_retry
1c0072e8 l       .text	00000000 __rt_push_event_to_fc_wait
1c0072da l       .text	00000000 __rt_master_sleep
1c007268 l       .text	00000000 __rt_master_loop_update_next
1c0072bc l       .text	00000000 __rt_no_stack_check
1c0072c8 l       .text	00000000 __rt_master_no_slave_barrier
1c0072d8 l       .text	00000000 __rt_master_loop_no_slave
1c007314 l       .text	00000000 __rt_fork_return
1c007318 l       .text	00000000 __rt_wait_for_dispatch
1c00732e l       .text	00000000 __rt_other_entry
1c007328 l       .text	00000000 __rt_fork_entry
1c007356 l       .text	00000000 __rt_no_stack_check_end
1c0073c8 l       .text	00000000 __rt_dma_2d_done
1c007386 l       .text	00000000 __rt_dma_2d_redo
1c00738e l       .text	00000000 __rt_dma_2d_not_last
1c0073b0 l       .text	00000000 __rt_dma_2d_exit
00000000 l    df *ABS*	00000000 libgcc2.c
1c0052a6 g     F .text	00000016 pi_hyper_read_async
1c006196 g     F .text	00000006 putchar
1c005a10 g     F .text	00000018 __rt_udma_channel_init
1c004082 g     F .text	00000002 pi_time_wait_us
1c001406 g     F .text	0000000c pi_flash_open
00000000 g       *ABS*	00000000 __rt_debug_init_config_trace
00000350 g     O .data_tiny_fc	00000004 __rt_hyper_pending_emu_stride
1c003f9c g     F .text	0000000c pi_l2_malloc
1c003928 g     F .text	00000038 __rt_fc_cluster_lock
1c004634 g     F .text	000000a4 InitOneFll
1c003fa8 g     F .text	0000000e pi_l2_free
00000000 g       *ABS*	00000000 __RT_DEBUG_CONFIG
1c007fd0 g     O .bss	00000004 __rt_cluster_tasks
1c003af2 g     F .text	00000020 __rt_bridge_send_notif
1c003c4c g     F .text	00000074 rt_event_alloc
00000338 g     O .data_tiny_fc	00000001 __rt_hyper_pending_emu_do_memcpy
1c00569e g     F .text	00000018 pi_hyper_read_2d_async
1c003484 g     F .text	0000001c semihost_write
1c003d20 g     F .text	00000064 __rt_event_execute
1c003764 g     F .text	00000052 __rt_irq_init
1c003dfa g     F .text	00000048 rt_user_alloc
00000310 g     O .data_tiny_fc	00000004 __rt_hyper_pending_hyper_addr
1c004ab2 g     F .text	000000d8 pi_cluster_open
1c0062b6 g     F .text	0000002c printf
ffffffff g       *ABS*	00000000 pulp__L2
1c003f32 g     F .text	0000006a __rt_allocs_init
1c007fb4 g     O .bss	00000004 __rt_alloc_l1
1c004aac g     F .text	00000006 pi_cluster_conf_init
ffffffff g       *ABS*	00000000 pulp__PE
1c00510e g     F .text	000000a0 pi_hyper_close
1c0036c6 g     F .text	0000004c rt_irq_set_handler
00000314 g     O .data_tiny_fc	00000004 __rt_hyper_pending_addr
1c001458 g     F .text	0000002c pi_fs_mount
00000308 g     O .data_tiny_fc	00000004 __rt_hyper_udma_handle
1c0047a2 g     F .text	00000044 InitFlls
00000018 g     O .data_tiny_fc	00000004 __rt_first_free
1c0026d4 g     F .text	0000000a pi_partition_get_flash_offset
00000001 g       *ABS*	00000000 __ACTIVE_FC
1c003ebc g     F .text	0000002c rt_free
1c0026e0 g     F .text	00000004 pi_partition_table_load
00000400 g       *ABS*	00000000 __rt_cl_slave_stack_size
1c004434 g     F .text	0000003e __rt_freq_init
1c003534 g     F .text	00000166 __rt_init
00000001 g       *ABS*	00000000 __FC
1c005776 g     F .text	00000032 pi_gpio_pin_write
1c0048a0 g     F .text	00000012 __rt_fll_init
1b001420 g       .stack	00000000 __fc_tcdm_end
1c0059ae g     F .text	00000058 rt_extern_alloc_init
1c003bd8 g     F .text	00000034 __rt_bridge_init
00000018 g     O .data_tiny_l1	00000004 __rt_cluster_nb_active_pe
0000032c g     O .data_tiny_fc	00000004 __rt_hyper_pending_emu_hyper_addr
1c005b38 g     F .text	00000012 __rt_i2c_init
1c0073e8 g       .text	00000000 _etext
0000030c g     O .data_tiny_fc	00000004 __rt_hyper_pending_base
1c0078d4 g       .data	00000000 sdata
1c003468 g     F .text	0000001c semihost_read
00000001 g       *ABS*	00000000 __rt_nb_cluster
1c003500 g     F .text	0000000e bsp_hyperflash_open
1c0026ac g     F .text	00000028 pi_hyperflash_conf_init
000003e0 g     O .data_tiny_fc	00000004 __rtc_handler
1c003e8e g     F .text	0000002e rt_alloc
1c006f1c g     F .text	00000026 __rt_uart_cluster_req_done
1c00369a g     F .text	00000028 __rt_deinit
1b000c08 g     O .stack	00000001 camera_isAwaked
1c00010e g       .text	00000000 __rt_event_enqueue
1c004060 g     F .text	00000022 rt_time_wait_us
1c005f8a g     F .text	00000036 memcpy
1c0005da g       .text	00000000 __rt_gpio_handler
1c000246 g       .text	00000000 __rt_illegal_instr
1c003f0a g     F .text	00000028 __rt_alloc_init_l1_for_fc
1c0014d2 g     F .text	00000026 pi_fs_write
1c0059a2 g     F .text	0000000c __rt_padframe_init
1c00743c g       .fini_array	00000000 __DTOR_END__
0000020c g       *ABS*	00000000 __cluster_text_size
1c0004c8 g       .text	00000000 __rt_hyper_handle_copy
1c006120 g     F .text	0000002c puts
1c0079a8  w    O .data	00000018 __rt_padframe_profiles
00000330 g     O .data_tiny_fc	00000004 __rt_hyper_pending_emu_addr
00000344 g     O .data_tiny_fc	00000004 __rt_hyper_pending_tasks_last
1c003cda g     F .text	00000022 rt_event_get_blocking
1c007be0 g       .bss	00000000 _bss_start
1c007be0 g       .data	00000000 edata
1c003ee8 g     F .text	00000022 __rt_alloc_init_l1
1c007a88  w    O .data	00000004 __rt_iodev_uart_baudrate
1c000174 g       .text	00000000 __rt_remote_enqueue_event
1c007ac4 g     O .data	00000004 buff
1c007ad8 g     O .data	00000010 PMUState
1c0078d4 g       .data	00000000 _sdata
10000020 g       .l1cluster_g	00000000 __l1_end
1c000560 g       .text	00000000 __rt_hyper_handle_burst
1c004202 g     F .text	00000134 rt_periph_copy
1c006038 g     F .text	0000003c __rt_putc_uart
1b0003e8 g     O .stack	00000800 __rt_fc_stack
00000010 g     O .data_tiny_l1	00000004 __rt_dma_last_pending
1c00013c g       .text	00000000 __rt_bridge_enqueue_event
1c000c5e g     F .text	00000088 .hidden __extendsfdf2
1c00640c g     F .text	00000ab6 _prf
1c007efc g     O .bss	00000080 taskUart
10000020 g       .l1cluster_g	00000000 _libgomp_start
1c000930 g     F .text	0000032e .hidden __umoddi3
1c004110 g     F .text	000000f2 __rt_timer_handler
1c007f7c g     O .bss	00000004 gyro_y
1c007fb8 g     O .bss	00000004 __rt_alloc_l2
1b001420 g       .stack	00000000 stack
1c0005f4 g     F .text	0000033c .hidden __udivdi3
1c00623a g     F .text	0000000a abort
1c00148c g     F .text	00000008 pi_fs_open
1c003cc0 g     F .text	0000001a rt_event_get
1c007fc4 g     O .bss	00000008 __rt_freq_domains
0000001c g       *ABS*	00000000 _l1_preload_size
1c00010c g       .text	00000000 _init
1c007ffc g       .bss	00000000 _bss_end
1c0028dc g     F .text	0000006c flash_partition_find_first
1c007988  w    O .data	00000010 __rt_padframe_hyper
1c003ad4 g     F .text	0000001e __rt_bridge_set_available
1c007358 g       .text	00000000 __rt_dma_2d
1c0071dc g       .text	00000000 __rt_pe_start
1c007fc0 g     O .bss	00000004 first_delayed
000003dc g     O .data_tiny_fc	00000004 __rt_rtc_init_done
1c007f80 g     O .bss	0000000d image_name
00000008 g       *ABS*	00000000 __NB_ACTIVE_PE
1c0046d8 g     F .text	000000ca __rt_pmu_cluster_power_up
1b000c20 g       .stack	00000000 stack_start
00000004 g     O .data_tiny_l1	0000000c __rt_cluster_pool
00010000 g       *ABS*	00000000 __L1Cl
1c00706e g     F .text	0000008e __rt_uart_open
1c0052f6 g     F .text	00000022 pi_hyper_write
1c0038a0 g     F .text	00000022 __rt_utils_init
1c004d90 g     F .text	000000fa pi_cluster_send_task_to_cl_async
1c0019c0 g     F .text	000000de __pi_fs_read
1c007978  w    O .data	00000010 __rt_padframe_default
1c00614c g     F .text	0000001a fputc_locked
1c0070fc g     F .text	0000004e rt_uart_close
1c004fae g     F .text	00000160 pi_hyper_open
1c003e42 g     F .text	0000004c rt_user_free
1c0014a4 g     F .text	00000026 pi_fs_read
1c0073e8 g       .init_array	00000000 __CTOR_LIST__
1c004336 g     F .text	00000056 __rt_periph_wait_event
1c0043ea g     F .text	0000004a rt_freq_set_and_get
1c003432 g     F .text	00000006 semihost_write0
1c003712  w    F .text	00000002 illegal_insn_handler_c
0000033c g     O .data_tiny_fc	00000004 __rt_hyper_pending_emu_task
1c004bbc g     F .text	00000070 __rt_cluster_push_fc_event
00000320 g     O .data_tiny_fc	00000004 __rt_hyper_end_task
1c0071dc g       .text	00000000 __cluster_text_start
1c007ec0 g     O .bss	00000004 flash_address
1c0052de g     F .text	00000018 pi_hyper_write_async
1c000080 g       .vectors	00000000 _start
1c0052bc g     F .text	00000022 pi_hyper_read
1c003dda g     F .text	00000020 rt_user_alloc_init
00000000 g       *ABS*	00000000 __rt_config
1c00321e g     F .text	00000032 MD5_Init
00000334 g     O .data_tiny_fc	00000004 __rt_hyper_pending_emu_size
1c005f44 g     F .text	00000020 strncmp
1c007ffc g       .bss	00000000 _l1_preload_start_inL2
1c0038c2 g     F .text	00000032 __rt_fc_lock
10000020 g       .l1cluster_g	00000000 __l1_heap_start
1c003c34 g     F .text	00000018 __rt_wait_event_prepare_blocking
1c003a18 g     F .text	00000072 __rt_bridge_handle_notif
1c00045e g       .text	00000000 __rt_soc_evt_no_udma
1c001494 g     F .text	00000008 pi_fs_close
1000001c g     O .l1cluster_g	00000004 __rt_cluster_fc_task_lock
1c0057a8 g     F .text	00000050 pi_gpio_mask_configure
00000340 g     O .data_tiny_fc	00000004 __rt_hyper_pending_tasks
1c003cfc g     F .text	00000024 rt_event_push
1c003b12 g     F .text	0000001e __rt_bridge_clear_notif
1c0027b6 g     F .text	00000102 flash_partition_table_load
1c007f90 g     O .bss	00000004 pos_z
00000014 g     O .data_tiny_l1	00000004 __rt_dma_first_pending
1c0079c0 g     O .data	000000c0 __hal_debug_struct
1c001446 g     F .text	00000012 pi_fs_conf_init
1c0032ec g     F .text	00000138 MD5_Final
1c004084 g     F .text	0000008c __rt_time_init
1c004f72 g     F .text	0000002c __pi_hyper_pin_reset_settings
00080000 g       *ABS*	00000000 __L2
00000008 g       *ABS*	00000000 __rt_nb_pe
1c0000a0 g       .text	00000000 _entry
1c0026e4 g     F .text	0000005e pi_partition_find_first
1c003d84 g     F .text	0000002a __rt_wait_event
1c0047e6 g     F .text	000000ba __rt_pmu_init
1c0034f6 g     F .text	0000000a bsp_hyperflash_conf_init
1c007ac8 g     O .data	00000004 buff_demosaick
1c00149c g     F .text	00000008 pi_fs_read_async
1c003714 g     F .text	00000050 __rt_handle_illegal_instr
1c005908 g     F .text	00000072 __pi_uart_init
1c005f7a g     F .text	00000010 memset
1c0051ae g     F .text	00000058 __pi_hyper_copy_aligned
1c0010d4 g     F .text	0000001a main
00000354 g     O .data_tiny_fc	00000050 __rt_udma_channels
1c0048b2 g     F .text	00000002 __rt_fll_deinit
1c0004a4 g       .text	00000000 udma_event_handler_end
1c007fbc g     O .bss	00000004 __rt_alloc_fc_tcdm
1c005b2e g     F .text	0000000a __rt_himax_init
1c003960 g     F .text	00000036 __rt_fc_cluster_unlock
00000318 g     O .data_tiny_fc	00000004 __rt_hyper_pending_repeat
1c006244 g     F .text	00000072 __rt_io_init
1c007998  w    O .data	00000010 __rt_padframe_hyper_gpio
00000000 g       *ABS*	00000000 __FETCH_ALL
1c001412 g     F .text	00000002 __flash_conf_init
1c007a8c  w    O .data	00000004 __rt_platform
1c007430 g       .init_array	00000000 __CTOR_END__
1c0078d4 g     O .data	00000028 __pi_read_fs_api
1c004f46 g     F .text	0000002c __pi_hyper_pin_settings
1c007f94 g     O .bss	00000004 gyro_x
1c005f30 g     F .text	00000014 strcmp
1c0034b4 g     F .text	00000006 semihost_exit
1c007430 g       .fini_array	00000000 __DTOR_LIST__
1c003c0c g     F .text	00000028 __rt_event_init
000002e0 g     O .data_tiny_fc	00000028 __rt_udma_extra_callback_arg
1c0005b6 g       .text	00000000 pwm_event_handler
00000348 g     O .data_tiny_fc	00000004 __rt_hyper_pending_emu_size_2d
1c00619c g     F .text	00000028 _prf_locked
00000000 g       *ABS*	00000000 __USE_UART
1c0056b6 g     F .text	00000008 __rt_hyper_resume_emu_task
1c0010ee g     F .text	00000318 WriteImageToFile
1c004554 g     F .text	000000e0 SetFllFrequency
1c0048b4 g     F .text	00000002 __rt_flls_constructor
1c003fe6 g     F .text	0000007a rt_event_push_delayed
1c00010c g       .text	00000000 _fini
1c003dae g     F .text	00000018 rt_event_wait
1c000090 g       .vectors	00000000 __rt_debug_struct_ptr
1c006ee0 g     F .text	0000003c sprintf
1c00743c g     O .rodata	00000100 .hidden __clz_tab
00000328 g     O .data_tiny_fc	00000004 __rt_hyper_pending_emu_channel
1c007334 g       .text	00000000 __rt_set_slave_stack
1c003dd8 g     F .text	00000002 pi_task_push_delayed_us
1c007a80  w    O .data	00000004 __rt_fc_stack_size
1c002742 g     F .text	00000074 flash_partition_table_verify
1c0003f4 g       .text	00000000 __rt_fc_socevents_handler
000002b8 g     O .data_tiny_fc	00000028 __rt_udma_extra_callback
000003a8 g     O .data_tiny_fc	00000034 dev_rtc
1c0014ca g     F .text	00000008 pi_fs_write_async
1c007f98 g     O .bss	00000004 cf_tick
1c007fb0 g     O .bss	00000004 img_rgb888
1c0078fc g     O .data	00000028 __pi_host_fs_api
1c006166 g     F .text	00000030 fputc
1c005a06 g     F .text	0000000a rt_extern_alloc_deinit
1c004ebe g     F .text	0000001e pi_pad_init
1c000200 g       .text	00000000 __rt_call_external_c_function
1c0038f4 g     F .text	00000034 __rt_fc_unlock
00000004 g       .data_tiny_l1	00000000 _l1_preload_start
1c0056f0 g     F .text	00000086 __pi_gpio_handler
000002b0 g     O .data_tiny_fc	00000008 __rt_socevents_status
1c003b30 g     F .text	0000003a __rt_bridge_printf_flush
1c004f9e g     F .text	00000010 pi_hyper_conf_init
1c007a84  w    O .data	00000004 __rt_iodev
0000001c g     O .data_tiny_fc	00000014 __rt_sched
1c000000 g       .vectors	00000000 __irq_vector_base
1c007be0 g       .data	00000000 _edata
00000000 g       *ABS*	00000000 __ZERO
1c00438c g     F .text	0000005e __rt_periph_init
1c0026de g     F .text	00000002 pi_partition_table_free
1c005b5c g     F .text	00000012 __rt_spim_init
1c003a8a g     F .text	0000004a __rt_bridge_check_connection
1c004ca4 g     F .text	00000090 rt_cluster_call
00000800 g       *ABS*	00000000 __rt_stack_size
1c0036c2 g     F .text	00000004 pi_open_from_conf
1c000de2 g     F .text	000002f2 test_camera
ffffffff g       *ABS*	00000000 pulp__FC
1c005ada g     F .text	00000054 __rt_i2s_init
00000003 g       *ABS*	00000000 __rt_debug_init_config
1c007ec4 g     O .bss	00000002 image_number
1c0028b8 g     F .text	00000024 flash_partition_table_free
1c007fd4 g     O .bss	00000028 __rt_fc_cluster_data
1c0061c4 g     F .text	00000076 exit
1c003dc6 g     F .text	00000012 __rt_event_sched_init
0000034c g     O .data_tiny_fc	00000004 __rt_hyper_pending_emu_length
1c0002b4 g       .text	00000000 udma_event_handler
1c004b8a g     F .text	00000032 pi_cluster_close
1c0056be g     F .text	00000004 __rt_hyper_resume_copy
1c007f9c g     O .bss	0000000c uart
000003a4 g     O .data_tiny_fc	00000004 pwmEventsStatus
1c001484 g     F .text	00000008 pi_fs_unmount
1c0034a0 g     F .text	00000014 semihost_seek
1c003870 g     F .text	00000030 __rt_cbsys_exec
0000ffe0 g       .l1cluster_g	00000000 __l1_heap_size
1c0044c4 g     F .text	00000090 __rt_pmu_cluster_power_down
0000031c g     O .data_tiny_fc	00000004 __rt_hyper_pending_repeat_size
1b000be8 g     O .stack	00000004 __rt_debug_config_trace
1c007ec8  w    O .bss	00000004 __rt_iodev_uart_channel
1c0000a0 g       .text	00000000 _stext
1c007aec g     O .data	00000004 PMURetentionState
ffffffff g       *ABS*	00000000 pulp__L1CL
1c005f64 g     F .text	00000016 strlen
1c00597a g     F .text	00000028 rt_padframe_set
1c003462 g     F .text	00000006 semihost_close
1c004e8a g     F .text	00000034 pi_pad_set_function
1c007fcc g     O .bss	00000004 __rt_wakeup_use_fast
00000400 g       *ABS*	00000000 __rt_cl_master_stack_size
1c005fc0 g     F .text	0000001a strchr
1c003b6a g     F .text	0000006e __rt_bridge_req_shutdown
1c00705e g     F .text	00000010 rt_uart_conf_init
1c0057f8 g     F .text	00000036 pi_gpio_pin_configure
1c0073e8 g       .text	00000000 __cluster_text_end
1c007fa8 g     O .bss	00000004 gyro_z
1c00717e g     F .text	0000005c __rt_uart_init
1c008018 g       *ABS*	00000000 __l2_end
1c004d34 g     F .text	0000005c rt_cluster_mount
1c005b4a g     F .text	00000012 __rt_rtc_init
1c00714a g     F .text	00000034 rt_uart_cluster_write
1c007fac g     O .bss	00000004 acc_z
1c000098 g       .vectors	00000000 __rt_semihosting_call
1c003250 g     F .text	0000009c MD5_Update
1b000bec g     O .stack	00000004 __rt_debug_config
1c0048b6 g     F .text	00000006 __rt_fll_set_freq
1c003832 g     F .text	0000003e __rt_cbsys_add
1c004c2c g     F .text	0000003c __rt_cluster_new
1c005fda g     F .text	0000005e __rt_putc_debug_bridge
1c0073e8 g       .text	00000000 _endtext
00000324 g     O .data_tiny_fc	00000004 __rt_hyper_current_task
1c003438 g     F .text	0000002a semihost_open
ffffffff g       *ABS*	00000000 pulp__L1FC
1c007af0 g     O .data	00000008 FllsFrequency
1c007acc g     O .data	00000001 value
00000030 g     O .data_tiny_fc	00000280 periph_channels



Disassembly of section .vectors:

1c000000 <__irq_vector_base>:


#ifdef ARCHI_CORE_HAS_1_10
  j __rt_illegal_instr
#else
  j __rt_no_irq_handler
1c000000:	0940006f          	j	1c000094 <__rt_no_irq_handler>
#endif

  j __rt_no_irq_handler
1c000004:	0900006f          	j	1c000094 <__rt_no_irq_handler>
  j __rt_no_irq_handler
1c000008:	08c0006f          	j	1c000094 <__rt_no_irq_handler>
  j __rt_no_irq_handler
1c00000c:	0880006f          	j	1c000094 <__rt_no_irq_handler>
  j __rt_no_irq_handler
1c000010:	0840006f          	j	1c000094 <__rt_no_irq_handler>
  j __rt_no_irq_handler
1c000014:	0800006f          	j	1c000094 <__rt_no_irq_handler>
  j __rt_no_irq_handler
1c000018:	07c0006f          	j	1c000094 <__rt_no_irq_handler>
  j __rt_no_irq_handler
1c00001c:	0780006f          	j	1c000094 <__rt_no_irq_handler>
  j __rt_no_irq_handler
1c000020:	0740006f          	j	1c000094 <__rt_no_irq_handler>
  j __rt_no_irq_handler
1c000024:	0700006f          	j	1c000094 <__rt_no_irq_handler>
  j __rt_no_irq_handler
1c000028:	06c0006f          	j	1c000094 <__rt_no_irq_handler>
  j __rt_no_irq_handler
1c00002c:	0680006f          	j	1c000094 <__rt_no_irq_handler>
  j __rt_no_irq_handler
1c000030:	0640006f          	j	1c000094 <__rt_no_irq_handler>
  j __rt_no_irq_handler
1c000034:	0600006f          	j	1c000094 <__rt_no_irq_handler>
  j __rt_no_irq_handler
1c000038:	05c0006f          	j	1c000094 <__rt_no_irq_handler>
  j __rt_no_irq_handler
1c00003c:	0580006f          	j	1c000094 <__rt_no_irq_handler>
  j __rt_no_irq_handler
1c000040:	0540006f          	j	1c000094 <__rt_no_irq_handler>
  j __rt_no_irq_handler
1c000044:	0500006f          	j	1c000094 <__rt_no_irq_handler>
  j __rt_no_irq_handler
1c000048:	04c0006f          	j	1c000094 <__rt_no_irq_handler>
  j __rt_no_irq_handler
1c00004c:	0480006f          	j	1c000094 <__rt_no_irq_handler>
  j __rt_no_irq_handler
1c000050:	0440006f          	j	1c000094 <__rt_no_irq_handler>
  j __rt_no_irq_handler
1c000054:	0400006f          	j	1c000094 <__rt_no_irq_handler>
  j __rt_no_irq_handler
1c000058:	03c0006f          	j	1c000094 <__rt_no_irq_handler>
  j __rt_no_irq_handler
1c00005c:	0380006f          	j	1c000094 <__rt_no_irq_handler>
  j __rt_no_irq_handler
1c000060:	0340006f          	j	1c000094 <__rt_no_irq_handler>
  j __rt_no_irq_handler
1c000064:	0300006f          	j	1c000094 <__rt_no_irq_handler>
  j __rt_no_irq_handler
1c000068:	02c0006f          	j	1c000094 <__rt_no_irq_handler>
  j __rt_no_irq_handler
1c00006c:	0280006f          	j	1c000094 <__rt_no_irq_handler>
  j __rt_no_irq_handler
1c000070:	0240006f          	j	1c000094 <__rt_no_irq_handler>
  j __rt_no_irq_handler
1c000074:	0200006f          	j	1c000094 <__rt_no_irq_handler>
  j __rt_no_irq_handler
1c000078:	01c0006f          	j	1c000094 <__rt_no_irq_handler>
  j __rt_no_irq_handler
1c00007c:	0180006f          	j	1c000094 <__rt_no_irq_handler>

1c000080 <_start>:


  .org 0x80
  .global _start
_start:
  jal x0, _entry
1c000080:	0200006f          	j	1c0000a0 <_entry>


#ifndef __RT_MODE_BARE

  jal x0, __rt_illegal_instr
1c000084:	1c20006f          	j	1c000246 <__rt_illegal_instr>
	...

1c000090 <__rt_debug_struct_ptr>:
1c000090:	79c0                	flw	fs0,52(a1)
1c000092:	1c00                	addi	s0,sp,560

1c000094 <__rt_no_irq_handler>:
  .word __hal_debug_struct

#endif

__rt_no_irq_handler:
  j __rt_no_irq_handler
1c000094:	0000006f          	j	1c000094 <__rt_no_irq_handler>

1c000098 <__rt_semihosting_call>:

#endif

  .global __rt_semihosting_call
__rt_semihosting_call:
  ebreak
1c000098:	00100073          	ebreak
  jr          ra
1c00009c:	00008067          	ret

Disassembly of section .text:

1c0000a0 <_entry>:
  csrw    0x7A1, x0
1c0000a0:	7a101073          	csrw	pcmr,zero
  csrr    a0, 0xF14
1c0000a4:	f1402573          	csrr	a0,mhartid
  andi    a1, a0, 0x1f
1c0000a8:	01f57593          	andi	a1,a0,31
  srli    a0, a0, 5
1c0000ac:	8115                	srli	a0,a0,0x5
  li      a2, ARCHI_FC_CID
1c0000ae:	02000613          	li	a2,32
  bne     a0, a2, __rt_pe_start
1c0000b2:	00c50463          	beq	a0,a2,1c0000ba <_entry+0x1a>
1c0000b6:	1260706f          	j	1c0071dc <__cluster_text_start>
  la      t0, _bss_start
1c0000ba:	00008297          	auipc	t0,0x8
1c0000be:	b2628293          	addi	t0,t0,-1242 # 1c007be0 <_edata>
  la      t1, _bss_end
1c0000c2:	00008317          	auipc	t1,0x8
1c0000c6:	f3a30313          	addi	t1,t1,-198 # 1c007ffc <_bss_end>
  sw      zero,0(t0)
1c0000ca:	0002a023          	sw	zero,0(t0)
  addi    t0, t0, 4
1c0000ce:	0291                	addi	t0,t0,4
  bltu    t0, t1, 1b
1c0000d0:	fe62ede3          	bltu	t0,t1,1c0000ca <_entry+0x2a>
  la   a0, __rt_fc_stack_size
1c0000d4:	00008517          	auipc	a0,0x8
1c0000d8:	9ac50513          	addi	a0,a0,-1620 # 1c007a80 <__rt_fc_stack_size>
  lw   a0, 0(a0)
1c0000dc:	4108                	lw	a0,0(a0)
  la   x2, __rt_fc_stack
1c0000de:	ff000117          	auipc	sp,0xff000
1c0000e2:	30a10113          	addi	sp,sp,778 # 1b0003e8 <__rt_fc_stack>
  add  x2, x2, a0
1c0000e6:	912a                	add	sp,sp,a0
  jal  x1, __rt_init
1c0000e8:	44c030ef          	jal	ra,1c003534 <__rt_init>
  addi  a0, x0, 0
1c0000ec:	00000513          	li	a0,0
  addi  a1, x0, 0
1c0000f0:	00000593          	li	a1,0
  la    t2, main
1c0000f4:	00001397          	auipc	t2,0x1
1c0000f8:	fe038393          	addi	t2,t2,-32 # 1c0010d4 <main>
  jalr  x1, t2
1c0000fc:	000380e7          	jalr	t2
  mv    s0, a0
1c000100:	842a                	mv	s0,a0
  jal  x1, __rt_deinit
1c000102:	598030ef          	jal	ra,1c00369a <__rt_deinit>
  mv   a0, s0
1c000106:	8522                	mv	a0,s0
  jal  x1, exit
1c000108:	0bc060ef          	jal	ra,1c0061c4 <exit>

1c00010c <_fini>:
  ret
1c00010c:	8082                	ret

1c00010e <__rt_event_enqueue>:
  //   x10/a0: temporary register
  //   x11/a1: the event
  //   x12/a2: temporary register

  // First check if it is a normal event
  andi    x10, x11, 0x3
1c00010e:	0035f513          	andi	a0,a1,3
  bne     x10, x0, __rt_handle_special_event
1c000112:	02051063          	bnez	a0,1c000132 <__rt_handle_special_event>

  // Enqueue normal event
  la      x10, __rt_sched
1c000116:	e4000517          	auipc	a0,0xe4000
1c00011a:	f0650513          	addi	a0,a0,-250 # 1c <_l1_preload_size>
  sw      x0, RT_EVENT_T_NEXT(x11)
1c00011e:	0005a023          	sw	zero,0(a1)
  lw      x12, RT_SCHED_T_FIRST(x10)
1c000122:	4110                	lw	a2,0(a0)
  beqz    x12, __rt_no_first
1c000124:	c601                	beqz	a2,1c00012c <__rt_no_first>
  lw      x12, RT_SCHED_T_LAST(x10)
1c000126:	4150                	lw	a2,4(a0)
  sw      x11, RT_EVENT_T_NEXT(x12)
1c000128:	c20c                	sw	a1,0(a2)
  j       __rt_common
1c00012a:	a011                	j	1c00012e <__rt_common>

1c00012c <__rt_no_first>:

__rt_no_first:
  sw      x11, RT_SCHED_T_FIRST(x10)
1c00012c:	c10c                	sw	a1,0(a0)

1c00012e <__rt_common>:

__rt_common:
  sw      x11, RT_SCHED_T_LAST(x10)
1c00012e:	c14c                	sw	a1,4(a0)

1c000130 <enqueue_end>:

enqueue_end:
  jr          x9
1c000130:	8482                	jr	s1

1c000132 <__rt_handle_special_event>:

__rt_handle_special_event:
  li      x10, ~0x3
1c000132:	5571                	li	a0,-4
  and     x11, x11, x10
1c000134:	8de9                	and	a1,a1,a0
  lw      x12, PI_CALLBACK_T_ENTRY(x11)
1c000136:	41d0                	lw	a2,4(a1)
  lw      x10, PI_CALLBACK_T_ARG(x11)
1c000138:	4588                	lw	a0,8(a1)
  j       __rt_call_external_c_function
1c00013a:	a0d9                	j	1c000200 <__rt_call_external_c_function>

1c00013c <__rt_bridge_enqueue_event>:
    // to enqueue an event to the FC scheduler.

    .global __rt_bridge_enqueue_event
__rt_bridge_enqueue_event:

    sw  x8, -4(sp)
1c00013c:	fe812e23          	sw	s0,-4(sp)
    sw  x9, -8(sp)
1c000140:	fe912c23          	sw	s1,-8(sp)
    sw  a0, -12(sp)
1c000144:	fea12a23          	sw	a0,-12(sp)
    sw  a1, -16(sp)
1c000148:	feb12823          	sw	a1,-16(sp)
    sw  a2, -20(sp)
1c00014c:	fec12623          	sw	a2,-20(sp)

    // Everything is done from C code
    la      x12, __rt_bridge_handle_notif
1c000150:	00004617          	auipc	a2,0x4
1c000154:	8c860613          	addi	a2,a2,-1848 # 1c003a18 <__rt_bridge_handle_notif>
    jal     x9, __rt_call_external_c_function
1c000158:	0a8004ef          	jal	s1,1c000200 <__rt_call_external_c_function>

    lw  x8, -4(sp)
1c00015c:	ffc12403          	lw	s0,-4(sp)
    lw  x9, -8(sp)
1c000160:	ff812483          	lw	s1,-8(sp)
    lw  a0, -12(sp)
1c000164:	ff412503          	lw	a0,-12(sp)
    lw  a1, -16(sp)
1c000168:	ff012583          	lw	a1,-16(sp)
    lw  a2, -20(sp)
1c00016c:	fec12603          	lw	a2,-20(sp)

    mret
1c000170:	30200073          	mret

1c000174 <__rt_remote_enqueue_event>:
    // The FC must get it and push it to the scheduler

    .global __rt_remote_enqueue_event
__rt_remote_enqueue_event:

    sw  x8, -4(sp)
1c000174:	fe812e23          	sw	s0,-4(sp)
    sw  x9, -8(sp)
1c000178:	fe912c23          	sw	s1,-8(sp)
    sw  a0, -12(sp)
1c00017c:	fea12a23          	sw	a0,-12(sp)
    sw  a1, -16(sp)
1c000180:	feb12823          	sw	a1,-16(sp)
    sw  a2, -20(sp)
1c000184:	fec12623          	sw	a2,-20(sp)

#ifndef ARCHI_NB_CLUSTER
    li   x8, 1
1c000188:	4405                	li	s0,1
#else
    li   x8, ARCHI_NB_CLUSTER
#endif
    la   x9, __rt_fc_cluster_data
1c00018a:	00008497          	auipc	s1,0x8
1c00018e:	e4a48493          	addi	s1,s1,-438 # 1c007fd4 <__rt_fc_cluster_data>

1c000192 <__rt_remote_enqueue_event_loop_cluster>:

    // Loop over the clusters to see if there is an event to push
__rt_remote_enqueue_event_loop_cluster:
    lw   a1, RT_FC_CLUSTER_DATA_T_EVENTS(x9)
1c000192:	40cc                	lw	a1,4(s1)
    beq  a1, x0, __rt_remote_enqueue_event_loop_cluster_continue
1c000194:	02058d63          	beqz	a1,1c0001ce <__rt_remote_enqueue_event_loop_cluster_continue>

    // Everytime a task is finished, first check if we can update the queue head
    // as it is not updated by cluster side to avoid race conditions.
    // At least this task won t be there anymore after we update, and maybe even
    // more tasks, which is not an issue, as we compare against the head.
    lw   a1, RT_FC_CLUSTER_DATA_T_CLUSTER_POOL(x9)
1c000198:	48cc                	lw	a1,20(s1)
    lw   a0, RT_CLUSTER_CALL_POOL_T_FIRST_CALL_FC(a1)
1c00019a:	41c8                	lw	a0,4(a1)

    beq  a0, x0, __rt_cluster_pool_update_end
1c00019c:	00050e63          	beqz	a0,1c0001b8 <__rt_cluster_pool_update_end>

1c0001a0 <__rt_cluster_pool_update_loop>:

__rt_cluster_pool_update_loop:
    lw    a2, RT_CLUSTER_TASK_PENDING(a0)
1c0001a0:	5150                	lw	a2,36(a0)
    bnez  a2, __rt_cluster_pool_update_loop_end
1c0001a2:	e219                	bnez	a2,1c0001a8 <__rt_cluster_pool_update_loop_end>

    lw   a0, RT_CLUSTER_TASK_NEXT(a0)
1c0001a4:	5108                	lw	a0,32(a0)
    bnez a0, __rt_cluster_pool_update_loop
1c0001a6:	fd6d                	bnez	a0,1c0001a0 <__rt_cluster_pool_update_loop>

1c0001a8 <__rt_cluster_pool_update_loop_end>:


__rt_cluster_pool_update_loop_end:
    
    beqz a0, __rt_cluster_pool_update_no_current
1c0001a8:	c501                	beqz	a0,1c0001b0 <__rt_cluster_pool_update_no_current>

    lw   a0, RT_CLUSTER_TASK_NEXT(a0)
1c0001aa:	5108                	lw	a0,32(a0)
    sw   a0, RT_CLUSTER_CALL_POOL_T_FIRST_CALL_FC(a1)
1c0001ac:	c1c8                	sw	a0,4(a1)

    j    __rt_cluster_pool_update_end
1c0001ae:	a029                	j	1c0001b8 <__rt_cluster_pool_update_end>

1c0001b0 <__rt_cluster_pool_update_no_current>:

__rt_cluster_pool_update_no_current:

    sw   x0, RT_CLUSTER_CALL_POOL_T_FIRST_CALL_FC(a1)
1c0001b0:	0005a223          	sw	zero,4(a1)
    sw   x0, RT_CLUSTER_CALL_POOL_T_FIRST_LAST_FC(a1)
1c0001b4:	0005a423          	sw	zero,8(a1)

1c0001b8 <__rt_cluster_pool_update_end>:




__rt_cluster_pool_update_end:
    lw   a1, RT_FC_CLUSTER_DATA_T_EVENTS(x9)
1c0001b8:	40cc                	lw	a1,4(s1)

    lw   a2, RT_FC_CLUSTER_DATA_T_TRIG_ADDR(x9)
1c0001ba:	4890                	lw	a2,16(s1)
    sw   x0, RT_FC_CLUSTER_DATA_T_EVENTS(x9)
1c0001bc:	0004a223          	sw	zero,4(s1)

    sw   x0, 0(a2)
1c0001c0:	00062023          	sw	zero,0(a2)

    la   x9, __rt_remote_enqueue_event_loop_cluster_continue
1c0001c4:	00000497          	auipc	s1,0x0
1c0001c8:	00a48493          	addi	s1,s1,10 # 1c0001ce <__rt_remote_enqueue_event_loop_cluster_continue>
    j    __rt_event_enqueue
1c0001cc:	b789                	j	1c00010e <__rt_event_enqueue>

1c0001ce <__rt_remote_enqueue_event_loop_cluster_continue>:

__rt_remote_enqueue_event_loop_cluster_continue:
    addi x8, x8, -1
1c0001ce:	147d                	addi	s0,s0,-1
    bgt  x8, x0, __rt_remote_enqueue_event_loop_next_cluster
1c0001d0:	00804e63          	bgtz	s0,1c0001ec <__rt_remote_enqueue_event_loop_next_cluster>



    lw  x8, -4(sp)
1c0001d4:	ffc12403          	lw	s0,-4(sp)
    lw  x9, -8(sp)
1c0001d8:	ff812483          	lw	s1,-8(sp)
    lw  a0, -12(sp)
1c0001dc:	ff412503          	lw	a0,-12(sp)
    lw  a1, -16(sp)
1c0001e0:	ff012583          	lw	a1,-16(sp)
    lw  a2, -20(sp)
1c0001e4:	fec12603          	lw	a2,-20(sp)

    mret
1c0001e8:	30200073          	mret

1c0001ec <__rt_remote_enqueue_event_loop_next_cluster>:

__rt_remote_enqueue_event_loop_next_cluster:
    la   x9, __rt_fc_cluster_data
1c0001ec:	00008497          	auipc	s1,0x8
1c0001f0:	de848493          	addi	s1,s1,-536 # 1c007fd4 <__rt_fc_cluster_data>
    li   a1, RT_FC_CLUSTER_DATA_T_SIZEOF
1c0001f4:	02800593          	li	a1,40
    mul  a1, x8, a1
1c0001f8:	02b405b3          	mul	a1,s0,a1
    add  x9, x9, a1
1c0001fc:	94ae                	add	s1,s1,a1
    j __rt_remote_enqueue_event_loop_cluster
1c0001fe:	bf51                	j	1c000192 <__rt_remote_enqueue_event_loop_cluster>

1c000200 <__rt_call_external_c_function>:
#endif

  .global __rt_call_external_c_function
__rt_call_external_c_function:

    add  sp, sp, -128
1c000200:	7119                	addi	sp,sp,-128

    sw   ra, 0x00(sp)
1c000202:	c006                	sw	ra,0(sp)
    sw   gp, 0x04(sp)
1c000204:	c20e                	sw	gp,4(sp)
    sw   tp, 0x08(sp)
1c000206:	c412                	sw	tp,8(sp)
    sw   t0, 0x0C(sp)
1c000208:	c616                	sw	t0,12(sp)
    sw   t1, 0x10(sp)
1c00020a:	c81a                	sw	t1,16(sp)
    sw   t2, 0x14(sp)
1c00020c:	ca1e                	sw	t2,20(sp)
    sw   a3, 0x24(sp)
1c00020e:	d236                	sw	a3,36(sp)
    sw   a4, 0x28(sp)
1c000210:	d43a                	sw	a4,40(sp)
    sw   a5, 0x2C(sp)
1c000212:	d63e                	sw	a5,44(sp)
    sw   a6, 0x30(sp)
1c000214:	d842                	sw	a6,48(sp)
    sw   a7, 0x34(sp)
1c000216:	da46                	sw	a7,52(sp)
    sw   t3, 0x38(sp)
1c000218:	dc72                	sw	t3,56(sp)
    sw   t4, 0x3C(sp)
1c00021a:	de76                	sw	t4,60(sp)
    sw   t5, 0x40(sp)
1c00021c:	c0fa                	sw	t5,64(sp)
    sw   t6, 0x4C(sp)
1c00021e:	c6fe                	sw	t6,76(sp)

    jalr ra, a2
1c000220:	000600e7          	jalr	a2

    lw   ra, 0x00(sp)
1c000224:	4082                	lw	ra,0(sp)
    lw   gp, 0x04(sp)
1c000226:	4192                	lw	gp,4(sp)
    lw   tp, 0x08(sp)
1c000228:	4222                	lw	tp,8(sp)
    lw   t0, 0x0C(sp)
1c00022a:	42b2                	lw	t0,12(sp)
    lw   t1, 0x10(sp)
1c00022c:	4342                	lw	t1,16(sp)
    lw   t2, 0x14(sp)
1c00022e:	43d2                	lw	t2,20(sp)
    lw   a3, 0x24(sp)
1c000230:	5692                	lw	a3,36(sp)
    lw   a4, 0x28(sp)
1c000232:	5722                	lw	a4,40(sp)
    lw   a5, 0x2C(sp)
1c000234:	57b2                	lw	a5,44(sp)
    lw   a6, 0x30(sp)
1c000236:	5842                	lw	a6,48(sp)
    lw   a7, 0x34(sp)
1c000238:	58d2                	lw	a7,52(sp)
    lw   t3, 0x38(sp)
1c00023a:	5e62                	lw	t3,56(sp)
    lw   t4, 0x3C(sp)
1c00023c:	5ef2                	lw	t4,60(sp)
    lw   t5, 0x40(sp)
1c00023e:	4f06                	lw	t5,64(sp)
    lw   t6, 0x4C(sp)
1c000240:	4fb6                	lw	t6,76(sp)

    add  sp, sp, 128
1c000242:	6109                	addi	sp,sp,128

    jr   x9
1c000244:	8482                	jr	s1

1c000246 <__rt_illegal_instr>:

  .section .text
  
    .global __rt_illegal_instr
__rt_illegal_instr:
    sw   ra, -4(sp)
1c000246:	fe112e23          	sw	ra,-4(sp)
    sw   a0, -8(sp)
1c00024a:	fea12c23          	sw	a0,-8(sp)
    la   a0, __rt_handle_illegal_instr
1c00024e:	00003517          	auipc	a0,0x3
1c000252:	4c650513          	addi	a0,a0,1222 # 1c003714 <__rt_handle_illegal_instr>
    jal  ra, __rt_call_c_function
1c000256:	010000ef          	jal	ra,1c000266 <__rt_call_c_function>
    lw   ra, -4(sp)
1c00025a:	ffc12083          	lw	ra,-4(sp)
    lw   a0, -8(sp)
1c00025e:	ff812503          	lw	a0,-8(sp)
#if PULP_CORE == CORE_RISCV_V4
    mret
1c000262:	30200073          	mret

1c000266 <__rt_call_c_function>:
#endif


__rt_call_c_function:

    add  sp, sp, -128
1c000266:	7119                	addi	sp,sp,-128

    sw   ra, 0x00(sp)
1c000268:	c006                	sw	ra,0(sp)
    sw   gp, 0x04(sp)
1c00026a:	c20e                	sw	gp,4(sp)
    sw   tp, 0x08(sp)
1c00026c:	c412                	sw	tp,8(sp)
    sw   t0, 0x0C(sp)
1c00026e:	c616                	sw	t0,12(sp)
    sw   t1, 0x10(sp)
1c000270:	c81a                	sw	t1,16(sp)
    sw   t2, 0x14(sp)
1c000272:	ca1e                	sw	t2,20(sp)
    sw   a1, 0x1C(sp)
1c000274:	ce2e                	sw	a1,28(sp)
    sw   a2, 0x20(sp)
1c000276:	d032                	sw	a2,32(sp)
    sw   a3, 0x24(sp)
1c000278:	d236                	sw	a3,36(sp)
    sw   a4, 0x28(sp)
1c00027a:	d43a                	sw	a4,40(sp)
    sw   a5, 0x2C(sp)
1c00027c:	d63e                	sw	a5,44(sp)
    sw   a6, 0x30(sp)
1c00027e:	d842                	sw	a6,48(sp)
    sw   a7, 0x34(sp)
1c000280:	da46                	sw	a7,52(sp)
    sw   t3, 0x38(sp)
1c000282:	dc72                	sw	t3,56(sp)
    sw   t4, 0x3C(sp)
1c000284:	de76                	sw	t4,60(sp)
    sw   t5, 0x40(sp)
1c000286:	c0fa                	sw	t5,64(sp)
    sw   t6, 0x4C(sp)
1c000288:	c6fe                	sw	t6,76(sp)

    jalr ra, a0
1c00028a:	000500e7          	jalr	a0

    lw   ra, 0x00(sp)
1c00028e:	4082                	lw	ra,0(sp)
    lw   gp, 0x04(sp)
1c000290:	4192                	lw	gp,4(sp)
    lw   tp, 0x08(sp)
1c000292:	4222                	lw	tp,8(sp)
    lw   t0, 0x0C(sp)
1c000294:	42b2                	lw	t0,12(sp)
    lw   t1, 0x10(sp)
1c000296:	4342                	lw	t1,16(sp)
    lw   t2, 0x14(sp)
1c000298:	43d2                	lw	t2,20(sp)
    lw   a1, 0x1C(sp)
1c00029a:	45f2                	lw	a1,28(sp)
    lw   a2, 0x20(sp)
1c00029c:	5602                	lw	a2,32(sp)
    lw   a3, 0x24(sp)
1c00029e:	5692                	lw	a3,36(sp)
    lw   a4, 0x28(sp)
1c0002a0:	5722                	lw	a4,40(sp)
    lw   a5, 0x2C(sp)
1c0002a2:	57b2                	lw	a5,44(sp)
    lw   a6, 0x30(sp)
1c0002a4:	5842                	lw	a6,48(sp)
    lw   a7, 0x34(sp)
1c0002a6:	58d2                	lw	a7,52(sp)
    lw   t3, 0x38(sp)
1c0002a8:	5e62                	lw	t3,56(sp)
    lw   t4, 0x3C(sp)
1c0002aa:	5ef2                	lw	t4,60(sp)
    lw   t5, 0x40(sp)
1c0002ac:	4f06                	lw	t5,64(sp)
    lw   t6, 0x4C(sp)
1c0002ae:	4fb6                	lw	t6,76(sp)

    add  sp, sp, 128
1c0002b0:	6109                	addi	sp,sp,128

    jr   ra
1c0002b2:	8082                	ret

1c0002b4 <udma_event_handler>:

  .global udma_event_handler
udma_event_handler:

  // Dequeue the transfer which have just finished and mark it as done
  lw   x8, RT_PERIPH_CHANNEL_T_FIRST(x9)
1c0002b4:	4080                	lw	s0,0(s1)
  lw   x11, RT_PERIPH_CHANNEL_T_FIRST_TO_ENQUEUE(x9)   // This is used later on, just put here to fill the slot
1c0002b6:	448c                	lw	a1,8(s1)
  beq  x8, x0, __rt_udma_no_copy                       // Special case where there is no copy, just register the event in the bitfield
1c0002b8:	08040f63          	beqz	s0,1c000356 <__rt_udma_no_copy>
  lw   x12, RT_PERIPH_COPY_T_REPEAT(x8)
1c0002bc:	4c50                	lw	a2,28(s0)
  lw   x10, RT_PERIPH_COPY_T_NEXT(x8)
1c0002be:	4848                	lw	a0,20(s0)
  bne  x12, x0, repeat_transfer
1c0002c0:	04061f63          	bnez	a2,1c00031e <dmaCmd>
  sw   x10, RT_PERIPH_CHANNEL_T_FIRST(x9)
1c0002c4:	c088                	sw	a0,0(s1)
  
  // Handle any special end-of-transfer control
  lw       x10, RT_PERIPH_COPY_T_CTRL(x8)
1c0002c6:	4448                	lw	a0,12(s0)
  bnez     x10, handle_special_end
1c0002c8:	e15d                	bnez	a0,1c00036e <handle_special_end>

1c0002ca <resume_after_special_end>:
resume_after_special_end:


  // Now check if there are some transfers enqueued in the SW FIFO to be enqueued to the UDMA
  beq x11, x0, checkTask
1c0002ca:	02058f63          	beqz	a1,1c000308 <checkTask>

  // x9 contains the pointer to the channel and x11 the first copy

  // Update the FIFO pointers and just copy from node to UDMA
  lw  x12, RT_PERIPH_COPY_T_ENQUEUE_CALLBACK(x11)
1c0002ce:	4990                	lw	a2,16(a1)
  lw  x10, RT_PERIPH_COPY_T_NEXT(x11)
1c0002d0:	49c8                	lw	a0,20(a1)
  beqz x12, __rt_udma_call_enqueue_callback_resume
1c0002d2:	c611                	beqz	a2,1c0002de <__rt_udma_call_enqueue_callback_resume>

  la  x9, __rt_udma_call_enqueue_callback_resume
1c0002d4:	00000497          	auipc	s1,0x0
1c0002d8:	00a48493          	addi	s1,s1,10 # 1c0002de <__rt_udma_call_enqueue_callback_resume>
  jr  x12
1c0002dc:	8602                	jr	a2

1c0002de <__rt_udma_call_enqueue_callback_resume>:

__rt_udma_call_enqueue_callback_resume:
  lw  x12, RT_PERIPH_CHANNEL_T_BASE(x9)
1c0002de:	44d0                	lw	a2,12(s1)
  sw  x10, RT_PERIPH_CHANNEL_T_FIRST_TO_ENQUEUE(x9)
1c0002e0:	c488                	sw	a0,8(s1)
  lw  x10, RT_PERIPH_COPY_T_ADDR(x11)
1c0002e2:	4188                	lw	a0,0(a1)
  lw  x9, RT_PERIPH_COPY_T_SIZE(x11)
1c0002e4:	41c4                	lw	s1,4(a1)
  sw  x10, UDMA_CHANNEL_SADDR_OFFSET(x12)
1c0002e6:	c208                	sw	a0,0(a2)
  sw  x9, UDMA_CHANNEL_SIZE_OFFSET(x12)
1c0002e8:	c244                	sw	s1,4(a2)

  lw  x9, RT_PERIPH_COPY_T_CTRL(x11)
1c0002ea:	45c4                	lw	s1,12(a1)
  andi x9, x9, (1<<RT_PERIPH_COPY_CTRL_TYPE_WIDTH)-1
1c0002ec:	88bd                	andi	s1,s1,15
  li  x10, RT_PERIPH_COPY_SPECIAL_ENQUEUE_THRESHOLD
1c0002ee:	4515                	li	a0,5
  blt x9, x10, transfer_resume
1c0002f0:	00a4ca63          	blt	s1,a0,1c000304 <transfer_resume>
  li          x10, RT_PERIPH_COPY_HYPER
  beq         x9, x10, hyper
  li          x10, RT_PERIPH_COPY_FC_TCDM
  beq         x9, x10, fc_tcdm
#else
  p.beqimm      x9, RT_PERIPH_COPY_HYPER, hyper
1c0002f4:	0064a463          	p.beqimm	s1,6,1c0002fc <dual>
  p.beqimm      x9, RT_PERIPH_COPY_FC_TCDM, fc_tcdm
1c0002f8:	0074a263          	p.beqimm	s1,7,1c0002fc <dual>

1c0002fc <dual>:
#ifdef RV_ISA_RV32
  li    x10, ~(1<<UDMA_CHANNEL_SIZE_LOG2)
  and   x9, x12, x10
  lw    x10, RT_PERIPH_COPY_T_HYPER_ADDR(x11)
#else
  lw    x10, RT_PERIPH_COPY_T_HYPER_ADDR(x11)
1c0002fc:	51c8                	lw	a0,36(a1)
  p.bclr  x9, x12, 0, UDMA_CHANNEL_SIZE_LOG2
1c0002fe:	c04634b3          	p.bclr	s1,a2,0,4
#endif
  sw    x10, HYPER_EXT_ADDR_CHANNEL_CUSTOM_OFFSET(x9)
1c000302:	d088                	sw	a0,32(s1)

1c000304 <transfer_resume>:
#endif

transfer_resume:
  lw  x10, RT_PERIPH_COPY_T_CFG(x11)
1c000304:	4588                	lw	a0,8(a1)
  sw  x10, UDMA_CHANNEL_CFG_OFFSET(x12)
1c000306:	c608                	sw	a0,8(a2)

1c000308 <checkTask>:

checkTask:

  // Check if we have a DMA transfer from L2 to L1   
  //lw          x10, RT_PERIPH_COPY_T_DMACMD(x8)           // Not null if we must transfer
  lw          x11, RT_PERIPH_COPY_T_EVENT(x8)             // Read this in advance to fill the slot, it is used later on in case there is no DMA command
1c000308:	4c0c                	lw	a1,24(s0)

  //bne         x10, zero, dmaCmd
  la          x9, udma_event_handler_end
1c00030a:	00000497          	auipc	s1,0x0
1c00030e:	19a48493          	addi	s1,s1,410 # 1c0004a4 <udma_event_handler_end>
  bne         x11, zero, __rt_event_enqueue
1c000312:	00058463          	beqz	a1,1c00031a <checkTask+0x12>
1c000316:	df9ff06f          	j	1c00010e <__rt_event_enqueue>

  // Loop again in case there are still events in the FIFO
  j udma_event_handler_end
1c00031a:	18a0006f          	j	1c0004a4 <udma_event_handler_end>

1c00031e <dmaCmd>:
//   x12 : number of bytes to repeat
repeat_transfer:

#ifdef ARCHI_UDMA_HAS_HYPER

  lw      x11, RT_PERIPH_CHANNEL_T_BASE(x9)
1c00031e:	44cc                	lw	a1,12(s1)
#ifdef RV_ISA_RV32
  li      x10, ~(1<<UDMA_CHANNEL_SIZE_LOG2)
  and     x9, x11, x10
  lw      x10, RT_PERIPH_COPY_T_HYPER_ADDR(x8)
#else
  lw      x10, RT_PERIPH_COPY_T_HYPER_ADDR(x8)
1c000320:	5048                	lw	a0,36(s0)
  p.bclr  x9, x11, 0, UDMA_CHANNEL_SIZE_LOG2
1c000322:	c045b4b3          	p.bclr	s1,a1,0,4
#endif
  add     x10, x10, x12
1c000326:	9532                	add	a0,a0,a2
  sw      x10, HYPER_EXT_ADDR_CHANNEL_CUSTOM_OFFSET(x9)
1c000328:	d088                	sw	a0,32(s1)
  sw      x10, RT_PERIPH_COPY_T_HYPER_ADDR(x8)
1c00032a:	d048                	sw	a0,36(s0)

  lw      x10, RT_PERIPH_COPY_T_ADDR(x8)
1c00032c:	4008                	lw	a0,0(s0)
  lw      x9, RT_PERIPH_COPY_T_REPEAT_SIZE(x8)
1c00032e:	5004                	lw	s1,32(s0)
  add     x10, x10, x12
1c000330:	9532                	add	a0,a0,a2
  sub     x9, x9, x12
1c000332:	8c91                	sub	s1,s1,a2
  blt     x12, x9, not_last
1c000334:	00964963          	blt	a2,s1,1c000346 <not_last>
  mv      x12, x9
1c000338:	8626                	mv	a2,s1
  sw      x0, RT_PERIPH_COPY_T_REPEAT(x8)
1c00033a:	00042e23          	sw	zero,28(s0)
  beq     x12, x0, udma_event_handler_end
1c00033e:	00061463          	bnez	a2,1c000346 <not_last>
1c000342:	1620006f          	j	1c0004a4 <udma_event_handler_end>

1c000346 <not_last>:

not_last:
  sw      x10, RT_PERIPH_COPY_T_ADDR(x8)
1c000346:	c008                	sw	a0,0(s0)
  sw      x9, RT_PERIPH_COPY_T_REPEAT_SIZE(x8)
1c000348:	d004                	sw	s1,32(s0)
  sw      x10, UDMA_CHANNEL_SADDR_OFFSET(x11)
1c00034a:	c188                	sw	a0,0(a1)
  sw      x12, UDMA_CHANNEL_SIZE_OFFSET(x11)
1c00034c:	c1d0                	sw	a2,4(a1)

  li      x10, UDMA_CHANNEL_CFG_EN
1c00034e:	4541                	li	a0,16
  sw      x10, UDMA_CHANNEL_CFG_OFFSET(x11)
1c000350:	c588                	sw	a0,8(a1)

#endif

  j           udma_event_handler_end
1c000352:	1520006f          	j	1c0004a4 <udma_event_handler_end>

1c000356 <__rt_udma_no_copy>:




__rt_udma_no_copy:
  la      x9, __rt_socevents_status
1c000356:	e4000497          	auipc	s1,0xe4000
1c00035a:	f5a48493          	addi	s1,s1,-166 # 2b0 <__rt_socevents_status>
  lw      x8, 0(x9)
1c00035e:	4080                	lw	s0,0(s1)
  li      x11, 1
1c000360:	4585                	li	a1,1
  sll     x10, x11, x10
1c000362:	00a59533          	sll	a0,a1,a0
  or      x8, x8, x10
1c000366:	8c49                	or	s0,s0,a0
  sw      x8, 0(x9)
1c000368:	c080                	sw	s0,0(s1)
  j udma_event_handler_end
1c00036a:	13a0006f          	j	1c0004a4 <udma_event_handler_end>

1c00036e <handle_special_end>:
  li          x12, RT_PERIPH_COPY_I2C_STEP1
  beq         x10, x12, i2c_step1
  li          x12, RT_PERIPH_COPY_I2C_STEP2
  beq         x10, x12, i2c_step2
#else
  p.beqimm    x10, RT_PERIPH_COPY_I2C_STEP1, i2c_step1  
1c00036e:	04352463          	p.beqimm	a0,3,1c0003b6 <i2c_step1>
  p.beqimm    x10, RT_PERIPH_COPY_I2C_STEP2, i2c_step2
1c000372:	06452063          	p.beqimm	a0,4,1c0003d2 <i2c_step2>
#endif

  j           resume_after_special_end
1c000376:	bf91                	j	1c0002ca <resume_after_special_end>

1c000378 <spim_step3>:


spim_step3:
  // The current copy was enqueued to configure spi, cs and send command
  // now we need to reenqueue the same copy with the user buffer.
  lw          x10, RT_PERIPH_COPY_T_RAW_VAL1(x8)
1c000378:	5408                	lw	a0,40(s0)
  sw          x10, RT_PERIPH_COPY_T_CTRL(x8)
1c00037a:	c448                	sw	a0,12(s0)

  // Reenqueue the same copy to the list of pending copies as it has been removed
  lw          x10, RT_PERIPH_CHANNEL_T_FIRST(x9)
1c00037c:	4088                	lw	a0,0(s1)
  sw          x10, RT_PERIPH_COPY_T_NEXT(x8)
1c00037e:	c848                	sw	a0,20(s0)
  sw          x8, RT_PERIPH_CHANNEL_T_FIRST(x9)
1c000380:	c080                	sw	s0,0(s1)

  // And rearm the transfer in the udma
  lw          x12, RT_PERIPH_CHANNEL_T_BASE(x9)
1c000382:	44d0                	lw	a2,12(s1)
  lw          x10, RT_PERIPH_COPY_T_RAW_VAL2(x8)
1c000384:	5448                	lw	a0,44(s0)
  sw          x10, UDMA_CHANNEL_SADDR_OFFSET(x12)
1c000386:	c208                	sw	a0,0(a2)
  lw          x10, RT_PERIPH_COPY_T_RAW_VAL0(x8)
1c000388:	5048                	lw	a0,36(s0)
  sw          x10, UDMA_CHANNEL_SIZE_OFFSET(x12)
1c00038a:	c248                	sw	a0,4(a2)
  lw          x10, RT_PERIPH_COPY_T_CFG(x8)
1c00038c:	4408                	lw	a0,8(s0)
  sw          x10, UDMA_CHANNEL_CFG_OFFSET(x12)
1c00038e:	c608                	sw	a0,8(a2)

  j           udma_event_handler_end
1c000390:	1140006f          	j	1c0004a4 <udma_event_handler_end>

1c000394 <spim_step2>:

spim_step2:
  // Now that the user data has been pushed, we must push an EOT command
  sw          x0, RT_PERIPH_COPY_T_CTRL(x8)
1c000394:	00042623          	sw	zero,12(s0)
  
  // Reenqueue the same copy to the list of pending copies as it has been removed
  lw          x10, RT_PERIPH_CHANNEL_T_FIRST(x9)
1c000398:	4088                	lw	a0,0(s1)
  sw          x10, RT_PERIPH_COPY_T_NEXT(x8)
1c00039a:	c848                	sw	a0,20(s0)
  sw          x8, RT_PERIPH_CHANNEL_T_FIRST(x9)
1c00039c:	c080                	sw	s0,0(s1)

  // And rearm the transfer in the udma
  #if PULP_CHIP_FAMILY == CHIP_GAP

  lw          x8, RT_PERIPH_COPY_T_PERIPH_DATA(x8)
1c00039e:	4060                	lw	s0,68(s0)
  li          x12, SPI_CMD_EOT(0)
1c0003a0:	90000637          	lui	a2,0x90000
  sw          x12, 0(x8)
1c0003a4:	c010                	sw	a2,0(s0)
  lw          x12, RT_PERIPH_CHANNEL_T_BASE(x9)
1c0003a6:	44d0                	lw	a2,12(s1)
  sw          x8, UDMA_CHANNEL_SADDR_OFFSET(x12)
1c0003a8:	c200                	sw	s0,0(a2)
  addi        x10, x8, RT_PERIPH_COPY_T_PERIPH_DATA
  sw          x10, UDMA_CHANNEL_SADDR_OFFSET(x12)

  #endif

  li          x10, 4
1c0003aa:	4511                	li	a0,4
  sw          x10, UDMA_CHANNEL_SIZE_OFFSET(x12)
1c0003ac:	c248                	sw	a0,4(a2)
  li          x10, UDMA_CHANNEL_CFG_EN
1c0003ae:	4541                	li	a0,16
  sw          x10, UDMA_CHANNEL_CFG_OFFSET(x12)
1c0003b0:	c608                	sw	a0,8(a2)

  j           udma_event_handler_end
1c0003b2:	0f20006f          	j	1c0004a4 <udma_event_handler_end>

1c0003b6 <i2c_step1>:
 */

i2c_step1:
  // The current copy was enqueued to configure i2c, cs and send command
  // now we need to reenqueue the same copy with the user buffer.
  lw          x10, RT_PERIPH_COPY_T_RAW_VAL1(x8)
1c0003b6:	5408                	lw	a0,40(s0)
  sw          x10, RT_PERIPH_COPY_T_CTRL(x8)
1c0003b8:	c448                	sw	a0,12(s0)

  // Reenqueue the same copy to the list of pending copies as it has been removed
  lw          x10, RT_PERIPH_CHANNEL_T_FIRST(x9)
1c0003ba:	4088                	lw	a0,0(s1)
  sw          x10, RT_PERIPH_COPY_T_NEXT(x8)
1c0003bc:	c848                	sw	a0,20(s0)
  sw          x8, RT_PERIPH_CHANNEL_T_FIRST(x9)
1c0003be:	c080                	sw	s0,0(s1)

  // And rearm the transfer in the udma
  lw          x12, RT_PERIPH_CHANNEL_T_BASE(x9)
1c0003c0:	44d0                	lw	a2,12(s1)
  lw          x10, RT_PERIPH_COPY_T_ADDR(x8)
1c0003c2:	4008                	lw	a0,0(s0)
  sw          x10, UDMA_CHANNEL_SADDR_OFFSET(x12)
1c0003c4:	c208                	sw	a0,0(a2)
  lw          x10, RT_PERIPH_COPY_T_RAW_VAL0(x8)
1c0003c6:	5048                	lw	a0,36(s0)
  sw          x10, UDMA_CHANNEL_SIZE_OFFSET(x12)
1c0003c8:	c248                	sw	a0,4(a2)
  lw          x10, RT_PERIPH_COPY_T_CFG(x8)
1c0003ca:	4408                	lw	a0,8(s0)
  sw          x10, UDMA_CHANNEL_CFG_OFFSET(x12)
1c0003cc:	c608                	sw	a0,8(a2)

  j           udma_event_handler_end
1c0003ce:	0d60006f          	j	1c0004a4 <udma_event_handler_end>

1c0003d2 <i2c_step2>:

i2c_step2:
  // Now that the user data has been pushed, we must push a STOP command
  sw          x0, RT_PERIPH_COPY_T_CTRL(x8)
1c0003d2:	00042623          	sw	zero,12(s0)
  
  // Reenqueue the same copy to the list of pending copies as it has been removed
  lw          x10, RT_PERIPH_CHANNEL_T_FIRST(x9)
1c0003d6:	4088                	lw	a0,0(s1)
  sw          x10, RT_PERIPH_COPY_T_NEXT(x8)
1c0003d8:	c848                	sw	a0,20(s0)
  sw          x8, RT_PERIPH_CHANNEL_T_FIRST(x9)
1c0003da:	c080                	sw	s0,0(s1)

  // And rearm the transfer in the udma
  #if PULP_CHIP_FAMILY == CHIP_GAP

  lw          x8, RT_PERIPH_COPY_T_PERIPH_DATA(x8)
1c0003dc:	4060                	lw	s0,68(s0)
  li          x12, I2C_CMD_STOP
1c0003de:	02000613          	li	a2,32
  sw          x12, 0(x8)
1c0003e2:	c010                	sw	a2,0(s0)
  lw          x12, RT_PERIPH_CHANNEL_T_BASE(x9)
1c0003e4:	44d0                	lw	a2,12(s1)
  sw          x8, UDMA_CHANNEL_SADDR_OFFSET(x12)
1c0003e6:	c200                	sw	s0,0(a2)
  addi        x10, x8, RT_PERIPH_COPY_T_PERIPH_DATA
  sw          x10, UDMA_CHANNEL_SADDR_OFFSET(x12)

  #endif

  li          x10, 1
1c0003e8:	4505                	li	a0,1
  sw          x10, UDMA_CHANNEL_SIZE_OFFSET(x12)
1c0003ea:	c248                	sw	a0,4(a2)
  li          x10, UDMA_CHANNEL_CFG_EN
1c0003ec:	4541                	li	a0,16
  sw          x10, UDMA_CHANNEL_CFG_OFFSET(x12)
1c0003ee:	c608                	sw	a0,8(a2)

  j           udma_event_handler_end
1c0003f0:	0b40006f          	j	1c0004a4 <udma_event_handler_end>

1c0003f4 <__rt_fc_socevents_handler>:

  .global __rt_fc_socevents_handler
  .extern pwm_event_handler
__rt_fc_socevents_handler:
// The stack is first adjusted to have stack-based load/store compressed
  add sp, sp, -128
1c0003f4:	7119                	addi	sp,sp,-128
  sw  x8, 0(sp)
1c0003f6:	c022                	sw	s0,0(sp)
  sw  x9, 4(sp)
1c0003f8:	c226                	sw	s1,4(sp)
  sw  x10, 8(sp)
1c0003fa:	c42a                	sw	a0,8(sp)
  sw  x11, 12(sp)
1c0003fc:	c62e                	sw	a1,12(sp)
  sw  x12, 16(sp)
1c0003fe:	c832                	sw	a2,16(sp)


  // Pop one element from the FIFO
  li  x8, ARCHI_EU_ADDR + EU_SOC_EVENTS_AREA_OFFSET + EU_SOC_EVENTS_CURRENT_EVENT
1c000400:	00201437          	lui	s0,0x201
1c000404:	f0040413          	addi	s0,s0,-256 # 200f00 <__L2+0x180f00>
  lw  x8, 0(x8)
1c000408:	4000                	lw	s0,0(s0)

  // Now that we popped the element, we can clear the soc event FIFO event as the FIFO is generating
  // an event as soon as the FIFO is not empty
  li  x9, 1<<PULP_SOC_EVENTS_EVENT
1c00040a:	080004b7          	lui	s1,0x8000
  li  x10, ARCHI_EU_DEMUX_ADDR + EU_CORE_BUFFER_CLEAR
1c00040e:	00204537          	lui	a0,0x204
1c000412:	02850513          	addi	a0,a0,40 # 204028 <__L2+0x184028>
  sw  x9, 0(x10)
1c000416:	c104                	sw	s1,0(a0)
  // Due to a HW bug in the core on Gap, we have to load this value early
#ifdef CONFIG_NO_FC_TINY
  la    x12, __rt_hyper_udma_handle
  lw    x12, 0(x12)
#else
  lw    x12, %tiny(__rt_hyper_udma_handle)(x0)
1c000418:	30802603          	lw	a2,776(zero) # 308 <__rt_hyper_udma_handle>
#endif
#endif

  // Extract ID part
  p.extractu x10, x8, EU_SOC_EVENTS_EVENT_MASK_BITS-1, EU_SOC_EVENTS_EVENT_MASK_OFFSET
1c00041c:	ce041533          	p.extractu	a0,s0,7,0

#ifdef ARCHI_UDMA_HAS_HYPER
  p.bneimm x10, UDMA_EVENT_ID(ARCHI_UDMA_HYPER_ID(0)), __rt_fc_socevents_not_hyper_rx
1c000420:	00653363          	p.bneimm	a0,6,1c000426 <__rt_fc_socevents_not_hyper_rx>
  jr x12
1c000424:	8602                	jr	a2

1c000426 <__rt_fc_socevents_not_hyper_rx>:

__rt_fc_socevents_not_hyper_rx:
  p.bneimm x10, UDMA_EVENT_ID(ARCHI_UDMA_HYPER_ID(0))+1, __rt_fc_socevents_not_hyper_tx
1c000426:	00753363          	p.bneimm	a0,7,1c00042c <__rt_fc_socevents_not_hyper_tx>
  jr x12
1c00042a:	8602                	jr	a2

1c00042c <__rt_fc_socevents_not_hyper_tx>:
#endif

__rt_fc_socevents_not_hyper_tx:

  // UDMA CHANNEL EVENTS
  li x9, ARCHI_SOC_EVENT_UDMA_NB_EVT
1c00042c:	44cd                	li	s1,19
  bge x10, x9, __rt_soc_evt_no_udma_channel
1c00042e:	00955c63          	ble	s1,a0,1c000446 <__rt_soc_evt_no_udma_channel>
  andi   x8, x10, 1
  srli   x10, x10, 1
  or     x10, x10, x8
#endif

  la     x8, periph_channels
1c000432:	e4000417          	auipc	s0,0xe4000
1c000436:	bfe40413          	addi	s0,s0,-1026 # 30 <periph_channels>
  slli   x9, x10, RT_PERIPH_CHANNEL_T_SIZEOF_LOG2
1c00043a:	00551493          	slli	s1,a0,0x5
  add    x9, x9, x8
1c00043e:	94a2                	add	s1,s1,s0

  lw   x11, RT_PERIPH_CHANNEL_T_CALLBACK(x9)
1c000440:	4ccc                	lw	a1,28(s1)
  lw   x8, RT_PERIPH_CHANNEL_T_FIRST(x9)
1c000442:	4080                	lw	s0,0(s1)

  jr   x11
1c000444:	8582                	jr	a1

1c000446 <__rt_soc_evt_no_udma_channel>:


__rt_soc_evt_no_udma_channel:

  li x9, ARCHI_SOC_EVENT_UDMA_FIRST_EXTRA_EVT + ARCHI_SOC_EVENT_UDMA_NB_EXTRA_EVT
1c000446:	44f9                	li	s1,30
  bge x10, x9, __rt_soc_evt_no_udma
1c000448:	00955b63          	ble	s1,a0,1c00045e <__rt_soc_evt_no_udma>

  addi x8, x10, -ARCHI_SOC_EVENT_UDMA_FIRST_EXTRA_EVT
1c00044c:	fec50413          	addi	s0,a0,-20
  slli x11, x8, 2
1c000450:	00241593          	slli	a1,s0,0x2
  la   x12, __rt_udma_extra_callback
  p.lw x12, x12(x11)
  la   x9, __rt_udma_extra_callback_arg
  p.lw x11, x9(x11)
#else
  lw   x12, %tiny(__rt_udma_extra_callback)(x11)
1c000454:	2b85a603          	lw	a2,696(a1)
  lw   x11, %tiny(__rt_udma_extra_callback_arg)(x11)
1c000458:	2e05a583          	lw	a1,736(a1)
#endif

  jr   x12
1c00045c:	8602                	jr	a2

1c00045e <__rt_soc_evt_no_udma>:

  .global __rt_soc_evt_no_udma
__rt_soc_evt_no_udma:
#ifdef RT_CONFIG_GPIO_ENABLED
  // GPIO EVENT
  li      x9, ARCHI_SOC_EVENT_GPIO
1c00045e:	02a00493          	li	s1,42
  beq     x10, x9, __rt_gpio_handler
1c000462:	00951463          	bne	a0,s1,1c00046a <__rt_soc_evt_no_udma+0xc>
1c000466:	1740006f          	j	1c0005da <__rt_gpio_handler>
#endif

  li      x9, ARCHI_SOC_EVENT_RTC_IRQ
1c00046a:	02c00493          	li	s1,44
  beq     x9, x10, rtc_event_handler
1c00046e:	04a48363          	beq	s1,a0,1c0004b4 <rtc_event_handler>

1c000472 <__rt_soc_evt_pwm>:


// pwm event handler
//x9 : nb of event that will be used by handler
__rt_soc_evt_pwm:
  li x11, ARCHI_SOC_EVENT_ADV_TIMER_NB_EVT-1 // 3
1c000472:	458d                	li	a1,3
  addi x9, x11, ARCHI_SOC_EVENT_ADV_TIMER_FIRST_EVT //3+38=41
1c000474:	02658493          	addi	s1,a1,38
  sub x9, x9, x10 // 41 - 56
1c000478:	8c89                	sub	s1,s1,a0
  bgt x9, x11, __rt_soc_evt_store // if > 3 not for pwm
1c00047a:	0095c663          	blt	a1,s1,1c000486 <__rt_soc_evt_store>
  blt x9, x0,  __rt_soc_evt_store // if > 3 not for pwm
1c00047e:	0004c463          	bltz	s1,1c000486 <__rt_soc_evt_store>
  j pwm_event_handler
1c000482:	1340006f          	j	1c0005b6 <pwm_event_handler>

1c000486 <__rt_soc_evt_store>:


__rt_soc_evt_store:
  // If the event is not handled, store it in the soc event status mask
  la      x9, __rt_socevents_status
1c000486:	e4000497          	auipc	s1,0xe4000
1c00048a:	e2a48493          	addi	s1,s1,-470 # 2b0 <__rt_socevents_status>
  li      x11, 32
1c00048e:	02000593          	li	a1,32
  blt     x10, x11, socevents_set
1c000492:	00b54463          	blt	a0,a1,1c00049a <socevents_set>
  addi    x9, x9, 4
1c000496:	0491                	addi	s1,s1,4
  addi    x10, x10, -32
1c000498:	1501                	addi	a0,a0,-32

1c00049a <socevents_set>:

socevents_set:
  lw      x11, 0(x9)
1c00049a:	408c                	lw	a1,0(s1)
  p.bsetr x12, x11, x10
1c00049c:	80a5c633          	p.bsetr	a2,a1,a0
  sw      x12, 0(x9)
1c0004a0:	c090                	sw	a2,0(s1)
  j       udma_event_handler_end
1c0004a2:	a009                	j	1c0004a4 <udma_event_handler_end>

1c0004a4 <udma_event_handler_end>:

  .global udma_event_handler_end
udma_event_handler_end:
  lw  x8, 0(sp)
1c0004a4:	4402                	lw	s0,0(sp)
  lw  x9, 4(sp)
1c0004a6:	4492                	lw	s1,4(sp)
  lw  x10, 8(sp)
1c0004a8:	4522                	lw	a0,8(sp)
  lw  x11, 12(sp)
1c0004aa:	45b2                	lw	a1,12(sp)
  lw  x12, 16(sp)
1c0004ac:	4642                	lw	a2,16(sp)
  add sp, sp, 128
1c0004ae:	6109                	addi	sp,sp,128
  mret
1c0004b0:	30200073          	mret

1c0004b4 <rtc_event_handler>:


rtc_event_handler:
  lw    x11, __rtc_handler
1c0004b4:	e4000597          	auipc	a1,0xe4000
1c0004b8:	f2c5a583          	lw	a1,-212(a1) # 3e0 <__rtc_handler>
  la    x9, udma_event_handler_end
1c0004bc:	00000497          	auipc	s1,0x0
1c0004c0:	fe848493          	addi	s1,s1,-24 # 1c0004a4 <udma_event_handler_end>
  j   __rt_event_enqueue
1c0004c4:	c4bff06f          	j	1c00010e <__rt_event_enqueue>

1c0004c8 <__rt_hyper_handle_copy>:

#ifdef CONFIG_NO_FC_TINY
  la        x8, __rt_hyper_pending_repeat
  lw    x12, 0(x8)
#else
  lw    x12, %tiny(__rt_hyper_pending_repeat)(x0)
1c0004c8:	31802603          	lw	a2,792(zero) # 318 <__rt_hyper_pending_repeat>
#endif
  beqz      x12, __rt_hyper_handle_copy_end
1c0004cc:	c621                	beqz	a2,1c000514 <__rt_hyper_handle_copy_end>

1c0004ce <__rt_hyper_repeat_copy>:

#ifdef CONFIG_NO_FC_TINY
  la        x8, __rt_hyper_pending_base
  lw        x11, 0(x8)
#else
  lw        x11, %tiny(__rt_hyper_pending_base)(x0)
1c0004ce:	30c02583          	lw	a1,780(zero) # 30c <__rt_hyper_pending_base>
#else
#ifdef CONFIG_NO_FC_TINY
  la        x8, __rt_hyper_pending_hyper_addr
  lw        x10, 0(x8)
#else
  lw        x10, %tiny(__rt_hyper_pending_hyper_addr)(x0)
1c0004d2:	31002503          	lw	a0,784(zero) # 310 <__rt_hyper_pending_hyper_addr>
#endif
  p.bclr    x9, x11, 0, UDMA_CHANNEL_SIZE_LOG2
1c0004d6:	c045b4b3          	p.bclr	s1,a1,0,4
#endif
  add       x10, x10, x12
1c0004da:	9532                	add	a0,a0,a2
  sw        x10, HYPER_EXT_ADDR_CHANNEL_CUSTOM_OFFSET(x9)
1c0004dc:	d088                	sw	a0,32(s1)
  la        x8, __rt_hyper_pending_addr
  lw        x10, 0(x8)
  la        x8, __rt_hyper_pending_repeat_size
  lw        x9, 0(x8)
#else
  sw        x10, %tiny(__rt_hyper_pending_hyper_addr)(x0)
1c0004de:	30a02823          	sw	a0,784(zero) # 310 <__rt_hyper_pending_hyper_addr>

  lw        x10, %tiny(__rt_hyper_pending_addr)(x0)
1c0004e2:	31402503          	lw	a0,788(zero) # 314 <__rt_hyper_pending_addr>
  lw        x9, %tiny(__rt_hyper_pending_repeat_size)(x0)
1c0004e6:	31c02483          	lw	s1,796(zero) # 31c <__rt_hyper_pending_repeat_size>
#endif
  add       x10, x10, x12
1c0004ea:	9532                	add	a0,a0,a2
  sub       x9, x9, x12
1c0004ec:	8c91                	sub	s1,s1,a2
  blt       x12, x9, __rt_hyper_repeat_copy_not_last
1c0004ee:	00964963          	blt	a2,s1,1c000500 <__rt_hyper_repeat_copy_not_last>
  mv        x12, x9
1c0004f2:	8626                	mv	a2,s1
#ifdef CONFIG_NO_FC_TINY
  la        x8, __rt_hyper_pending_repeat
  sw        x0, 0(x8)
#else
  sw        x0, %tiny(__rt_hyper_pending_repeat)(x0)
1c0004f4:	30002c23          	sw	zero,792(zero) # 318 <__rt_hyper_pending_repeat>
#endif
  beq       x12, x0, udma_event_handler_end
1c0004f8:	00061463          	bnez	a2,1c000500 <__rt_hyper_repeat_copy_not_last>
1c0004fc:	fa9ff06f          	j	1c0004a4 <udma_event_handler_end>

1c000500 <__rt_hyper_repeat_copy_not_last>:
  la        x8, __rt_hyper_pending_addr
  sw        x10, 0(x8)
  la        x8, __rt_hyper_pending_repeat_size
  sw        x9, 0(x8)
#else
  sw        x10, %tiny(__rt_hyper_pending_addr)(x0)
1c000500:	30a02a23          	sw	a0,788(zero) # 314 <__rt_hyper_pending_addr>
  sw        x9, %tiny(__rt_hyper_pending_repeat_size)(x0)
1c000504:	30902e23          	sw	s1,796(zero) # 31c <__rt_hyper_pending_repeat_size>
#endif
  sw        x10, UDMA_CHANNEL_SADDR_OFFSET(x11)
1c000508:	c188                	sw	a0,0(a1)
  sw        x12, UDMA_CHANNEL_SIZE_OFFSET(x11)
1c00050a:	c1d0                	sw	a2,4(a1)

  li        x10, UDMA_CHANNEL_CFG_EN
1c00050c:	4541                	li	a0,16
  sw        x10, UDMA_CHANNEL_CFG_OFFSET(x11)
1c00050e:	c588                	sw	a0,8(a1)

  j         udma_event_handler_end
1c000510:	f95ff06f          	j	1c0004a4 <udma_event_handler_end>

1c000514 <__rt_hyper_handle_copy_end>:
#ifdef CONFIG_NO_FC_TINY
  la        x8, __rt_hyper_end_task
  lw        x11, 0(x8)
  sw        x0, 0(x8)
#else
  lw        x11, %tiny(__rt_hyper_end_task)(x0)
1c000514:	32002583          	lw	a1,800(zero) # 320 <__rt_hyper_end_task>
  sw        x0, %tiny(__rt_hyper_end_task)(x0)
1c000518:	32002023          	sw	zero,800(zero) # 320 <__rt_hyper_end_task>
#endif
  beqz      x11, __rt_hyper_handle_emu_task
1c00051c:	c589                	beqz	a1,1c000526 <__rt_hyper_handle_emu_task>
#ifdef CONFIG_NO_FC_TINY
  la        x8, __rt_hyper_current_task
  sw        x0, 0(x8)
#else
  sw        x0, %tiny(__rt_hyper_current_task)(x0)
1c00051e:	32002223          	sw	zero,804(zero) # 324 <__rt_hyper_current_task>
#endif
  jal       x9, __rt_event_enqueue
1c000522:	bedff4ef          	jal	s1,1c00010e <__rt_event_enqueue>

1c000526 <__rt_hyper_handle_emu_task>:
__rt_hyper_handle_emu_task:
#ifdef CONFIG_NO_FC_TINY
  la        x8, __rt_hyper_pending_emu_task
  lw        x10, 0(x8)
#else
  lw        x10, %tiny(__rt_hyper_pending_emu_task)(x0)
1c000526:	33c02503          	lw	a0,828(zero) # 33c <__rt_hyper_pending_emu_task>
#endif
  beqz      x10, __rt_hyper_handle_pending_tasks
1c00052a:	c919                	beqz	a0,1c000540 <__rt_hyper_handle_pending_tasks>

  la      x12, __rt_hyper_resume_emu_task
1c00052c:	00005617          	auipc	a2,0x5
1c000530:	18a60613          	addi	a2,a2,394 # 1c0056b6 <__rt_hyper_resume_emu_task>
  la        x9, udma_event_handler_end
1c000534:	00000497          	auipc	s1,0x0
1c000538:	f7048493          	addi	s1,s1,-144 # 1c0004a4 <udma_event_handler_end>
  j         __rt_call_external_c_function
1c00053c:	cc5ff06f          	j	1c000200 <__rt_call_external_c_function>

1c000540 <__rt_hyper_handle_pending_tasks>:
__rt_hyper_handle_pending_tasks:
#ifdef CONFIG_NO_FC_TINY
  la        x8, __rt_hyper_pending_tasks
  lw        x10, 0(x8)
#else
  lw        x10, %tiny(__rt_hyper_pending_tasks)(x0)
1c000540:	34002503          	lw	a0,832(zero) # 340 <__rt_hyper_pending_tasks>
#endif
  beqz      x10, udma_event_handler_end
1c000544:	00051463          	bnez	a0,1c00054c <__rt_hyper_handle_pending_tasks+0xc>
1c000548:	f5dff06f          	j	1c0004a4 <udma_event_handler_end>

  la      x12, __rt_hyper_resume_copy
1c00054c:	00005617          	auipc	a2,0x5
1c000550:	17260613          	addi	a2,a2,370 # 1c0056be <__rt_hyper_resume_copy>
  la        x9, udma_event_handler_end
1c000554:	00000497          	auipc	s1,0x0
1c000558:	f5048493          	addi	s1,s1,-176 # 1c0004a4 <udma_event_handler_end>
  j         __rt_call_external_c_function
1c00055c:	ca5ff06f          	j	1c000200 <__rt_call_external_c_function>

1c000560 <__rt_hyper_handle_burst>:
  la        x8, __rt_hyper_pending_repeat
  lw        x12, 0(x8)
  la        x8, __rt_hyper_pending_base
  lw        x11, 0(x8)
#else
  lw        x12, %tiny(__rt_hyper_pending_repeat)(x0)
1c000560:	31802603          	lw	a2,792(zero) # 318 <__rt_hyper_pending_repeat>

  lw        x11, %tiny(__rt_hyper_pending_base)(x0)
1c000564:	30c02583          	lw	a1,780(zero) # 30c <__rt_hyper_pending_base>
#else
#ifdef CONFIG_NO_FC_TINY
  la        x8, __rt_hyper_pending_hyper_addr
  lw        x10, 0(x8)
#else
  lw        x10, %tiny(__rt_hyper_pending_hyper_addr)(x0)
1c000568:	31002503          	lw	a0,784(zero) # 310 <__rt_hyper_pending_hyper_addr>
#endif
  p.bclr    x9, x11, 0, UDMA_CHANNEL_SIZE_LOG2
1c00056c:	c045b4b3          	p.bclr	s1,a1,0,4
#endif
  add       x10, x10, x12
1c000570:	9532                	add	a0,a0,a2
  sw        x10, HYPER_EXT_ADDR_CHANNEL_CUSTOM_OFFSET(x9)
1c000572:	d088                	sw	a0,32(s1)
  la        x8, __rt_hyper_pending_addr
  lw        x10, 0(x8)
  la        x8, __rt_hyper_pending_repeat_size
  lw        x9, 0(x8)
#else
  sw        x10, %tiny(__rt_hyper_pending_hyper_addr)(x0)
1c000574:	30a02823          	sw	a0,784(zero) # 310 <__rt_hyper_pending_hyper_addr>

  lw        x10, %tiny(__rt_hyper_pending_addr)(x0)
1c000578:	31402503          	lw	a0,788(zero) # 314 <__rt_hyper_pending_addr>
  lw        x9, %tiny(__rt_hyper_pending_repeat_size)(x0)
1c00057c:	31c02483          	lw	s1,796(zero) # 31c <__rt_hyper_pending_repeat_size>
#endif
  add       x10, x10, x12
1c000580:	9532                	add	a0,a0,a2
  sub       x9, x9, x12
1c000582:	8c91                	sub	s1,s1,a2
  blt       x12, x9, __rt_hyper_repeat_copy_not_last2
1c000584:	00964f63          	blt	a2,s1,1c0005a2 <__rt_hyper_repeat_copy_not_last2>

  la        x12, __rt_hyper_handle_copy
1c000588:	00000617          	auipc	a2,0x0
1c00058c:	f4060613          	addi	a2,a2,-192 # 1c0004c8 <__rt_hyper_handle_copy>
#ifdef CONFIG_NO_FC_TINY
  la        x8, __rt_hyper_udma_handle
  sw        x12, 0(x8)
#else
  sw        x12, %tiny(__rt_hyper_udma_handle)(x0)
1c000590:	30c02423          	sw	a2,776(zero) # 308 <__rt_hyper_udma_handle>
#endif

  mv        x12, x9
1c000594:	8626                	mv	a2,s1
#ifdef CONFIG_NO_FC_TINY
  la        x8, __rt_hyper_pending_repeat
  sw        x0, 0(x8)
#else
  sw        x0, %tiny(__rt_hyper_pending_repeat)(x0)
1c000596:	30002c23          	sw	zero,792(zero) # 318 <__rt_hyper_pending_repeat>
#endif
  beq       x12, x0, udma_event_handler_end
1c00059a:	00061463          	bnez	a2,1c0005a2 <__rt_hyper_repeat_copy_not_last2>
1c00059e:	f07ff06f          	j	1c0004a4 <udma_event_handler_end>

1c0005a2 <__rt_hyper_repeat_copy_not_last2>:
  la        x8, __rt_hyper_pending_addr
  sw        x10, 0(x8)
  la        x8, __rt_hyper_pending_repeat_size
  sw        x9, 0(x8)
#else
  sw        x10, %tiny(__rt_hyper_pending_addr)(x0)
1c0005a2:	30a02a23          	sw	a0,788(zero) # 314 <__rt_hyper_pending_addr>
  sw        x9, %tiny(__rt_hyper_pending_repeat_size)(x0)
1c0005a6:	30902e23          	sw	s1,796(zero) # 31c <__rt_hyper_pending_repeat_size>
#endif
  sw        x10, UDMA_CHANNEL_SADDR_OFFSET(x11)
1c0005aa:	c188                	sw	a0,0(a1)
  sw        x12, UDMA_CHANNEL_SIZE_OFFSET(x11)
1c0005ac:	c1d0                	sw	a2,4(a1)

  li        x10, UDMA_CHANNEL_CFG_EN
1c0005ae:	4541                	li	a0,16
  sw        x10, UDMA_CHANNEL_CFG_OFFSET(x11)
1c0005b0:	c588                	sw	a0,8(a1)

  j         udma_event_handler_end
1c0005b2:	ef3ff06f          	j	1c0004a4 <udma_event_handler_end>

1c0005b6 <pwm_event_handler>:
#include "archi/eu/eu_v3.h"

  .global pwm_event_handler
  .extern pwmEventsStatus
pwm_event_handler:
  la   x10, pwmEventsStatus
1c0005b6:	e4000517          	auipc	a0,0xe4000
1c0005ba:	dee50513          	addi	a0,a0,-530 # 3a4 <pwmEventsStatus>
  addi  x11, x0, 1
1c0005be:	00100593          	li	a1,1
  lw   x8, 0(x10)
1c0005c2:	4100                	lw	s0,0(a0)
  p.insertr x8, x11, x9
1c0005c4:	8095a433          	p.insertr	s0,a1,s1
  sw   x8, 0(x10)
1c0005c8:	c100                	sw	s0,0(a0)

  // continue with sw event raising
  li   x9, ARCHI_EU_DEMUX_ADDR + EU_SW_EVENTS_DEMUX_OFFSET + EU_CORE_TRIGG_SW_EVENT + (PLP_RT_NOTIF_EVENT << 2)
1c0005ca:	002044b7          	lui	s1,0x204
1c0005ce:	10c48493          	addi	s1,s1,268 # 20410c <__L2+0x18410c>
  li   x10, -1
1c0005d2:	557d                	li	a0,-1
  sw   x10, 0(x9)
1c0005d4:	c088                	sw	a0,0(s1)

  j udma_event_handler_end
1c0005d6:	ecfff06f          	j	1c0004a4 <udma_event_handler_end>

1c0005da <__rt_gpio_handler>:
  bnez     x8, __rt_gpio_ff1_loop
#endif

#else
  .extern __pi_gpio_handler
  mv        x11, x8
1c0005da:	85a2                	mv	a1,s0
  la        x12, __pi_gpio_handler
1c0005dc:	00005617          	auipc	a2,0x5
1c0005e0:	11460613          	addi	a2,a2,276 # 1c0056f0 <__pi_gpio_handler>
  la        x9, __rt_gpio_handler_end
1c0005e4:	00000497          	auipc	s1,0x0
1c0005e8:	00c48493          	addi	s1,s1,12 # 1c0005f0 <__rt_gpio_handler_end>
  j         __rt_call_external_c_function
1c0005ec:	c15ff06f          	j	1c000200 <__rt_call_external_c_function>

1c0005f0 <__rt_gpio_handler_end>:

  mret

#else

  j udma_event_handler_end
1c0005f0:	eb5ff06f          	j	1c0004a4 <udma_event_handler_end>

1c0005f4 <__udivdi3>:
1c0005f4:	87b2                	mv	a5,a2
1c0005f6:	8736                	mv	a4,a3
1c0005f8:	88aa                	mv	a7,a0
1c0005fa:	882e                	mv	a6,a1
1c0005fc:	1e069d63          	bnez	a3,1c0007f6 <__udivdi3+0x202>
1c000600:	1c007337          	lui	t1,0x1c007
1c000604:	43c30313          	addi	t1,t1,1084 # 1c00743c <__DTOR_END__>
1c000608:	0ac5fd63          	bleu	a2,a1,1c0006c2 <__udivdi3+0xce>
1c00060c:	6741                	lui	a4,0x10
1c00060e:	0ae67363          	bleu	a4,a2,1c0006b4 <__udivdi3+0xc0>
1c000612:	0ff00693          	li	a3,255
1c000616:	00c6b6b3          	sltu	a3,a3,a2
1c00061a:	068e                	slli	a3,a3,0x3
1c00061c:	00d65733          	srl	a4,a2,a3
1c000620:	933a                	add	t1,t1,a4
1c000622:	00034703          	lbu	a4,0(t1)
1c000626:	02000313          	li	t1,32
1c00062a:	96ba                	add	a3,a3,a4
1c00062c:	40d30333          	sub	t1,t1,a3
1c000630:	00030c63          	beqz	t1,1c000648 <__udivdi3+0x54>
1c000634:	00659733          	sll	a4,a1,t1
1c000638:	00d556b3          	srl	a3,a0,a3
1c00063c:	006617b3          	sll	a5,a2,t1
1c000640:	00e6e833          	or	a6,a3,a4
1c000644:	006518b3          	sll	a7,a0,t1
1c000648:	0107d513          	srli	a0,a5,0x10
1c00064c:	02a85733          	divu	a4,a6,a0
1c000650:	1007d5b3          	p.exthz	a1,a5
1c000654:	0108d693          	srli	a3,a7,0x10
1c000658:	02a87633          	remu	a2,a6,a0
1c00065c:	02e58833          	mul	a6,a1,a4
1c000660:	0642                	slli	a2,a2,0x10
1c000662:	8ed1                	or	a3,a3,a2
1c000664:	863a                	mv	a2,a4
1c000666:	0106fc63          	bleu	a6,a3,1c00067e <__udivdi3+0x8a>
1c00066a:	96be                	add	a3,a3,a5
1c00066c:	fff70613          	addi	a2,a4,-1 # ffff <__l1_heap_size+0x1f>
1c000670:	00f6e763          	bltu	a3,a5,1c00067e <__udivdi3+0x8a>
1c000674:	0106f563          	bleu	a6,a3,1c00067e <__udivdi3+0x8a>
1c000678:	ffe70613          	addi	a2,a4,-2
1c00067c:	96be                	add	a3,a3,a5
1c00067e:	410686b3          	sub	a3,a3,a6
1c000682:	02a6f833          	remu	a6,a3,a0
1c000686:	02a6d6b3          	divu	a3,a3,a0
1c00068a:	df0828b3          	p.insert	a7,a6,15,16
1c00068e:	02d58733          	mul	a4,a1,a3
1c000692:	8536                	mv	a0,a3
1c000694:	00e8fb63          	bleu	a4,a7,1c0006aa <__udivdi3+0xb6>
1c000698:	98be                	add	a7,a7,a5
1c00069a:	fff68513          	addi	a0,a3,-1
1c00069e:	00f8e663          	bltu	a7,a5,1c0006aa <__udivdi3+0xb6>
1c0006a2:	00e8f463          	bleu	a4,a7,1c0006aa <__udivdi3+0xb6>
1c0006a6:	ffe68513          	addi	a0,a3,-2
1c0006aa:	01061793          	slli	a5,a2,0x10
1c0006ae:	8fc9                	or	a5,a5,a0
1c0006b0:	4801                	li	a6,0
1c0006b2:	a06d                	j	1c00075c <__udivdi3+0x168>
1c0006b4:	01000737          	lui	a4,0x1000
1c0006b8:	46c1                	li	a3,16
1c0006ba:	f6e661e3          	bltu	a2,a4,1c00061c <__udivdi3+0x28>
1c0006be:	46e1                	li	a3,24
1c0006c0:	bfb1                	j	1c00061c <__udivdi3+0x28>
1c0006c2:	e601                	bnez	a2,1c0006ca <__udivdi3+0xd6>
1c0006c4:	4685                	li	a3,1
1c0006c6:	02c6d7b3          	divu	a5,a3,a2
1c0006ca:	66c1                	lui	a3,0x10
1c0006cc:	08d7fb63          	bleu	a3,a5,1c000762 <__udivdi3+0x16e>
1c0006d0:	0ff00693          	li	a3,255
1c0006d4:	00f6f363          	bleu	a5,a3,1c0006da <__udivdi3+0xe6>
1c0006d8:	4721                	li	a4,8
1c0006da:	00e7d6b3          	srl	a3,a5,a4
1c0006de:	9336                	add	t1,t1,a3
1c0006e0:	00034683          	lbu	a3,0(t1)
1c0006e4:	02000613          	li	a2,32
1c0006e8:	96ba                	add	a3,a3,a4
1c0006ea:	8e15                	sub	a2,a2,a3
1c0006ec:	e251                	bnez	a2,1c000770 <__udivdi3+0x17c>
1c0006ee:	40f58733          	sub	a4,a1,a5
1c0006f2:	4805                	li	a6,1
1c0006f4:	0107d513          	srli	a0,a5,0x10
1c0006f8:	1007d5b3          	p.exthz	a1,a5
1c0006fc:	0108d693          	srli	a3,a7,0x10
1c000700:	02a77633          	remu	a2,a4,a0
1c000704:	02a75733          	divu	a4,a4,a0
1c000708:	0642                	slli	a2,a2,0x10
1c00070a:	8ed1                	or	a3,a3,a2
1c00070c:	02e58333          	mul	t1,a1,a4
1c000710:	863a                	mv	a2,a4
1c000712:	0066fc63          	bleu	t1,a3,1c00072a <__udivdi3+0x136>
1c000716:	96be                	add	a3,a3,a5
1c000718:	fff70613          	addi	a2,a4,-1 # ffffff <__L2+0xf7ffff>
1c00071c:	00f6e763          	bltu	a3,a5,1c00072a <__udivdi3+0x136>
1c000720:	0066f563          	bleu	t1,a3,1c00072a <__udivdi3+0x136>
1c000724:	ffe70613          	addi	a2,a4,-2
1c000728:	96be                	add	a3,a3,a5
1c00072a:	406686b3          	sub	a3,a3,t1
1c00072e:	02a6f333          	remu	t1,a3,a0
1c000732:	02a6d6b3          	divu	a3,a3,a0
1c000736:	df0328b3          	p.insert	a7,t1,15,16
1c00073a:	02d58733          	mul	a4,a1,a3
1c00073e:	8536                	mv	a0,a3
1c000740:	00e8fb63          	bleu	a4,a7,1c000756 <__udivdi3+0x162>
1c000744:	98be                	add	a7,a7,a5
1c000746:	fff68513          	addi	a0,a3,-1 # ffff <__l1_heap_size+0x1f>
1c00074a:	00f8e663          	bltu	a7,a5,1c000756 <__udivdi3+0x162>
1c00074e:	00e8f463          	bleu	a4,a7,1c000756 <__udivdi3+0x162>
1c000752:	ffe68513          	addi	a0,a3,-2
1c000756:	01061793          	slli	a5,a2,0x10
1c00075a:	8fc9                	or	a5,a5,a0
1c00075c:	853e                	mv	a0,a5
1c00075e:	85c2                	mv	a1,a6
1c000760:	8082                	ret
1c000762:	010006b7          	lui	a3,0x1000
1c000766:	4741                	li	a4,16
1c000768:	f6d7e9e3          	bltu	a5,a3,1c0006da <__udivdi3+0xe6>
1c00076c:	4761                	li	a4,24
1c00076e:	b7b5                	j	1c0006da <__udivdi3+0xe6>
1c000770:	00c797b3          	sll	a5,a5,a2
1c000774:	00d5d333          	srl	t1,a1,a3
1c000778:	0107de13          	srli	t3,a5,0x10
1c00077c:	00c59733          	sll	a4,a1,a2
1c000780:	00c518b3          	sll	a7,a0,a2
1c000784:	00d555b3          	srl	a1,a0,a3
1c000788:	03c35533          	divu	a0,t1,t3
1c00078c:	8dd9                	or	a1,a1,a4
1c00078e:	1007d733          	p.exthz	a4,a5
1c000792:	0105d693          	srli	a3,a1,0x10
1c000796:	03c37633          	remu	a2,t1,t3
1c00079a:	882a                	mv	a6,a0
1c00079c:	02a70333          	mul	t1,a4,a0
1c0007a0:	0642                	slli	a2,a2,0x10
1c0007a2:	8ed1                	or	a3,a3,a2
1c0007a4:	0066fc63          	bleu	t1,a3,1c0007bc <__udivdi3+0x1c8>
1c0007a8:	96be                	add	a3,a3,a5
1c0007aa:	fff50813          	addi	a6,a0,-1
1c0007ae:	00f6e763          	bltu	a3,a5,1c0007bc <__udivdi3+0x1c8>
1c0007b2:	0066f563          	bleu	t1,a3,1c0007bc <__udivdi3+0x1c8>
1c0007b6:	ffe50813          	addi	a6,a0,-2
1c0007ba:	96be                	add	a3,a3,a5
1c0007bc:	406686b3          	sub	a3,a3,t1
1c0007c0:	03c6f633          	remu	a2,a3,t3
1c0007c4:	03c6d6b3          	divu	a3,a3,t3
1c0007c8:	df0625b3          	p.insert	a1,a2,15,16
1c0007cc:	02d70733          	mul	a4,a4,a3
1c0007d0:	8636                	mv	a2,a3
1c0007d2:	00e5fc63          	bleu	a4,a1,1c0007ea <__udivdi3+0x1f6>
1c0007d6:	95be                	add	a1,a1,a5
1c0007d8:	fff68613          	addi	a2,a3,-1 # ffffff <__L2+0xf7ffff>
1c0007dc:	00f5e763          	bltu	a1,a5,1c0007ea <__udivdi3+0x1f6>
1c0007e0:	00e5f563          	bleu	a4,a1,1c0007ea <__udivdi3+0x1f6>
1c0007e4:	ffe68613          	addi	a2,a3,-2
1c0007e8:	95be                	add	a1,a1,a5
1c0007ea:	0842                	slli	a6,a6,0x10
1c0007ec:	40e58733          	sub	a4,a1,a4
1c0007f0:	00c86833          	or	a6,a6,a2
1c0007f4:	b701                	j	1c0006f4 <__udivdi3+0x100>
1c0007f6:	12d5ea63          	bltu	a1,a3,1c00092a <__udivdi3+0x336>
1c0007fa:	67c1                	lui	a5,0x10
1c0007fc:	02f6fd63          	bleu	a5,a3,1c000836 <__udivdi3+0x242>
1c000800:	0ff00793          	li	a5,255
1c000804:	00d7b8b3          	sltu	a7,a5,a3
1c000808:	088e                	slli	a7,a7,0x3
1c00080a:	1c007737          	lui	a4,0x1c007
1c00080e:	0116d7b3          	srl	a5,a3,a7
1c000812:	43c70713          	addi	a4,a4,1084 # 1c00743c <__DTOR_END__>
1c000816:	97ba                	add	a5,a5,a4
1c000818:	0007c783          	lbu	a5,0(a5) # 10000 <__L1Cl>
1c00081c:	02000813          	li	a6,32
1c000820:	97c6                	add	a5,a5,a7
1c000822:	40f80833          	sub	a6,a6,a5
1c000826:	00081f63          	bnez	a6,1c000844 <__udivdi3+0x250>
1c00082a:	4785                	li	a5,1
1c00082c:	f2b6e8e3          	bltu	a3,a1,1c00075c <__udivdi3+0x168>
1c000830:	04a637b3          	p.sletu	a5,a2,a0
1c000834:	b725                	j	1c00075c <__udivdi3+0x168>
1c000836:	010007b7          	lui	a5,0x1000
1c00083a:	48c1                	li	a7,16
1c00083c:	fcf6e7e3          	bltu	a3,a5,1c00080a <__udivdi3+0x216>
1c000840:	48e1                	li	a7,24
1c000842:	b7e1                	j	1c00080a <__udivdi3+0x216>
1c000844:	00f658b3          	srl	a7,a2,a5
1c000848:	010696b3          	sll	a3,a3,a6
1c00084c:	00d8e6b3          	or	a3,a7,a3
1c000850:	00f5d333          	srl	t1,a1,a5
1c000854:	0106de13          	srli	t3,a3,0x10
1c000858:	00f55733          	srl	a4,a0,a5
1c00085c:	03c377b3          	remu	a5,t1,t3
1c000860:	1006d8b3          	p.exthz	a7,a3
1c000864:	010595b3          	sll	a1,a1,a6
1c000868:	8f4d                	or	a4,a4,a1
1c00086a:	01075593          	srli	a1,a4,0x10
1c00086e:	01061633          	sll	a2,a2,a6
1c000872:	03c35333          	divu	t1,t1,t3
1c000876:	07c2                	slli	a5,a5,0x10
1c000878:	8ddd                	or	a1,a1,a5
1c00087a:	02688eb3          	mul	t4,a7,t1
1c00087e:	879a                	mv	a5,t1
1c000880:	01d5fc63          	bleu	t4,a1,1c000898 <__udivdi3+0x2a4>
1c000884:	95b6                	add	a1,a1,a3
1c000886:	fff30793          	addi	a5,t1,-1
1c00088a:	00d5e763          	bltu	a1,a3,1c000898 <__udivdi3+0x2a4>
1c00088e:	01d5f563          	bleu	t4,a1,1c000898 <__udivdi3+0x2a4>
1c000892:	ffe30793          	addi	a5,t1,-2
1c000896:	95b6                	add	a1,a1,a3
1c000898:	41d585b3          	sub	a1,a1,t4
1c00089c:	03c5f333          	remu	t1,a1,t3
1c0008a0:	03c5d5b3          	divu	a1,a1,t3
1c0008a4:	df032733          	p.insert	a4,t1,15,16
1c0008a8:	02b888b3          	mul	a7,a7,a1
1c0008ac:	832e                	mv	t1,a1
1c0008ae:	01177c63          	bleu	a7,a4,1c0008c6 <__udivdi3+0x2d2>
1c0008b2:	9736                	add	a4,a4,a3
1c0008b4:	fff58313          	addi	t1,a1,-1
1c0008b8:	00d76763          	bltu	a4,a3,1c0008c6 <__udivdi3+0x2d2>
1c0008bc:	01177563          	bleu	a7,a4,1c0008c6 <__udivdi3+0x2d2>
1c0008c0:	ffe58313          	addi	t1,a1,-2
1c0008c4:	9736                	add	a4,a4,a3
1c0008c6:	07c2                	slli	a5,a5,0x10
1c0008c8:	6e41                	lui	t3,0x10
1c0008ca:	0067e7b3          	or	a5,a5,t1
1c0008ce:	fffe0593          	addi	a1,t3,-1 # ffff <__l1_heap_size+0x1f>
1c0008d2:	00b7f6b3          	and	a3,a5,a1
1c0008d6:	41170733          	sub	a4,a4,a7
1c0008da:	8df1                	and	a1,a1,a2
1c0008dc:	0107d893          	srli	a7,a5,0x10
1c0008e0:	02b68333          	mul	t1,a3,a1
1c0008e4:	8241                	srli	a2,a2,0x10
1c0008e6:	02b885b3          	mul	a1,a7,a1
1c0008ea:	8eae                	mv	t4,a1
1c0008ec:	42c68eb3          	p.mac	t4,a3,a2
1c0008f0:	01035693          	srli	a3,t1,0x10
1c0008f4:	96f6                	add	a3,a3,t4
1c0008f6:	02c888b3          	mul	a7,a7,a2
1c0008fa:	00b6f363          	bleu	a1,a3,1c000900 <__udivdi3+0x30c>
1c0008fe:	98f2                	add	a7,a7,t3
1c000900:	0106d613          	srli	a2,a3,0x10
1c000904:	98b2                	add	a7,a7,a2
1c000906:	03176063          	bltu	a4,a7,1c000926 <__udivdi3+0x332>
1c00090a:	db1713e3          	bne	a4,a7,1c0006b0 <__udivdi3+0xbc>
1c00090e:	6741                	lui	a4,0x10
1c000910:	177d                	addi	a4,a4,-1
1c000912:	8ef9                	and	a3,a3,a4
1c000914:	06c2                	slli	a3,a3,0x10
1c000916:	00e37333          	and	t1,t1,a4
1c00091a:	01051533          	sll	a0,a0,a6
1c00091e:	969a                	add	a3,a3,t1
1c000920:	4801                	li	a6,0
1c000922:	e2d57de3          	bleu	a3,a0,1c00075c <__udivdi3+0x168>
1c000926:	17fd                	addi	a5,a5,-1
1c000928:	b361                	j	1c0006b0 <__udivdi3+0xbc>
1c00092a:	4801                	li	a6,0
1c00092c:	4781                	li	a5,0
1c00092e:	b53d                	j	1c00075c <__udivdi3+0x168>

1c000930 <__umoddi3>:
1c000930:	88b2                	mv	a7,a2
1c000932:	8736                	mv	a4,a3
1c000934:	87aa                	mv	a5,a0
1c000936:	882e                	mv	a6,a1
1c000938:	1a069963          	bnez	a3,1c000aea <__umoddi3+0x1ba>
1c00093c:	1c0076b7          	lui	a3,0x1c007
1c000940:	43c68693          	addi	a3,a3,1084 # 1c00743c <__DTOR_END__>
1c000944:	0ac5f463          	bleu	a2,a1,1c0009ec <__umoddi3+0xbc>
1c000948:	6341                	lui	t1,0x10
1c00094a:	08667a63          	bleu	t1,a2,1c0009de <__umoddi3+0xae>
1c00094e:	0ff00313          	li	t1,255
1c000952:	00c37363          	bleu	a2,t1,1c000958 <__umoddi3+0x28>
1c000956:	4721                	li	a4,8
1c000958:	00e65333          	srl	t1,a2,a4
1c00095c:	969a                	add	a3,a3,t1
1c00095e:	0006c683          	lbu	a3,0(a3)
1c000962:	02000313          	li	t1,32
1c000966:	9736                	add	a4,a4,a3
1c000968:	40e30333          	sub	t1,t1,a4
1c00096c:	00030c63          	beqz	t1,1c000984 <__umoddi3+0x54>
1c000970:	006595b3          	sll	a1,a1,t1
1c000974:	00e55733          	srl	a4,a0,a4
1c000978:	006618b3          	sll	a7,a2,t1
1c00097c:	00b76833          	or	a6,a4,a1
1c000980:	006517b3          	sll	a5,a0,t1
1c000984:	0108d613          	srli	a2,a7,0x10
1c000988:	02c87733          	remu	a4,a6,a2
1c00098c:	1008d533          	p.exthz	a0,a7
1c000990:	0107d693          	srli	a3,a5,0x10
1c000994:	02c85833          	divu	a6,a6,a2
1c000998:	0742                	slli	a4,a4,0x10
1c00099a:	8ed9                	or	a3,a3,a4
1c00099c:	03050833          	mul	a6,a0,a6
1c0009a0:	0106f863          	bleu	a6,a3,1c0009b0 <__umoddi3+0x80>
1c0009a4:	96c6                	add	a3,a3,a7
1c0009a6:	0116e563          	bltu	a3,a7,1c0009b0 <__umoddi3+0x80>
1c0009aa:	0106f363          	bleu	a6,a3,1c0009b0 <__umoddi3+0x80>
1c0009ae:	96c6                	add	a3,a3,a7
1c0009b0:	410686b3          	sub	a3,a3,a6
1c0009b4:	02c6f733          	remu	a4,a3,a2
1c0009b8:	02c6d6b3          	divu	a3,a3,a2
1c0009bc:	df0727b3          	p.insert	a5,a4,15,16
1c0009c0:	02d506b3          	mul	a3,a0,a3
1c0009c4:	00d7f863          	bleu	a3,a5,1c0009d4 <__umoddi3+0xa4>
1c0009c8:	97c6                	add	a5,a5,a7
1c0009ca:	0117e563          	bltu	a5,a7,1c0009d4 <__umoddi3+0xa4>
1c0009ce:	00d7f363          	bleu	a3,a5,1c0009d4 <__umoddi3+0xa4>
1c0009d2:	97c6                	add	a5,a5,a7
1c0009d4:	8f95                	sub	a5,a5,a3
1c0009d6:	0067d533          	srl	a0,a5,t1
1c0009da:	4581                	li	a1,0
1c0009dc:	8082                	ret
1c0009de:	01000337          	lui	t1,0x1000
1c0009e2:	4741                	li	a4,16
1c0009e4:	f6666ae3          	bltu	a2,t1,1c000958 <__umoddi3+0x28>
1c0009e8:	4761                	li	a4,24
1c0009ea:	b7bd                	j	1c000958 <__umoddi3+0x28>
1c0009ec:	e601                	bnez	a2,1c0009f4 <__umoddi3+0xc4>
1c0009ee:	4605                	li	a2,1
1c0009f0:	031658b3          	divu	a7,a2,a7
1c0009f4:	6641                	lui	a2,0x10
1c0009f6:	06c8ff63          	bleu	a2,a7,1c000a74 <__umoddi3+0x144>
1c0009fa:	0ff00613          	li	a2,255
1c0009fe:	01167363          	bleu	a7,a2,1c000a04 <__umoddi3+0xd4>
1c000a02:	4721                	li	a4,8
1c000a04:	00e8d633          	srl	a2,a7,a4
1c000a08:	96b2                	add	a3,a3,a2
1c000a0a:	0006c603          	lbu	a2,0(a3)
1c000a0e:	02000313          	li	t1,32
1c000a12:	963a                	add	a2,a2,a4
1c000a14:	40c30333          	sub	t1,t1,a2
1c000a18:	06031563          	bnez	t1,1c000a82 <__umoddi3+0x152>
1c000a1c:	411585b3          	sub	a1,a1,a7
1c000a20:	0108d713          	srli	a4,a7,0x10
1c000a24:	1008d533          	p.exthz	a0,a7
1c000a28:	0107d613          	srli	a2,a5,0x10
1c000a2c:	02e5f6b3          	remu	a3,a1,a4
1c000a30:	02e5d5b3          	divu	a1,a1,a4
1c000a34:	06c2                	slli	a3,a3,0x10
1c000a36:	8ed1                	or	a3,a3,a2
1c000a38:	02b505b3          	mul	a1,a0,a1
1c000a3c:	00b6f863          	bleu	a1,a3,1c000a4c <__umoddi3+0x11c>
1c000a40:	96c6                	add	a3,a3,a7
1c000a42:	0116e563          	bltu	a3,a7,1c000a4c <__umoddi3+0x11c>
1c000a46:	00b6f363          	bleu	a1,a3,1c000a4c <__umoddi3+0x11c>
1c000a4a:	96c6                	add	a3,a3,a7
1c000a4c:	40b685b3          	sub	a1,a3,a1
1c000a50:	02e5f6b3          	remu	a3,a1,a4
1c000a54:	02e5d5b3          	divu	a1,a1,a4
1c000a58:	df06a7b3          	p.insert	a5,a3,15,16
1c000a5c:	02b505b3          	mul	a1,a0,a1
1c000a60:	00b7f863          	bleu	a1,a5,1c000a70 <__umoddi3+0x140>
1c000a64:	97c6                	add	a5,a5,a7
1c000a66:	0117e563          	bltu	a5,a7,1c000a70 <__umoddi3+0x140>
1c000a6a:	00b7f363          	bleu	a1,a5,1c000a70 <__umoddi3+0x140>
1c000a6e:	97c6                	add	a5,a5,a7
1c000a70:	8f8d                	sub	a5,a5,a1
1c000a72:	b795                	j	1c0009d6 <__umoddi3+0xa6>
1c000a74:	01000637          	lui	a2,0x1000
1c000a78:	4741                	li	a4,16
1c000a7a:	f8c8e5e3          	bltu	a7,a2,1c000a04 <__umoddi3+0xd4>
1c000a7e:	4761                	li	a4,24
1c000a80:	b751                	j	1c000a04 <__umoddi3+0xd4>
1c000a82:	006898b3          	sll	a7,a7,t1
1c000a86:	00c5d733          	srl	a4,a1,a2
1c000a8a:	006517b3          	sll	a5,a0,t1
1c000a8e:	00c55633          	srl	a2,a0,a2
1c000a92:	006595b3          	sll	a1,a1,t1
1c000a96:	0108d513          	srli	a0,a7,0x10
1c000a9a:	8dd1                	or	a1,a1,a2
1c000a9c:	02a77633          	remu	a2,a4,a0
1c000aa0:	1008d833          	p.exthz	a6,a7
1c000aa4:	0105d693          	srli	a3,a1,0x10
1c000aa8:	02a75733          	divu	a4,a4,a0
1c000aac:	0642                	slli	a2,a2,0x10
1c000aae:	8ed1                	or	a3,a3,a2
1c000ab0:	02e80733          	mul	a4,a6,a4
1c000ab4:	00e6f863          	bleu	a4,a3,1c000ac4 <__umoddi3+0x194>
1c000ab8:	96c6                	add	a3,a3,a7
1c000aba:	0116e563          	bltu	a3,a7,1c000ac4 <__umoddi3+0x194>
1c000abe:	00e6f363          	bleu	a4,a3,1c000ac4 <__umoddi3+0x194>
1c000ac2:	96c6                	add	a3,a3,a7
1c000ac4:	8e99                	sub	a3,a3,a4
1c000ac6:	02a6f733          	remu	a4,a3,a0
1c000aca:	02a6d6b3          	divu	a3,a3,a0
1c000ace:	df0725b3          	p.insert	a1,a4,15,16
1c000ad2:	02d806b3          	mul	a3,a6,a3
1c000ad6:	00d5f863          	bleu	a3,a1,1c000ae6 <__umoddi3+0x1b6>
1c000ada:	95c6                	add	a1,a1,a7
1c000adc:	0115e563          	bltu	a1,a7,1c000ae6 <__umoddi3+0x1b6>
1c000ae0:	00d5f363          	bleu	a3,a1,1c000ae6 <__umoddi3+0x1b6>
1c000ae4:	95c6                	add	a1,a1,a7
1c000ae6:	8d95                	sub	a1,a1,a3
1c000ae8:	bf25                	j	1c000a20 <__umoddi3+0xf0>
1c000aea:	eed5e9e3          	bltu	a1,a3,1c0009dc <__umoddi3+0xac>
1c000aee:	6741                	lui	a4,0x10
1c000af0:	04e6f563          	bleu	a4,a3,1c000b3a <__umoddi3+0x20a>
1c000af4:	0ff00e93          	li	t4,255
1c000af8:	00deb733          	sltu	a4,t4,a3
1c000afc:	070e                	slli	a4,a4,0x3
1c000afe:	1c007337          	lui	t1,0x1c007
1c000b02:	00e6d8b3          	srl	a7,a3,a4
1c000b06:	43c30313          	addi	t1,t1,1084 # 1c00743c <__DTOR_END__>
1c000b0a:	989a                	add	a7,a7,t1
1c000b0c:	0008ce83          	lbu	t4,0(a7)
1c000b10:	02000e13          	li	t3,32
1c000b14:	9eba                	add	t4,t4,a4
1c000b16:	41de0e33          	sub	t3,t3,t4
1c000b1a:	020e1763          	bnez	t3,1c000b48 <__umoddi3+0x218>
1c000b1e:	00b6e463          	bltu	a3,a1,1c000b26 <__umoddi3+0x1f6>
1c000b22:	00c56963          	bltu	a0,a2,1c000b34 <__umoddi3+0x204>
1c000b26:	40c507b3          	sub	a5,a0,a2
1c000b2a:	8d95                	sub	a1,a1,a3
1c000b2c:	00f53533          	sltu	a0,a0,a5
1c000b30:	40a58833          	sub	a6,a1,a0
1c000b34:	853e                	mv	a0,a5
1c000b36:	85c2                	mv	a1,a6
1c000b38:	b555                	j	1c0009dc <__umoddi3+0xac>
1c000b3a:	010008b7          	lui	a7,0x1000
1c000b3e:	4741                	li	a4,16
1c000b40:	fb16efe3          	bltu	a3,a7,1c000afe <__umoddi3+0x1ce>
1c000b44:	4761                	li	a4,24
1c000b46:	bf65                	j	1c000afe <__umoddi3+0x1ce>
1c000b48:	01d65733          	srl	a4,a2,t4
1c000b4c:	01c696b3          	sll	a3,a3,t3
1c000b50:	8ed9                	or	a3,a3,a4
1c000b52:	01d5d7b3          	srl	a5,a1,t4
1c000b56:	0106d813          	srli	a6,a3,0x10
1c000b5a:	0307f333          	remu	t1,a5,a6
1c000b5e:	1006d733          	p.exthz	a4,a3
1c000b62:	01d558b3          	srl	a7,a0,t4
1c000b66:	01c595b3          	sll	a1,a1,t3
1c000b6a:	00b8e5b3          	or	a1,a7,a1
1c000b6e:	0105d893          	srli	a7,a1,0x10
1c000b72:	01c61633          	sll	a2,a2,t3
1c000b76:	01c51533          	sll	a0,a0,t3
1c000b7a:	0307d7b3          	divu	a5,a5,a6
1c000b7e:	0342                	slli	t1,t1,0x10
1c000b80:	011368b3          	or	a7,t1,a7
1c000b84:	02f70f33          	mul	t5,a4,a5
1c000b88:	833e                	mv	t1,a5
1c000b8a:	01e8fc63          	bleu	t5,a7,1c000ba2 <__umoddi3+0x272>
1c000b8e:	98b6                	add	a7,a7,a3
1c000b90:	fff78313          	addi	t1,a5,-1 # ffffff <__L2+0xf7ffff>
1c000b94:	00d8e763          	bltu	a7,a3,1c000ba2 <__umoddi3+0x272>
1c000b98:	01e8f563          	bleu	t5,a7,1c000ba2 <__umoddi3+0x272>
1c000b9c:	ffe78313          	addi	t1,a5,-2
1c000ba0:	98b6                	add	a7,a7,a3
1c000ba2:	41e888b3          	sub	a7,a7,t5
1c000ba6:	0308f7b3          	remu	a5,a7,a6
1c000baa:	0308d8b3          	divu	a7,a7,a6
1c000bae:	df07a5b3          	p.insert	a1,a5,15,16
1c000bb2:	03170733          	mul	a4,a4,a7
1c000bb6:	87c6                	mv	a5,a7
1c000bb8:	00e5fc63          	bleu	a4,a1,1c000bd0 <__umoddi3+0x2a0>
1c000bbc:	95b6                	add	a1,a1,a3
1c000bbe:	fff88793          	addi	a5,a7,-1 # ffffff <__L2+0xf7ffff>
1c000bc2:	00d5e763          	bltu	a1,a3,1c000bd0 <__umoddi3+0x2a0>
1c000bc6:	00e5f563          	bleu	a4,a1,1c000bd0 <__umoddi3+0x2a0>
1c000bca:	ffe88793          	addi	a5,a7,-2
1c000bce:	95b6                	add	a1,a1,a3
1c000bd0:	0342                	slli	t1,t1,0x10
1c000bd2:	6f41                	lui	t5,0x10
1c000bd4:	00f36333          	or	t1,t1,a5
1c000bd8:	ffff0793          	addi	a5,t5,-1 # ffff <__l1_heap_size+0x1f>
1c000bdc:	00f37833          	and	a6,t1,a5
1c000be0:	01035313          	srli	t1,t1,0x10
1c000be4:	8ff1                	and	a5,a5,a2
1c000be6:	02f808b3          	mul	a7,a6,a5
1c000bea:	8d99                	sub	a1,a1,a4
1c000bec:	01065713          	srli	a4,a2,0x10
1c000bf0:	02f307b3          	mul	a5,t1,a5
1c000bf4:	8fbe                	mv	t6,a5
1c000bf6:	42e80fb3          	p.mac	t6,a6,a4
1c000bfa:	0108d813          	srli	a6,a7,0x10
1c000bfe:	987e                	add	a6,a6,t6
1c000c00:	02e30333          	mul	t1,t1,a4
1c000c04:	00f87363          	bleu	a5,a6,1c000c0a <__umoddi3+0x2da>
1c000c08:	937a                	add	t1,t1,t5
1c000c0a:	01085713          	srli	a4,a6,0x10
1c000c0e:	933a                	add	t1,t1,a4
1c000c10:	6741                	lui	a4,0x10
1c000c12:	177d                	addi	a4,a4,-1
1c000c14:	00e87833          	and	a6,a6,a4
1c000c18:	0842                	slli	a6,a6,0x10
1c000c1a:	00e8f733          	and	a4,a7,a4
1c000c1e:	9742                	add	a4,a4,a6
1c000c20:	0065e663          	bltu	a1,t1,1c000c2c <__umoddi3+0x2fc>
1c000c24:	00659d63          	bne	a1,t1,1c000c3e <__umoddi3+0x30e>
1c000c28:	00e57b63          	bleu	a4,a0,1c000c3e <__umoddi3+0x30e>
1c000c2c:	40c70633          	sub	a2,a4,a2
1c000c30:	00c73733          	sltu	a4,a4,a2
1c000c34:	40d30333          	sub	t1,t1,a3
1c000c38:	40e30333          	sub	t1,t1,a4
1c000c3c:	8732                	mv	a4,a2
1c000c3e:	40e50733          	sub	a4,a0,a4
1c000c42:	00e53533          	sltu	a0,a0,a4
1c000c46:	406585b3          	sub	a1,a1,t1
1c000c4a:	8d89                	sub	a1,a1,a0
1c000c4c:	01d597b3          	sll	a5,a1,t4
1c000c50:	01c75733          	srl	a4,a4,t3
1c000c54:	00e7e533          	or	a0,a5,a4
1c000c58:	01c5d5b3          	srl	a1,a1,t3
1c000c5c:	b341                	j	1c0009dc <__umoddi3+0xac>

1c000c5e <__extendsfdf2>:
1c000c5e:	cf7516b3          	p.extractu	a3,a0,7,23
1c000c62:	00168793          	addi	a5,a3,1
1c000c66:	ee87b7b3          	p.bclr	a5,a5,23,8
1c000c6a:	4605                	li	a2,1
1c000c6c:	ec051733          	p.extractu	a4,a0,22,0
1c000c70:	817d                	srli	a0,a0,0x1f
1c000c72:	02f65163          	ble	a5,a2,1c000c94 <__extendsfdf2+0x36>
1c000c76:	00375793          	srli	a5,a4,0x3
1c000c7a:	38068693          	addi	a3,a3,896
1c000c7e:	0776                	slli	a4,a4,0x1d
1c000c80:	4601                	li	a2,0
1c000c82:	e607a633          	p.insert	a2,a5,19,0
1c000c86:	d546a633          	p.insert	a2,a3,10,20
1c000c8a:	c1f52633          	p.insert	a2,a0,0,31
1c000c8e:	85b2                	mv	a1,a2
1c000c90:	853a                	mv	a0,a4
1c000c92:	8082                	ret
1c000c94:	ee85                	bnez	a3,1c000ccc <__extendsfdf2+0x6e>
1c000c96:	c729                	beqz	a4,1c000ce0 <__extendsfdf2+0x82>
1c000c98:	47fd                	li	a5,31
1c000c9a:	10071633          	p.fl1	a2,a4
1c000c9e:	40c78633          	sub	a2,a5,a2
1c000ca2:	47a9                	li	a5,10
1c000ca4:	00c7ce63          	blt	a5,a2,1c000cc0 <__extendsfdf2+0x62>
1c000ca8:	47ad                	li	a5,11
1c000caa:	8f91                	sub	a5,a5,a2
1c000cac:	01560693          	addi	a3,a2,21 # 1000015 <__L2+0xf80015>
1c000cb0:	00f757b3          	srl	a5,a4,a5
1c000cb4:	00d71733          	sll	a4,a4,a3
1c000cb8:	38900693          	li	a3,905
1c000cbc:	8e91                	sub	a3,a3,a2
1c000cbe:	b7c9                	j	1c000c80 <__extendsfdf2+0x22>
1c000cc0:	ff560793          	addi	a5,a2,-11
1c000cc4:	00f717b3          	sll	a5,a4,a5
1c000cc8:	4701                	li	a4,0
1c000cca:	b7fd                	j	1c000cb8 <__extendsfdf2+0x5a>
1c000ccc:	4781                	li	a5,0
1c000cce:	c711                	beqz	a4,1c000cda <__extendsfdf2+0x7c>
1c000cd0:	00375793          	srli	a5,a4,0x3
1c000cd4:	c137c7b3          	p.bset	a5,a5,0,19
1c000cd8:	0776                	slli	a4,a4,0x1d
1c000cda:	7ff00693          	li	a3,2047
1c000cde:	b74d                	j	1c000c80 <__extendsfdf2+0x22>
1c000ce0:	4781                	li	a5,0
1c000ce2:	4681                	li	a3,0
1c000ce4:	bf71                	j	1c000c80 <__extendsfdf2+0x22>

1c000ce6 <decode_packet.constprop.3>:
                }
                else if ((x + x_shift) % 2 == 0 && (y + y_shift) % 2 == 1) //G1
                {
                    red = (input[idxr[3]] + input[idxr[7]]) / 2;
                    blue = (input[idxr[1]] + input[idxr[5]]) / 2;
                    green = input[idx];
1c000ce6:	1c008737          	lui	a4,0x1c008
1c000cea:	a9070713          	addi	a4,a4,-1392 # 1c007a90 <buff_packet>
1c000cee:	00074683          	lbu	a3,0(a4)
1c000cf2:	00174583          	lbu	a1,1(a4)
1c000cf6:	00274603          	lbu	a2,2(a4)
1c000cfa:	4781                	li	a5,0
1c000cfc:	ce06a7b3          	p.insert	a5,a3,7,0
1c000d00:	00374683          	lbu	a3,3(a4)
1c000d04:	00474503          	lbu	a0,4(a4)
1c000d08:	ce85a7b3          	p.insert	a5,a1,7,8
1c000d0c:	cf0627b3          	p.insert	a5,a2,7,16
1c000d10:	00574583          	lbu	a1,5(a4)
1c000d14:	00674603          	lbu	a2,6(a4)
1c000d18:	cf86a7b3          	p.insert	a5,a3,7,24
1c000d1c:	1c0086b7          	lui	a3,0x1c008
1c000d20:	f8f6ac23          	sw	a5,-104(a3) # 1c007f98 <cf_tick>
1c000d24:	00774683          	lbu	a3,7(a4)
1c000d28:	ce0527b3          	p.insert	a5,a0,7,0
1c000d2c:	ce85a7b3          	p.insert	a5,a1,7,8
1c000d30:	00874503          	lbu	a0,8(a4)
1c000d34:	00974583          	lbu	a1,9(a4)
1c000d38:	cf0627b3          	p.insert	a5,a2,7,16
1c000d3c:	cf86a7b3          	p.insert	a5,a3,7,24
1c000d40:	00a74603          	lbu	a2,10(a4)
1c000d44:	1c0086b7          	lui	a3,0x1c008
1c000d48:	f8f6a823          	sw	a5,-112(a3) # 1c007f90 <pos_z>
1c000d4c:	00b74683          	lbu	a3,11(a4)
1c000d50:	ce0527b3          	p.insert	a5,a0,7,0
1c000d54:	ce85a7b3          	p.insert	a5,a1,7,8
1c000d58:	00c74503          	lbu	a0,12(a4)
1c000d5c:	00d74583          	lbu	a1,13(a4)
1c000d60:	cf0627b3          	p.insert	a5,a2,7,16
1c000d64:	cf86a7b3          	p.insert	a5,a3,7,24
1c000d68:	00e74603          	lbu	a2,14(a4)
1c000d6c:	1c0086b7          	lui	a3,0x1c008
1c000d70:	faf6a623          	sw	a5,-84(a3) # 1c007fac <acc_z>
1c000d74:	00f74683          	lbu	a3,15(a4)
1c000d78:	ce0527b3          	p.insert	a5,a0,7,0
1c000d7c:	ce85a7b3          	p.insert	a5,a1,7,8
1c000d80:	01074503          	lbu	a0,16(a4)
1c000d84:	01174583          	lbu	a1,17(a4)
1c000d88:	cf0627b3          	p.insert	a5,a2,7,16
1c000d8c:	cf86a7b3          	p.insert	a5,a3,7,24
1c000d90:	01274603          	lbu	a2,18(a4)
1c000d94:	1c0086b7          	lui	a3,0x1c008
1c000d98:	f8f6aa23          	sw	a5,-108(a3) # 1c007f94 <gyro_x>
1c000d9c:	01374683          	lbu	a3,19(a4)
1c000da0:	ce0527b3          	p.insert	a5,a0,7,0
1c000da4:	ce85a7b3          	p.insert	a5,a1,7,8
1c000da8:	01474583          	lbu	a1,20(a4)
1c000dac:	cf0627b3          	p.insert	a5,a2,7,16
1c000db0:	01574603          	lbu	a2,21(a4)
1c000db4:	cf86a7b3          	p.insert	a5,a3,7,24
1c000db8:	1c008537          	lui	a0,0x1c008
1c000dbc:	01674683          	lbu	a3,22(a4)
1c000dc0:	f6f52e23          	sw	a5,-132(a0) # 1c007f7c <gyro_y>
1c000dc4:	01774703          	lbu	a4,23(a4)
1c000dc8:	ce05a7b3          	p.insert	a5,a1,7,0
1c000dcc:	ce8627b3          	p.insert	a5,a2,7,8
1c000dd0:	cf06a7b3          	p.insert	a5,a3,7,16
1c000dd4:	cf8727b3          	p.insert	a5,a4,7,24
1c000dd8:	1c008737          	lui	a4,0x1c008
1c000ddc:	faf72423          	sw	a5,-88(a4) # 1c007fa8 <gyro_z>
1c000de0:	8082                	ret

1c000de2 <test_camera>:
static float decode_packet(uint8_t *src, float * r, float * p, float * x, float * y, float * z, float * d);
static float buff_strip(uint8_t *src, uint8_t *tar);

int test_camera()
{
    printf("Entering main controller\n");
1c000de2:	1c007537          	lui	a0,0x1c007
{
1c000de6:	716d                	addi	sp,sp,-272
    printf("Entering main controller\n");
1c000de8:	56c50513          	addi	a0,a0,1388 # 1c00756c <__clz_tab+0x130>
{
1c000dec:	10112623          	sw	ra,268(sp)
1c000df0:	10812423          	sw	s0,264(sp)
1c000df4:	dfce                	sw	s3,252(sp)
1c000df6:	cfee                	sw	s11,220(sp)
1c000df8:	10912223          	sw	s1,260(sp)
1c000dfc:	11212023          	sw	s2,256(sp)
1c000e00:	ddd2                	sw	s4,248(sp)
1c000e02:	dbd6                	sw	s5,244(sp)
1c000e04:	d9da                	sw	s6,240(sp)
1c000e06:	d7de                	sw	s7,236(sp)
1c000e08:	d5e2                	sw	s8,232(sp)
1c000e0a:	d3e6                	sw	s9,228(sp)
1c000e0c:	d1ea                	sw	s10,224(sp)
    printf("Entering main controller\n");
1c000e0e:	312050ef          	jal	ra,1c006120 <puts>
    pi_time_wait_us(1000*5000); // delay 5s, reliable initialization
1c000e12:	004c5537          	lui	a0,0x4c5
1c000e16:	b4050513          	addi	a0,a0,-1216 # 4c4b40 <__L2+0x444b40>
1c000e1a:	268030ef          	jal	ra,1c004082 <pi_time_wait_us>
    // ------ open led
    static struct pi_device gpio_device;
    // pi_pad_set_function(PI_PAD_14_A2_RF_PACTRL2, PI_PAD_14_A2_GPIO_A2_FUNC1);
    pi_gpio_pin_configure(&gpio_device, 2, PI_GPIO_OUTPUT);
1c000e1e:	1c008437          	lui	s0,0x1c008
1c000e22:	4611                	li	a2,4
1c000e24:	4589                	li	a1,2
1c000e26:	c0040513          	addi	a0,s0,-1024 # 1c007c00 <gpio_device.14873>
1c000e2a:	1cf040ef          	jal	ra,1c0057f8 <pi_gpio_pin_configure>
    static int led_val = 1;
    pi_gpio_pin_write(&gpio_device, 2, led_val);
1c000e2e:	4605                	li	a2,1
1c000e30:	4589                	li	a1,2
1c000e32:	c0040513          	addi	a0,s0,-1024
1c000e36:	141040ef          	jal	ra,1c005776 <pi_gpio_pin_write>

    // ------ reserve buffer space
    buff = pmsis_l2_malloc(BUFF_SIZE);
1c000e3a:	654d                	lui	a0,0x13
1c000e3c:	4d050513          	addi	a0,a0,1232 # 134d0 <__L1Cl+0x34d0>
1c000e40:	1c0089b7          	lui	s3,0x1c008
1c000e44:	158030ef          	jal	ra,1c003f9c <pi_l2_malloc>
1c000e48:	a9098d93          	addi	s11,s3,-1392 # 1c007a90 <buff_packet>
1c000e4c:	02adaa23          	sw	a0,52(s11)
    if (buff == NULL){ return -1;}
1c000e50:	12050f63          	beqz	a0,1c000f8e <test_camera+0x1ac>
    buff_demosaick = pmsis_l2_malloc(BUFF_SIZE*3);
1c000e54:	0003a537          	lui	a0,0x3a
1c000e58:	e7050513          	addi	a0,a0,-400 # 39e70 <__L1Cl+0x29e70>
1c000e5c:	140030ef          	jal	ra,1c003f9c <pi_l2_malloc>
1c000e60:	02adac23          	sw	a0,56(s11)
    if (buff_demosaick == NULL){ return -1;}
1c000e64:	12050563          	beqz	a0,1c000f8e <test_camera+0x1ac>
    printf("Initialized buffers\n");
1c000e68:	1c007537          	lui	a0,0x1c007
1c000e6c:	58850513          	addi	a0,a0,1416 # 1c007588 <__clz_tab+0x14c>
1c000e70:	2b0050ef          	jal	ra,1c006120 <puts>

    // ------ open flash
    // pi_pad_set_function(PI_PAD_46_B7_SPIM0_SCK, PI_PAD_46_B7_HYPER_DQ6_FUNC3);
    static struct pi_hyperflash_conf flash_conf;
    pi_hyperflash_conf_init(&flash_conf);
1c000e74:	1c008437          	lui	s0,0x1c008
1c000e78:	bec40513          	addi	a0,s0,-1044 # 1c007bec <flash_conf.14875>
1c000e7c:	031010ef          	jal	ra,1c0026ac <pi_hyperflash_conf_init>
    pi_open_from_conf(&flash, &flash_conf);
1c000e80:	1c0084b7          	lui	s1,0x1c008
1c000e84:	bec40593          	addi	a1,s0,-1044
1c000e88:	be048513          	addi	a0,s1,-1056 # 1c007be0 <_edata>
1c000e8c:	037020ef          	jal	ra,1c0036c2 <pi_open_from_conf>
    if (pi_flash_open(&flash))
1c000e90:	be048513          	addi	a0,s1,-1056
1c000e94:	2b8d                	jal	1c001406 <pi_flash_open>
1c000e96:	de2a                	sw	a0,60(sp)
1c000e98:	22051563          	bnez	a0,1c0010c2 <test_camera+0x2e0>
    {
        printf("Error flash open !\n");
        pmsis_exit(-3);
    }
    printf("Open Hyper flash\n");
1c000e9c:	1c007537          	lui	a0,0x1c007
1c000ea0:	5b050513          	addi	a0,a0,1456 # 1c0075b0 <__clz_tab+0x174>
1c000ea4:	1c008437          	lui	s0,0x1c008
}

static inline void pi_flash_read(struct pi_device *device, uint32_t pi_flash_addr, void *data, uint32_t size)
{
  pi_flash_api_t *api = (pi_flash_api_t *)device->api;
  api->read(device, pi_flash_addr, data, size);
1c000ea8:	6ac9                	lui	s5,0x12
1c000eaa:	276050ef          	jal	ra,1c006120 <puts>
1c000eae:	ec040413          	addi	s0,s0,-320 # 1c007ec0 <flash_address>
1c000eb2:	be048913          	addi	s2,s1,-1056
1c000eb6:	800a8a93          	addi	s5,s5,-2048 # 11800 <__L1Cl+0x1800>
#else
        for (uint32_t i=0; i<BUFF_SIZE; i++){buff[i] = 0;}
        pi_flash_read(&flash, flash_address, buff, (uint32_t) CROP_SIZE);
        flash_address += CROP_SIZE;

        if( ((buff[0]==0xFF) && (buff[1]==0xFF)) || (image_number > READSIZE) ){    // [why we need READSIZE?]
1c000eba:	0ff00b93          	li	s7,255
1c000ebe:	1c008d37          	lui	s10,0x1c008
            pi_fs_unmount(&fs);

            pi_flash_close(&flash);
            pmsis_exit(0);
        }
        sprintf(image_name, "../../../images/img%05d.ppm", image_number);
1c000ec2:	1c007cb7          	lui	s9,0x1c007
1c000ec6:	1c008b37          	lui	s6,0x1c008
        //demosaicking(buff, buff_demosaick, 320, 224, 0);
        //WriteImageToFile(image_name, 320, 224, sizeof(uint32_t), buff_demosaick, RGB888_IO);
        pi_flash_read(&flash, flash_address, buff_packet, (uint32_t) PACKET_SIZE);
        flash_address += PACKET_SIZE;
        image_number ++;
        printf("images read:%d\n", image_number);
1c000eca:	1c007c37          	lui	s8,0x1c007
        for (uint32_t i=0; i<BUFF_SIZE; i++){buff[i] = 0;}
1c000ece:	67cd                	lui	a5,0x13
1c000ed0:	4701                	li	a4,0
1c000ed2:	4d078793          	addi	a5,a5,1232 # 134d0 <__L1Cl+0x34d0>
1c000ed6:	0067c0fb          	lp.setup	x1,a5,1c000ee2 <test_camera+0x100>
1c000eda:	034da683          	lw	a3,52(s11)
1c000ede:	0006c723          	p.sb	zero,a4(a3)
1c000ee2:	0705                	addi	a4,a4,1
1c000ee4:	00092783          	lw	a5,0(s2)
1c000ee8:	034da603          	lw	a2,52(s11)
1c000eec:	400c                	lw	a1,0(s0)
1c000eee:	5b9c                	lw	a5,48(a5)
1c000ef0:	86d6                	mv	a3,s5
1c000ef2:	be048513          	addi	a0,s1,-1056
1c000ef6:	9782                	jalr	a5
        flash_address += CROP_SIZE;
1c000ef8:	401c                	lw	a5,0(s0)
        if( ((buff[0]==0xFF) && (buff[1]==0xFF)) || (image_number > READSIZE) ){    // [why we need READSIZE?]
1c000efa:	034da703          	lw	a4,52(s11)
        flash_address += CROP_SIZE;
1c000efe:	97d6                	add	a5,a5,s5
1c000f00:	c01c                	sw	a5,0(s0)
        if( ((buff[0]==0xFF) && (buff[1]==0xFF)) || (image_number > READSIZE) ){    // [why we need READSIZE?]
1c000f02:	00074783          	lbu	a5,0(a4)
1c000f06:	07778563          	beq	a5,s7,1c000f70 <test_camera+0x18e>
1c000f0a:	ec4d0a13          	addi	s4,s10,-316 # 1c007ec4 <image_number>
1c000f0e:	000a5603          	lhu	a2,0(s4)
1c000f12:	64000793          	li	a5,1600
1c000f16:	06c7e163          	bltu	a5,a2,1c000f78 <test_camera+0x196>
        sprintf(image_name, "../../../images/img%05d.ppm", image_number);
1c000f1a:	600c8593          	addi	a1,s9,1536 # 1c007600 <__clz_tab+0x1c4>
1c000f1e:	f80b0513          	addi	a0,s6,-128 # 1c007f80 <image_name>
1c000f22:	7bf050ef          	jal	ra,1c006ee0 <sprintf>
        WriteImageToFile(image_name, 320, 224, sizeof(uint8_t), buff, GRAY_SCALE_IO);
1c000f26:	034da703          	lw	a4,52(s11)
1c000f2a:	4785                	li	a5,1
1c000f2c:	4685                	li	a3,1
1c000f2e:	0e000613          	li	a2,224
1c000f32:	14000593          	li	a1,320
1c000f36:	f80b0513          	addi	a0,s6,-128
1c000f3a:	2a55                	jal	1c0010ee <WriteImageToFile>
1c000f3c:	00092783          	lw	a5,0(s2)
1c000f40:	400c                	lw	a1,0(s0)
1c000f42:	46e1                	li	a3,24
1c000f44:	5b9c                	lw	a5,48(a5)
1c000f46:	a9098613          	addi	a2,s3,-1392
1c000f4a:	be048513          	addi	a0,s1,-1056
1c000f4e:	9782                	jalr	a5
        image_number ++;
1c000f50:	000a5783          	lhu	a5,0(s4)
        flash_address += PACKET_SIZE;
1c000f54:	4018                	lw	a4,0(s0)
        printf("images read:%d\n", image_number);
1c000f56:	61cc0513          	addi	a0,s8,1564 # 1c00761c <__clz_tab+0x1e0>
        image_number ++;
1c000f5a:	0785                	addi	a5,a5,1
1c000f5c:	1007d7b3          	p.exthz	a5,a5
        flash_address += PACKET_SIZE;
1c000f60:	0761                	addi	a4,a4,24
        printf("images read:%d\n", image_number);
1c000f62:	85be                	mv	a1,a5
        flash_address += PACKET_SIZE;
1c000f64:	c018                	sw	a4,0(s0)
        image_number ++;
1c000f66:	00fa1023          	sh	a5,0(s4)
        printf("images read:%d\n", image_number);
1c000f6a:	34c050ef          	jal	ra,1c0062b6 <printf>
1c000f6e:	b785                	j	1c000ece <test_camera+0xec>
        if( ((buff[0]==0xFF) && (buff[1]==0xFF)) || (image_number > READSIZE) ){    // [why we need READSIZE?]
1c000f70:	00174783          	lbu	a5,1(a4)
1c000f74:	f9779be3          	bne	a5,s7,1c000f0a <test_camera+0x128>
            pi_fs_conf_init(&conf);
1c000f78:	08a8                	addi	a0,sp,88
1c000f7a:	21f1                	jal	1c001446 <pi_fs_conf_init>
            pi_open_from_conf(&fs, &conf);
1c000f7c:	00e8                	addi	a0,sp,76
            conf.type = PI_FS_HOST;
1c000f7e:	4785                	li	a5,1
            pi_open_from_conf(&fs, &conf);
1c000f80:	08ac                	addi	a1,sp,88
            conf.type = PI_FS_HOST;
1c000f82:	ccbe                	sw	a5,88(sp)
            pi_open_from_conf(&fs, &conf);
1c000f84:	73e020ef          	jal	ra,1c0036c2 <pi_open_from_conf>
            if (pi_fs_mount(&fs))
1c000f88:	00e8                	addi	a0,sp,76
1c000f8a:	21f9                	jal	1c001458 <pi_fs_mount>
1c000f8c:	c50d                	beqz	a0,1c000fb6 <test_camera+0x1d4>
#endif        
    }
    pmsis_exit(0);
}
1c000f8e:	10c12083          	lw	ra,268(sp)
1c000f92:	10812403          	lw	s0,264(sp)
1c000f96:	10412483          	lw	s1,260(sp)
1c000f9a:	10012903          	lw	s2,256(sp)
1c000f9e:	59fe                	lw	s3,252(sp)
1c000fa0:	5a6e                	lw	s4,248(sp)
1c000fa2:	5ade                	lw	s5,244(sp)
1c000fa4:	5b4e                	lw	s6,240(sp)
1c000fa6:	5bbe                	lw	s7,236(sp)
1c000fa8:	5c2e                	lw	s8,232(sp)
1c000faa:	5c9e                	lw	s9,228(sp)
1c000fac:	5d0e                	lw	s10,224(sp)
1c000fae:	4dfe                	lw	s11,220(sp)
1c000fb0:	557d                	li	a0,-1
1c000fb2:	6151                	addi	sp,sp,272
1c000fb4:	8082                	ret
            void *File = pi_fs_open(&fs, "../../../images/label.txt", PI_FS_FLAGS_WRITE);
1c000fb6:	1c0075b7          	lui	a1,0x1c007
1c000fba:	5c458593          	addi	a1,a1,1476 # 1c0075c4 <__clz_tab+0x188>
1c000fbe:	4605                	li	a2,1
1c000fc0:	00e8                	addi	a0,sp,76
            for (int i=0; i<image_number; i++){
1c000fc2:	1c008ab7          	lui	s5,0x1c008
            void *File = pi_fs_open(&fs, "../../../images/label.txt", PI_FS_FLAGS_WRITE);
1c000fc6:	21d9                	jal	1c00148c <pi_fs_open>
            for (int i=0; i<image_number; i++){
1c000fc8:	ec4a8a93          	addi	s5,s5,-316 # 1c007ec4 <image_number>
            flash_address = CROP_SIZE;
1c000fcc:	67c9                	lui	a5,0x12
            for (int i=0; i<image_number; i++){
1c000fce:	000ad703          	lhu	a4,0(s5)
            flash_address = CROP_SIZE;
1c000fd2:	80078593          	addi	a1,a5,-2048 # 11800 <__L1Cl+0x1800>
1c000fd6:	c00c                	sw	a1,0(s0)
            void *File = pi_fs_open(&fs, "../../../images/label.txt", PI_FS_FLAGS_WRITE);
1c000fd8:	8b2a                	mv	s6,a0
            for (int i=0; i<image_number; i++){
1c000fda:	c769                	beqz	a4,1c0010a4 <test_camera+0x2c2>
1c000fdc:	1c008db7          	lui	s11,0x1c008
1c000fe0:	1c008d37          	lui	s10,0x1c008
1c000fe4:	06c10b93          	addi	s7,sp,108
1c000fe8:	1c008cb7          	lui	s9,0x1c008
1c000fec:	1c008c37          	lui	s8,0x1c008
1c000ff0:	1c008a37          	lui	s4,0x1c008
1c000ff4:	00092783          	lw	a5,0(s2)
1c000ff8:	a9098613          	addi	a2,s3,-1392
1c000ffc:	46e1                	li	a3,24
1c000ffe:	5b9c                	lw	a5,48(a5)
1c001000:	be048513          	addi	a0,s1,-1056
1c001004:	9782                	jalr	a5
                flash_address += (CROP_SIZE+PACKET_SIZE);
1c001006:	401c                	lw	a5,0(s0)
1c001008:	66c9                	lui	a3,0x12
1c00100a:	81868693          	addi	a3,a3,-2024 # 11818 <__L1Cl+0x1818>
1c00100e:	97b6                	add	a5,a5,a3
1c001010:	c01c                	sw	a5,0(s0)
                decode_packet(buff_packet, &cf_tick, &pos_z, &acc_z, &gyro_x, &gyro_y, &gyro_z);  // cf_tick, pos_z, acc_z, gyro_x, gyro_y, gyro_z;
1c001012:	39d1                	jal	1c000ce6 <decode_packet.constprop.3>
                sprintf(line_data, "img%05d.ppm %f %f %f %f %f %f\n", i,\
1c001014:	f90da503          	lw	a0,-112(s11) # 1c007f90 <pos_z>
1c001018:	3199                	jal	1c000c5e <__extendsfdf2>
1c00101a:	882a                	mv	a6,a0
1c00101c:	f98d2503          	lw	a0,-104(s10) # 1c007f98 <cf_tick>
1c001020:	d842                	sw	a6,48(sp)
1c001022:	d62e                	sw	a1,44(sp)
1c001024:	392d                	jal	1c000c5e <__extendsfdf2>
1c001026:	872a                	mv	a4,a0
1c001028:	fa8ca503          	lw	a0,-88(s9) # 1c007fa8 <gyro_z>
1c00102c:	dc3a                	sw	a4,56(sp)
1c00102e:	da2e                	sw	a1,52(sp)
1c001030:	313d                	jal	1c000c5e <__extendsfdf2>
1c001032:	cc2a                	sw	a0,24(sp)
1c001034:	f7cc2503          	lw	a0,-132(s8) # 1c007f7c <gyro_y>
1c001038:	ce2e                	sw	a1,28(sp)
1c00103a:	3115                	jal	1c000c5e <__extendsfdf2>
1c00103c:	c82a                	sw	a0,16(sp)
1c00103e:	f94a2503          	lw	a0,-108(s4) # 1c007f94 <gyro_x>
1c001042:	ca2e                	sw	a1,20(sp)
1c001044:	3929                	jal	1c000c5e <__extendsfdf2>
1c001046:	1c0086b7          	lui	a3,0x1c008
1c00104a:	c42a                	sw	a0,8(sp)
1c00104c:	fac6a503          	lw	a0,-84(a3) # 1c007fac <acc_z>
1c001050:	c62e                	sw	a1,12(sp)
1c001052:	3131                	jal	1c000c5e <__extendsfdf2>
1c001054:	57d2                	lw	a5,52(sp)
1c001056:	5842                	lw	a6,48(sp)
1c001058:	58b2                	lw	a7,44(sp)
1c00105a:	5762                	lw	a4,56(sp)
1c00105c:	5672                	lw	a2,60(sp)
1c00105e:	1c0076b7          	lui	a3,0x1c007
1c001062:	c02a                	sw	a0,0(sp)
1c001064:	c22e                	sw	a1,4(sp)
1c001066:	855e                	mv	a0,s7
1c001068:	5e068593          	addi	a1,a3,1504 # 1c0075e0 <__clz_tab+0x1a4>
1c00106c:	675050ef          	jal	ra,1c006ee0 <sprintf>
                while(line_data[size_line_data]!='\n'){size_line_data++;}
1c001070:	06c14783          	lbu	a5,108(sp)
1c001074:	04a7a563          	p.beqimm	a5,10,1c0010be <test_camera+0x2dc>
1c001078:	06d10793          	addi	a5,sp,109
1c00107c:	417786b3          	sub	a3,a5,s7
1c001080:	0017c70b          	p.lbu	a4,1(a5!)
1c001084:	fea73ce3          	p.bneimm	a4,10,1c00107c <test_camera+0x29a>
1c001088:	00168613          	addi	a2,a3,1
                pi_fs_write(File, line_data, size_line_data+1);
1c00108c:	85de                	mv	a1,s7
1c00108e:	855a                	mv	a0,s6
1c001090:	2189                	jal	1c0014d2 <pi_fs_write>
            for (int i=0; i<image_number; i++){
1c001092:	5772                	lw	a4,60(sp)
1c001094:	000ad783          	lhu	a5,0(s5)
1c001098:	0705                	addi	a4,a4,1
1c00109a:	de3a                	sw	a4,60(sp)
1c00109c:	00f75463          	ble	a5,a4,1c0010a4 <test_camera+0x2c2>
1c0010a0:	400c                	lw	a1,0(s0)
1c0010a2:	bf89                	j	1c000ff4 <test_camera+0x212>
            pi_fs_close(File);
1c0010a4:	855a                	mv	a0,s6
1c0010a6:	26fd                	jal	1c001494 <pi_fs_close>
            pi_fs_unmount(&fs);
1c0010a8:	00e8                	addi	a0,sp,76
1c0010aa:	2ee9                	jal	1c001484 <pi_fs_unmount>
  api->close(device);
1c0010ac:	00092783          	lw	a5,0(s2)
1c0010b0:	be048513          	addi	a0,s1,-1056
1c0010b4:	43dc                	lw	a5,4(a5)
1c0010b6:	9782                	jalr	a5
  return -1;
}

static inline void pmsis_exit(int err)
{
  exit(err);
1c0010b8:	4501                	li	a0,0
1c0010ba:	10a050ef          	jal	ra,1c0061c4 <exit>
                while(line_data[size_line_data]!='\n'){size_line_data++;}
1c0010be:	4605                	li	a2,1
1c0010c0:	b7f1                	j	1c00108c <test_camera+0x2aa>
        printf("Error flash open !\n");
1c0010c2:	1c007537          	lui	a0,0x1c007
1c0010c6:	59c50513          	addi	a0,a0,1436 # 1c00759c <__clz_tab+0x160>
1c0010ca:	056050ef          	jal	ra,1c006120 <puts>
1c0010ce:	5575                	li	a0,-3
1c0010d0:	0f4050ef          	jal	ra,1c0061c4 <exit>

1c0010d4 <main>:

int main(void)
{
    printf("\n\t*** PMSIS Camera -> Hyperflash -> Laptop ***\n\n");
1c0010d4:	1c007537          	lui	a0,0x1c007
{
1c0010d8:	1141                	addi	sp,sp,-16
    printf("\n\t*** PMSIS Camera -> Hyperflash -> Laptop ***\n\n");
1c0010da:	53c50513          	addi	a0,a0,1340 # 1c00753c <__clz_tab+0x100>
{
1c0010de:	c606                	sw	ra,12(sp)
    printf("\n\t*** PMSIS Camera -> Hyperflash -> Laptop ***\n\n");
1c0010e0:	040050ef          	jal	ra,1c006120 <puts>
  ((void (*)())arg)();
1c0010e4:	39fd                	jal	1c000de2 <test_camera>
    return pmsis_kickoff((void *) test_camera);
}
1c0010e6:	40b2                	lw	ra,12(sp)
1c0010e8:	557d                	li	a0,-1
1c0010ea:	0141                	addi	sp,sp,16
1c0010ec:	8082                	ret

1c0010ee <WriteImageToFile>:
    }
}


int WriteImageToFile(char *ImageName, unsigned int W, unsigned int H, unsigned char PixelSize, unsigned char *OutBuffer, unsigned char imgFormat)
{
1c0010ee:	7159                	addi	sp,sp,-112
1c0010f0:	d4a2                	sw	s0,104(sp)
1c0010f2:	d0ca                	sw	s2,96(sp)
1c0010f4:	8432                	mv	s0,a2
1c0010f6:	8936                	mv	s2,a3
1c0010f8:	02890933          	mul	s2,s2,s0
1c0010fc:	d2a6                	sw	s1,100(sp)
1c0010fe:	84ae                	mv	s1,a1
1c001100:	ccd2                	sw	s4,88(sp)
1c001102:	8a2a                	mv	s4,a0

	switch_fs_t fs;
	__FS_INIT(fs);
1c001104:	0808                	addi	a0,sp,16
{
1c001106:	d686                	sw	ra,108(sp)
1c001108:	c43a                	sw	a4,8(sp)
1c00110a:	cece                	sw	s3,92(sp)
1c00110c:	cad6                	sw	s5,84(sp)
1c00110e:	02990933          	mul	s2,s2,s1
1c001112:	89be                	mv	s3,a5
1c001114:	c8da                	sw	s6,80(sp)
1c001116:	c6de                	sw	s7,76(sp)
1c001118:	c4e2                	sw	s8,72(sp)
1c00111a:	c2e6                	sw	s9,68(sp)
1c00111c:	c0ea                	sw	s10,64(sp)
1c00111e:	de6e                	sw	s11,60(sp)
	__FS_INIT(fs);
1c001120:	261d                	jal	1c001446 <pi_fs_conf_init>
1c001122:	4785                	li	a5,1
1c001124:	080c                	addi	a1,sp,16
1c001126:	1048                	addi	a0,sp,36
1c001128:	c83e                	sw	a5,16(sp)
1c00112a:	598020ef          	jal	ra,1c0036c2 <pi_open_from_conf>
1c00112e:	1048                	addi	a0,sp,36
1c001130:	2625                	jal	1c001458 <pi_fs_mount>

    void *File = __OPEN_WRITE(fs, ImageName);
1c001132:	85d2                	mv	a1,s4
1c001134:	4605                	li	a2,1
1c001136:	1048                	addi	a0,sp,36
1c001138:	2e91                	jal	1c00148c <pi_fs_open>
1c00113a:	c24a                	sw	s2,4(sp)
1c00113c:	8aaa                	mv	s5,a0
1c00113e:	00d95a13          	srli	s4,s2,0xd
    if (imgFormat == BYPASS_IO)
1c001142:	0a099b63          	bnez	s3,1c0011f8 <WriteImageToFile+0x10a>
    }
    else
    {
        int steps = (W*H*PixelSize) / CHUNK_SIZE;

        for(int i=0;i<steps;i++){
1c001146:	240a0a63          	beqz	s4,1c00139a <WriteImageToFile+0x2ac>
1c00114a:	004a1d93          	slli	s11,s4,0x4
1c00114e:	4d22                	lw	s10,8(sp)
1c001150:	414d8db3          	sub	s11,s11,s4
1c001154:	0d86                	slli	s11,s11,0x1
1c001156:	4901                	li	s2,0
    int ret = 0;
1c001158:	4981                	li	s3,0
1c00115a:	1c007cb7          	lui	s9,0x1c007
1c00115e:	1c007c37          	lui	s8,0x1c007
1c001162:	1c007bb7          	lui	s7,0x1c007
	for(int i=0;i<tot_chars;i++){
1c001166:	44f9                	li	s1,30
	printf("%s",OutString);
1c001168:	630c8593          	addi	a1,s9,1584 # 1c007630 <__clz_tab+0x1f4>
1c00116c:	640c0513          	addi	a0,s8,1600 # 1c007640 <__clz_tab+0x204>
1c001170:	146050ef          	jal	ra,1c0062b6 <printf>
	printf(" [");
1c001174:	644b8513          	addi	a0,s7,1604 # 1c007644 <__clz_tab+0x208>
1c001178:	13e050ef          	jal	ra,1c0062b6 <printf>
	int chars = (n*tot_chars)/tot;
1c00117c:	03494433          	div	s0,s2,s4
	for(int i=0;i<tot_chars;i++){
1c001180:	4b01                	li	s6,0
			printf("#");
1c001182:	02300513          	li	a0,35
		if(i<=chars)
1c001186:	01645463          	ble	s6,s0,1c00118e <WriteImageToFile+0xa0>
		else printf(" ");
1c00118a:	02000513          	li	a0,32
	for(int i=0;i<tot_chars;i++){
1c00118e:	0b05                	addi	s6,s6,1
		else printf(" ");
1c001190:	006050ef          	jal	ra,1c006196 <putchar>
	for(int i=0;i<tot_chars;i++){
1c001194:	fe9b17e3          	bne	s6,s1,1c001182 <WriteImageToFile+0x94>
	printf("]");
1c001198:	05d00513          	li	a0,93
1c00119c:	7fb040ef          	jal	ra,1c006196 <putchar>
	printf("\n");
1c0011a0:	4529                	li	a0,10
1c0011a2:	7f5040ef          	jal	ra,1c006196 <putchar>
            #ifndef SILENT
	            progress_bar("Writing image ",i,steps);
	        #endif
            ret+=__WRITE(File,OutBuffer +(CHUNK_SIZE*i), CHUNK_SIZE);
1c0011a6:	85ea                	mv	a1,s10
1c0011a8:	6609                	lui	a2,0x2
1c0011aa:	8556                	mv	a0,s5
1c0011ac:	261d                	jal	1c0014d2 <pi_fs_write>
1c0011ae:	6789                	lui	a5,0x2
1c0011b0:	0979                	addi	s2,s2,30
1c0011b2:	99aa                	add	s3,s3,a0
1c0011b4:	9d3e                	add	s10,s10,a5
        for(int i=0;i<steps;i++){
1c0011b6:	fbb919e3          	bne	s2,s11,1c001168 <WriteImageToFile+0x7a>
        }
        if(((W*H*PixelSize) % CHUNK_SIZE) != 0)
1c0011ba:	4712                	lw	a4,4(sp)
1c0011bc:	e4d73633          	p.bclr	a2,a4,18,13
1c0011c0:	ca01                	beqz	a2,1c0011d0 <WriteImageToFile+0xe2>
            ret+=__WRITE(File,OutBuffer+(CHUNK_SIZE*steps) , ((W*H*PixelSize) % CHUNK_SIZE)*sizeof(unsigned char));
1c0011c2:	46a2                	lw	a3,8(sp)
1c0011c4:	00da1593          	slli	a1,s4,0xd
1c0011c8:	8556                	mv	a0,s5
1c0011ca:	95b6                	add	a1,a1,a3
1c0011cc:	2619                	jal	1c0014d2 <pi_fs_write>
1c0011ce:	99aa                	add	s3,s3,a0
    }

    __CLOSE(File);
1c0011d0:	8556                	mv	a0,s5
1c0011d2:	24c9                	jal	1c001494 <pi_fs_close>
    __FS_DEINIT(fs);
1c0011d4:	1048                	addi	a0,sp,36
1c0011d6:	247d                	jal	1c001484 <pi_fs_unmount>

    return ret;
}
1c0011d8:	50b6                	lw	ra,108(sp)
1c0011da:	5426                	lw	s0,104(sp)
1c0011dc:	854e                	mv	a0,s3
1c0011de:	5496                	lw	s1,100(sp)
1c0011e0:	5906                	lw	s2,96(sp)
1c0011e2:	49f6                	lw	s3,92(sp)
1c0011e4:	4a66                	lw	s4,88(sp)
1c0011e6:	4ad6                	lw	s5,84(sp)
1c0011e8:	4b46                	lw	s6,80(sp)
1c0011ea:	4bb6                	lw	s7,76(sp)
1c0011ec:	4c26                	lw	s8,72(sp)
1c0011ee:	4c96                	lw	s9,68(sp)
1c0011f0:	4d06                	lw	s10,64(sp)
1c0011f2:	5df2                	lw	s11,60(sp)
1c0011f4:	6165                	addi	sp,sp,112
1c0011f6:	8082                	ret
    unsigned char *Buffer = (unsigned char *) __ALLOC_L2(PPM_HEADER * sizeof(unsigned char));
1c0011f8:	02800513          	li	a0,40
1c0011fc:	5a1020ef          	jal	ra,1c003f9c <pi_l2_malloc>
    Buffer[Ind++] = 0x50;                                   // P
1c001200:	05000793          	li	a5,80
1c001204:	00f50023          	sb	a5,0(a0)
    unsigned char *Buffer = (unsigned char *) __ALLOC_L2(PPM_HEADER * sizeof(unsigned char));
1c001208:	892a                	mv	s2,a0
    if (imgFormat == GRAY_SCALE_IO) Buffer[Ind++] = 0x35;   // 5
1c00120a:	1819a363          	p.beqimm	s3,1,1c001390 <WriteImageToFile+0x2a2>
    else Buffer[Ind++] = 0x36;                              // 6
1c00120e:	03600793          	li	a5,54
1c001212:	00f500a3          	sb	a5,1(a0)
    Buffer[Ind++] = 0xA;                                    // <cr>
1c001216:	47a9                	li	a5,10
1c001218:	00f90123          	sb	a5,2(s2)
    while (x>0)
1c00121c:	1c048e63          	beqz	s1,1c0013f8 <WriteImageToFile+0x30a>
1c001220:	87a6                	mv	a5,s1
    x = W; L=0;
1c001222:	4701                	li	a4,0
        x = x/10;
1c001224:	4629                	li	a2,10
1c001226:	a011                	j	1c00122a <WriteImageToFile+0x13c>
        L++;
1c001228:	8736                	mv	a4,a3
        x = x/10;
1c00122a:	02c7d7b3          	divu	a5,a5,a2
        L++;
1c00122e:	00170693          	addi	a3,a4,1
    while (x>0)
1c001232:	fbfd                	bnez	a5,1c001228 <WriteImageToFile+0x13a>
1c001234:	00370693          	addi	a3,a4,3
1c001238:	96ca                	add	a3,a3,s2
        Buffer[Ind+L-i] = 0x30 + (x%10);
1c00123a:	4629                	li	a2,10
1c00123c:	02c4f7b3          	remu	a5,s1,a2
        x=x/10;
1c001240:	02c4d4b3          	divu	s1,s1,a2
        Buffer[Ind+L-i] = 0x30 + (x%10);
1c001244:	03078793          	addi	a5,a5,48 # 2030 <__rt_stack_size+0x1830>
1c001248:	fef68fab          	p.sb	a5,-1(a3!)
    while (x>0)
1c00124c:	f8e5                	bnez	s1,1c00123c <WriteImageToFile+0x14e>
1c00124e:	00470793          	addi	a5,a4,4
1c001252:	0715                	addi	a4,a4,5
    Buffer[Ind++] = 0x20;
1c001254:	02000693          	li	a3,32
1c001258:	00d947a3          	p.sb	a3,a5(s2)
    while (x>0)
1c00125c:	c415                	beqz	s0,1c001288 <WriteImageToFile+0x19a>
1c00125e:	87a2                	mv	a5,s0
    x = H; L=0;
1c001260:	4681                	li	a3,0
        x = x/10;
1c001262:	4629                	li	a2,10
1c001264:	02c7d7b3          	divu	a5,a5,a2
        L++;
1c001268:	0685                	addi	a3,a3,1
    while (x>0)
1c00126a:	ffed                	bnez	a5,1c001264 <WriteImageToFile+0x176>
1c00126c:	9736                	add	a4,a4,a3
1c00126e:	fff70693          	addi	a3,a4,-1
1c001272:	96ca                	add	a3,a3,s2
        Buffer[Ind+L-i] = 0x30 + (x%10);
1c001274:	4629                	li	a2,10
1c001276:	02c477b3          	remu	a5,s0,a2
        x=x/10;
1c00127a:	02c45433          	divu	s0,s0,a2
        Buffer[Ind+L-i] = 0x30 + (x%10);
1c00127e:	03078793          	addi	a5,a5,48
1c001282:	fef68fab          	p.sb	a5,-1(a3!)
    while (x>0)
1c001286:	f865                	bnez	s0,1c001276 <WriteImageToFile+0x188>
    Buffer[Ind++] = 0xA;
1c001288:	1c0076b7          	lui	a3,0x1c007
1c00128c:	62c6a683          	lw	a3,1580(a3) # 1c00762c <__clz_tab+0x1f0>
    Buffer[Ind++] = 0xA;
1c001290:	00e907b3          	add	a5,s2,a4
    Buffer[Ind++] = 0xA;
1c001294:	00d96723          	p.sw	a3,a4(s2)
    Buffer[Ind++] = 0xA;
1c001298:	46a9                	li	a3,10
1c00129a:	00d78223          	sb	a3,4(a5)
    for (unsigned int a=0; a<Ind; a++)
1c00129e:	01b72d63          	p.beqimm	a4,-5,1c0012b8 <WriteImageToFile+0x1ca>
1c0012a2:	00590493          	addi	s1,s2,5
1c0012a6:	844a                	mv	s0,s2
1c0012a8:	94ba                	add	s1,s1,a4
        __WRITE(FD,&(Buffer[a]), sizeof(unsigned char));
1c0012aa:	85a2                	mv	a1,s0
1c0012ac:	4605                	li	a2,1
1c0012ae:	0405                	addi	s0,s0,1
1c0012b0:	8556                	mv	a0,s5
1c0012b2:	2405                	jal	1c0014d2 <pi_fs_write>
    for (unsigned int a=0; a<Ind; a++)
1c0012b4:	fe849be3          	bne	s1,s0,1c0012aa <WriteImageToFile+0x1bc>
    __FREE_L2(Buffer, PPM_HEADER * sizeof(unsigned char));
1c0012b8:	02800593          	li	a1,40
1c0012bc:	854a                	mv	a0,s2
1c0012be:	4eb020ef          	jal	ra,1c003fa8 <pi_l2_free>
    if(imgFormat == RGB565_IO)
1c0012c2:	e829b2e3          	p.bneimm	s3,2,1c001146 <WriteImageToFile+0x58>
        img_rgb888 = (unsigned char *) __ALLOC_L2(rgb888_size);
1c0012c6:	650d                	lui	a0,0x3
1c0012c8:	4d5020ef          	jal	ra,1c003f9c <pi_l2_malloc>
1c0012cc:	1c008db7          	lui	s11,0x1c008
1c0012d0:	faada823          	sw	a0,-80(s11) # 1c007fb0 <img_rgb888>
1c0012d4:	87aa                	mv	a5,a0
        for(int i=0;i<steps;i++){
1c0012d6:	120a0463          	beqz	s4,1c0013fe <WriteImageToFile+0x310>
1c0012da:	4922                	lw	s2,8(sp)
1c0012dc:	00da1793          	slli	a5,s4,0xd
1c0012e0:	4d01                	li	s10,0
1c0012e2:	97ca                	add	a5,a5,s2
1c0012e4:	c63e                	sw	a5,12(sp)
    int ret = 0;
1c0012e6:	4981                	li	s3,0
1c0012e8:	1c007cb7          	lui	s9,0x1c007
1c0012ec:	1c007c37          	lui	s8,0x1c007
1c0012f0:	1c007bb7          	lui	s7,0x1c007
	for(int i=0;i<tot_chars;i++){
1c0012f4:	44f9                	li	s1,30
	printf("%s",OutString);
1c0012f6:	630c8593          	addi	a1,s9,1584 # 1c007630 <__clz_tab+0x1f4>
1c0012fa:	640c0513          	addi	a0,s8,1600 # 1c007640 <__clz_tab+0x204>
1c0012fe:	7b9040ef          	jal	ra,1c0062b6 <printf>
	printf(" [");
1c001302:	644b8513          	addi	a0,s7,1604 # 1c007644 <__clz_tab+0x208>
1c001306:	7b1040ef          	jal	ra,1c0062b6 <printf>
	int chars = (n*tot_chars)/tot;
1c00130a:	034d4433          	div	s0,s10,s4
	for(int i=0;i<tot_chars;i++){
1c00130e:	4b01                	li	s6,0
			printf("#");
1c001310:	02300513          	li	a0,35
		if(i<=chars)
1c001314:	01645463          	ble	s6,s0,1c00131c <WriteImageToFile+0x22e>
		else printf(" ");
1c001318:	02000513          	li	a0,32
	for(int i=0;i<tot_chars;i++){
1c00131c:	0b05                	addi	s6,s6,1
		else printf(" ");
1c00131e:	679040ef          	jal	ra,1c006196 <putchar>
	for(int i=0;i<tot_chars;i++){
1c001322:	fe9b17e3          	bne	s6,s1,1c001310 <WriteImageToFile+0x222>
	printf("]");
1c001326:	05d00513          	li	a0,93
1c00132a:	66d040ef          	jal	ra,1c006196 <putchar>
	printf("\n");
1c00132e:	4529                	li	a0,10
1c001330:	667040ef          	jal	ra,1c006196 <putchar>
1c001334:	fb0da703          	lw	a4,-80(s11)
1c001338:	6789                	lui	a5,0x2
1c00133a:	00f90433          	add	s0,s2,a5
1c00133e:	6585                	lui	a1,0x1
1c001340:	0105c0fb          	lp.setup	x1,a1,1c001360 <WriteImageToFile+0x272>
        pixel = *(unsigned short *) (input + i);
1c001344:	0029578b          	p.lhu	a5,2(s2!)
1c001348:	070d                	addi	a4,a4,3
        red = (unsigned short)((pixel & 0xF800) >> 11);  // 5
1c00134a:	00b7d613          	srli	a2,a5,0xb
        green = (unsigned short)((pixel & 0x07E0) >> 5); // 6
1c00134e:	4057d693          	srai	a3,a5,0x5
        output[ind] = red << 3;  /* red */
1c001352:	060e                	slli	a2,a2,0x3
        output[ind+1] = green << 2;  /* green */
1c001354:	068a                	slli	a3,a3,0x2
        output[ind+2] = blue << 3;  /* blue */
1c001356:	078e                	slli	a5,a5,0x3
        output[ind] = red << 3;  /* red */
1c001358:	fec70ea3          	sb	a2,-3(a4)
        output[ind+1] = green << 2;  /* green */
1c00135c:	fed70f23          	sb	a3,-2(a4)
        output[ind+2] = blue << 3;  /* blue */
1c001360:	fef70fa3          	sb	a5,-1(a4)
            ret+=__WRITE(File, img_rgb888, rgb888_size);
1c001364:	fb0da583          	lw	a1,-80(s11)
1c001368:	660d                	lui	a2,0x3
1c00136a:	8556                	mv	a0,s5
1c00136c:	229d                	jal	1c0014d2 <pi_fs_write>
        for(int i=0;i<steps;i++){
1c00136e:	46b2                	lw	a3,12(sp)
            ret+=__WRITE(File, img_rgb888, rgb888_size);
1c001370:	99aa                	add	s3,s3,a0
1c001372:	0d79                	addi	s10,s10,30
        for(int i=0;i<steps;i++){
1c001374:	f88691e3          	bne	a3,s0,1c0012f6 <WriteImageToFile+0x208>
1c001378:	fb0da783          	lw	a5,-80(s11)
        if(((W*H*PixelSize) % CHUNK_SIZE) != 0)
1c00137c:	4712                	lw	a4,4(sp)
1c00137e:	e4d73b33          	p.bclr	s6,a4,18,13
1c001382:	000b1e63          	bnez	s6,1c00139e <WriteImageToFile+0x2b0>
        __FREE_L2(img_rgb888, (CHUNK_SIZE/2)*3);
1c001386:	658d                	lui	a1,0x3
1c001388:	853e                	mv	a0,a5
1c00138a:	41f020ef          	jal	ra,1c003fa8 <pi_l2_free>
1c00138e:	b589                	j	1c0011d0 <WriteImageToFile+0xe2>
    if (imgFormat == GRAY_SCALE_IO) Buffer[Ind++] = 0x35;   // 5
1c001390:	03500793          	li	a5,53
1c001394:	00f500a3          	sb	a5,1(a0) # 3001 <__rt_stack_size+0x2801>
1c001398:	bdbd                	j	1c001216 <WriteImageToFile+0x128>
    int ret = 0;
1c00139a:	4981                	li	s3,0
1c00139c:	bd39                	j	1c0011ba <WriteImageToFile+0xcc>
1c00139e:	46a2                	lw	a3,8(sp)
            rgb565_to_rgb888((OutBuffer+(CHUNK_SIZE*steps)),((W*H*PixelSize) % CHUNK_SIZE) ,img_rgb888);
1c0013a0:	00da1813          	slli	a6,s4,0xd
            rgb888_size = ((W*H*PixelSize) % CHUNK_SIZE)/2*3;
1c0013a4:	001b5713          	srli	a4,s6,0x1
1c0013a8:	9836                	add	a6,a6,a3
1c0013aa:	fff84693          	not	a3,a6
1c0013ae:	96da                	add	a3,a3,s6
1c0013b0:	00171613          	slli	a2,a4,0x1
1c0013b4:	8306a6db          	p.addun	a3,a3,a6,1
1c0013b8:	0b05                	addi	s6,s6,1
1c0013ba:	4589                	li	a1,2
1c0013bc:	963a                	add	a2,a2,a4
1c0013be:	0685                	addi	a3,a3,1
1c0013c0:	04bb6163          	bltu	s6,a1,1c001402 <WriteImageToFile+0x314>
1c0013c4:	0106c0fb          	lp.setup	x1,a3,1c0013e4 <WriteImageToFile+0x2f6>
        pixel = *(unsigned short *) (input + i);
1c0013c8:	0028570b          	p.lhu	a4,2(a6!)
1c0013cc:	078d                	addi	a5,a5,3
        red = (unsigned short)((pixel & 0xF800) >> 11);  // 5
1c0013ce:	00b75513          	srli	a0,a4,0xb
        green = (unsigned short)((pixel & 0x07E0) >> 5); // 6
1c0013d2:	40575593          	srai	a1,a4,0x5
        output[ind] = red << 3;  /* red */
1c0013d6:	050e                	slli	a0,a0,0x3
        output[ind+1] = green << 2;  /* green */
1c0013d8:	058a                	slli	a1,a1,0x2
        output[ind+2] = blue << 3;  /* blue */
1c0013da:	070e                	slli	a4,a4,0x3
        output[ind] = red << 3;  /* red */
1c0013dc:	fea78ea3          	sb	a0,-3(a5) # 1ffd <__rt_stack_size+0x17fd>
        output[ind+1] = green << 2;  /* green */
1c0013e0:	feb78f23          	sb	a1,-2(a5)
        output[ind+2] = blue << 3;  /* blue */
1c0013e4:	fee78fa3          	sb	a4,-1(a5)
            ret+=__WRITE(File, img_rgb888, rgb888_size);
1c0013e8:	fb0da583          	lw	a1,-80(s11)
1c0013ec:	8556                	mv	a0,s5
1c0013ee:	20d5                	jal	1c0014d2 <pi_fs_write>
1c0013f0:	fb0da783          	lw	a5,-80(s11)
1c0013f4:	99aa                	add	s3,s3,a0
1c0013f6:	bf41                	j	1c001386 <WriteImageToFile+0x298>
    while (x>0)
1c0013f8:	4711                	li	a4,4
1c0013fa:	478d                	li	a5,3
1c0013fc:	bda1                	j	1c001254 <WriteImageToFile+0x166>
    int ret = 0;
1c0013fe:	4981                	li	s3,0
1c001400:	bfb5                	j	1c00137c <WriteImageToFile+0x28e>
1c001402:	4685                	li	a3,1
1c001404:	b7c1                	j	1c0013c4 <WriteImageToFile+0x2d6>

1c001406 <pi_flash_open>:


int pi_flash_open(struct pi_device *device)
{
  struct pi_flash_conf *conf = (struct pi_flash_conf *)device->config;
  pi_flash_api_t *api = (pi_flash_api_t *)conf->api;
1c001406:	415c                	lw	a5,4(a0)
1c001408:	439c                	lw	a5,0(a5)
  device->api = (struct pi_device_api *)api;
  return api->open(device);
1c00140a:	0007a303          	lw	t1,0(a5)
  device->api = (struct pi_device_api *)api;
1c00140e:	c11c                	sw	a5,0(a0)
  return api->open(device);
1c001410:	8302                	jr	t1

1c001412 <__flash_conf_init>:
}


void __flash_conf_init(struct pi_flash_conf *conf)
{
}
1c001412:	8082                	ret

1c001414 <pi_task_wait_on.isra.3>:
}


#endif

static inline void pi_task_wait_on(struct pi_task *task)
1c001414:	1141                	addi	sp,sp,-16
1c001416:	c422                	sw	s0,8(sp)
1c001418:	c226                	sw	s1,4(sp)
1c00141a:	c606                	sw	ra,12(sp)
1c00141c:	c04a                	sw	s2,0(sp)
1c00141e:	842a                	mv	s0,a0
{
  while(!task->done)
1c001420:	00040783          	lb	a5,0(s0)
1c001424:	c799                	beqz	a5,1c001432 <pi_task_wait_on.isra.3+0x1e>
    rt_event_yield(NULL);
}
1c001426:	40b2                	lw	ra,12(sp)
1c001428:	4422                	lw	s0,8(sp)
1c00142a:	4492                	lw	s1,4(sp)
1c00142c:	4902                	lw	s2,0(sp)
1c00142e:	0141                	addi	sp,sp,16
1c001430:	8082                	ret

#if defined(__OPTIMIZE__) && defined(CORE_PULP_BUILTINS) && !defined(__LLVM__)

static inline unsigned int hal_spr_read_then_clr(unsigned int reg, unsigned int val)
{
  return __builtin_pulp_read_then_spr_bit_clr(reg, val);
1c001432:	30047973          	csrrci	s2,mstatus,8
void __rt_event_yield(rt_event_sched_t *sched);

static inline void rt_event_execute(rt_event_sched_t *sched, int wait)
{
  int irq = rt_irq_disable();
  __rt_event_execute(__rt_event_get_current_sched(), wait);
1c001436:	4585                	li	a1,1
1c001438:	01c00513          	li	a0,28
1c00143c:	0e5020ef          	jal	ra,1c003d20 <__rt_event_execute>
  return __builtin_pulp_read_then_spr_bit_set(reg, val);
}

static inline void hal_spr_write(unsigned int reg, unsigned int val)
{
  __builtin_pulp_spr_write(reg, val);
1c001440:	30091073          	csrw	mstatus,s2
1c001444:	bff1                	j	1c001420 <pi_task_wait_on.isra.3+0xc>

1c001446 <pi_fs_conf_init>:

// Default FS config init
//
void pi_fs_conf_init(struct pi_fs_conf *conf)
{
  conf->type = PI_FS_READ_ONLY;
1c001446:	00052023          	sw	zero,0(a0)

  // By default, mount operation uses the first partition compatible with the FS.
  conf->partition_name = NULL;
1c00144a:	00052423          	sw	zero,8(a0)

  // By default, an error is returned to the user if the file system is not found in the partition.
  conf->auto_format = false;
1c00144e:	00050623          	sb	zero,12(a0)

  conf->api = NULL;
1c001452:	00052823          	sw	zero,16(a0)
}
1c001456:	8082                	ret

1c001458 <pi_fs_mount>:


int32_t pi_fs_mount(struct pi_device *device)
{
  struct pi_fs_conf *conf = (struct pi_fs_conf *)device->config;
1c001458:	4158                	lw	a4,4(a0)
  pi_fs_api_t *api = conf->api;
1c00145a:	4b1c                	lw	a5,16(a4)

  if (api == NULL)
1c00145c:	eb89                	bnez	a5,1c00146e <pi_fs_mount+0x16>
  {
    switch (conf->type)
1c00145e:	431c                	lw	a5,0(a4)
1c001460:	cb99                	beqz	a5,1c001476 <pi_fs_mount+0x1e>
1c001462:	0017bf63          	p.bneimm	a5,1,1c001480 <pi_fs_mount+0x28>
      case PI_FS_READ_ONLY:
        api = &__pi_read_fs_api;
        break;

      case PI_FS_HOST:
        api = &__pi_host_fs_api;
1c001466:	1c0087b7          	lui	a5,0x1c008
1c00146a:	8fc78793          	addi	a5,a5,-1796 # 1c0078fc <__pi_host_fs_api>
    }
  }

  device->api = (struct pi_device_api *)api;

  return api->mount(device);
1c00146e:	0007a303          	lw	t1,0(a5)
  device->api = (struct pi_device_api *)api;
1c001472:	c11c                	sw	a5,0(a0)
  return api->mount(device);
1c001474:	8302                	jr	t1
        api = &__pi_read_fs_api;
1c001476:	1c0087b7          	lui	a5,0x1c008
1c00147a:	8d478793          	addi	a5,a5,-1836 # 1c0078d4 <__pi_read_fs_api>
1c00147e:	bfc5                	j	1c00146e <pi_fs_mount+0x16>
}
1c001480:	557d                	li	a0,-1
1c001482:	8082                	ret

1c001484 <pi_fs_unmount>:


void pi_fs_unmount(struct pi_device *device)
{
  pi_fs_api_t *api = (pi_fs_api_t *)(device->api);
  api->unmount(device);
1c001484:	411c                	lw	a5,0(a0)
1c001486:	0047a303          	lw	t1,4(a5)
1c00148a:	8302                	jr	t1

1c00148c <pi_fs_open>:
}

pi_fs_file_t *pi_fs_open(struct pi_device *device, const char *file_name, int flags)
{
  pi_fs_api_t *api = (pi_fs_api_t *)(device->api);
  return api->open(device, file_name, flags);
1c00148c:	411c                	lw	a5,0(a0)
1c00148e:	0087a303          	lw	t1,8(a5)
1c001492:	8302                	jr	t1

1c001494 <pi_fs_close>:
}

void pi_fs_close(pi_fs_file_t *file)
{
  return file->api->close(file);
1c001494:	415c                	lw	a5,4(a0)
1c001496:	00c7a303          	lw	t1,12(a5)
1c00149a:	8302                	jr	t1

1c00149c <pi_fs_read_async>:
}

int32_t pi_fs_read_async(pi_fs_file_t *file, void *buffer, uint32_t size, pi_task_t *task)
{
  return file->api->read(file, buffer, size, task);
1c00149c:	415c                	lw	a5,4(a0)
1c00149e:	0107a303          	lw	t1,16(a5)
1c0014a2:	8302                	jr	t1

1c0014a4 <pi_fs_read>:
}

int32_t pi_fs_read(pi_fs_file_t *file, void *buffer, uint32_t size)
{
1c0014a4:	7175                	addi	sp,sp,-144
  task->id = PI_TASK_NONE_ID;
1c0014a6:	4785                	li	a5,1
  pi_task_t task;
  int result = pi_fs_read_async(file, buffer, size, pi_task_block(&task));
1c0014a8:	868a                	mv	a3,sp
{
1c0014aa:	c706                	sw	ra,140(sp)
1c0014ac:	c522                	sw	s0,136(sp)
1c0014ae:	cc3e                	sw	a5,24(sp)
  task->implem.keep = 1;
1c0014b0:	d43e                	sw	a5,40(sp)
  task->arg[0] = (uint32_t)0;
1c0014b2:	c202                	sw	zero,4(sp)

void __rt_event_sched_init();

static inline void __rt_task_init(pi_task_t *task)
{
  task->done = 0;
1c0014b4:	00010a23          	sb	zero,20(sp)
  int result = pi_fs_read_async(file, buffer, size, pi_task_block(&task));
1c0014b8:	37d5                	jal	1c00149c <pi_fs_read_async>
1c0014ba:	842a                	mv	s0,a0
  pi_task_wait_on(&task);
1c0014bc:	0848                	addi	a0,sp,20
1c0014be:	3f99                	jal	1c001414 <pi_task_wait_on.isra.3>
  return result;
}
1c0014c0:	8522                	mv	a0,s0
1c0014c2:	40ba                	lw	ra,140(sp)
1c0014c4:	442a                	lw	s0,136(sp)
1c0014c6:	6149                	addi	sp,sp,144
1c0014c8:	8082                	ret

1c0014ca <pi_fs_write_async>:

int32_t pi_fs_write_async(pi_fs_file_t *file, void *buffer, uint32_t size, pi_task_t *task)
{
  return file->api->write(file, buffer, size, task);
1c0014ca:	415c                	lw	a5,4(a0)
1c0014cc:	0187a303          	lw	t1,24(a5)
1c0014d0:	8302                	jr	t1

1c0014d2 <pi_fs_write>:
}

int32_t pi_fs_write(pi_fs_file_t *file, void *buffer, uint32_t size)
{
1c0014d2:	7175                	addi	sp,sp,-144
  task->id = PI_TASK_NONE_ID;
1c0014d4:	4785                	li	a5,1
  pi_task_t task;
  int result = pi_fs_write_async(file, buffer, size, pi_task_block(&task));
1c0014d6:	868a                	mv	a3,sp
{
1c0014d8:	c706                	sw	ra,140(sp)
1c0014da:	c522                	sw	s0,136(sp)
1c0014dc:	cc3e                	sw	a5,24(sp)
  task->implem.keep = 1;
1c0014de:	d43e                	sw	a5,40(sp)
  task->arg[0] = (uint32_t)0;
1c0014e0:	c202                	sw	zero,4(sp)
1c0014e2:	00010a23          	sb	zero,20(sp)
  int result = pi_fs_write_async(file, buffer, size, pi_task_block(&task));
1c0014e6:	37d5                	jal	1c0014ca <pi_fs_write_async>
1c0014e8:	842a                	mv	s0,a0
  pi_task_wait_on(&task);
1c0014ea:	0848                	addi	a0,sp,20
1c0014ec:	3725                	jal	1c001414 <pi_task_wait_on.isra.3>
  return result;
}
1c0014ee:	8522                	mv	a0,s0
1c0014f0:	40ba                	lw	ra,140(sp)
1c0014f2:	442a                	lw	s0,136(sp)
1c0014f4:	6149                	addi	sp,sp,144
1c0014f6:	8082                	ret

1c0014f8 <pi_flash_read_async>:
}

static inline void pi_flash_read_async(struct pi_device *device, uint32_t pi_flash_addr, void *data, uint32_t size, pi_task_t *task)
{
  pi_flash_api_t *api = (pi_flash_api_t *)device->api;
  api->read_async(device, pi_flash_addr, data, size, task);
1c0014f8:	411c                	lw	a5,0(a0)
1c0014fa:	00c7a303          	lw	t1,12(a5)
1c0014fe:	8302                	jr	t1

1c001500 <__pi_read_fs_write>:
    return block_size;
}

static int32_t __pi_read_fs_write(pi_fs_file_t *_file, void *buffer, uint32_t size, pi_task_t *task)
{
    pi_read_fs_t *fs = (pi_read_fs_t *) _file->fs->data;
1c001500:	411c                	lw	a5,0(a0)
    pi_read_fs_file_t *file = (pi_read_fs_file_t *) _file;
    
    int real_size = size;
    unsigned int addr = file->addr + file->offset;
1c001502:	01852803          	lw	a6,24(a0)
{
1c001506:	8736                	mv	a4,a3
    pi_read_fs_t *fs = (pi_read_fs_t *) _file->fs->data;
1c001508:	4794                	lw	a3,8(a5)
    unsigned int addr = file->addr + file->offset;
1c00150a:	495c                	lw	a5,20(a0)
{
1c00150c:	88ae                	mv	a7,a1
1c00150e:	1141                	addi	sp,sp,-16
    unsigned int addr = file->addr + file->offset;
1c001510:	010785b3          	add	a1,a5,a6
    if(file->offset + size > file->fs_file.size)
1c001514:	00c52803          	lw	a6,12(a0)
{
1c001518:	c606                	sw	ra,12(sp)
    if(file->offset + size > file->fs_file.size)
1c00151a:	00c78333          	add	t1,a5,a2
1c00151e:	00687463          	bleu	t1,a6,1c001526 <__pi_read_fs_write+0x26>
    {
        real_size = file->fs_file.size - file->offset;
1c001522:	40f80633          	sub	a2,a6,a5
    }
    file->offset += real_size;
1c001526:	97b2                	add	a5,a5,a2
1c001528:	c95c                	sw	a5,20(a0)
    
    pi_flash_program_async(fs->flash, addr, (void *) buffer, real_size, task);
1c00152a:	4288                	lw	a0,0(a3)
}

static inline void pi_flash_program_async(struct pi_device *device, uint32_t pi_flash_addr, const void *data, uint32_t size, pi_task_t *task)
{
  pi_flash_api_t *api = (pi_flash_api_t *)device->api;
  api->program_async(device, pi_flash_addr, data, size, task);
1c00152c:	86b2                	mv	a3,a2
1c00152e:	8646                	mv	a2,a7
1c001530:	411c                	lw	a5,0(a0)
1c001532:	4b9c                	lw	a5,16(a5)
1c001534:	9782                	jalr	a5
    
    return 0;
}
1c001536:	40b2                	lw	ra,12(sp)
1c001538:	4501                	li	a0,0
1c00153a:	0141                	addi	sp,sp,16
1c00153c:	8082                	ret

1c00153e <__pi_read_fs_seek>:
static int32_t __pi_read_fs_seek(pi_fs_file_t *_file, unsigned int offset)
{
    pi_read_fs_file_t *file = (pi_read_fs_file_t *) _file;
    //printf("[FS] File seek (file: %p, offset: 0x%x)\n", file, offset);
    
    if(offset < file->fs_file.size)
1c00153e:	455c                	lw	a5,12(a0)
1c001540:	00f5f563          	bleu	a5,a1,1c00154a <__pi_read_fs_seek+0xc>
    {
        file->offset = offset;
1c001544:	c94c                	sw	a1,20(a0)
        return 0;
1c001546:	4501                	li	a0,0
1c001548:	8082                	ret
    }
    return -1;
1c00154a:	557d                	li	a0,-1
}
1c00154c:	8082                	ret

1c00154e <__pi_read_fs_direct_read_async>:
}

static int32_t __pi_read_fs_direct_read_async(pi_fs_file_t *_file, void *buffer, uint32_t size, pi_task_t *event)
{
    pi_read_fs_file_t *file = (pi_read_fs_file_t *) _file;
    pi_read_fs_t *fs = (pi_read_fs_t *) file->fs_file.fs->data;
1c00154e:	411c                	lw	a5,0(a0)
{
1c001550:	1141                	addi	sp,sp,-16
1c001552:	c422                	sw	s0,8(sp)
    pi_read_fs_t *fs = (pi_read_fs_t *) file->fs_file.fs->data;
1c001554:	0087a803          	lw	a6,8(a5)
{
1c001558:	8432                	mv	s0,a2
    // Mask interrupt to update file current position and get information
    //int irq = pi_irq_disable();
    
    int real_size = size;
    unsigned int addr = file->addr + file->offset;
1c00155a:	495c                	lw	a5,20(a0)
1c00155c:	4d10                	lw	a2,24(a0)
{
1c00155e:	88ae                	mv	a7,a1
1c001560:	8736                	mv	a4,a3
    unsigned int addr = file->addr + file->offset;
1c001562:	00c785b3          	add	a1,a5,a2
    if(file->offset + size > file->fs_file.size)
1c001566:	4550                	lw	a2,12(a0)
{
1c001568:	c606                	sw	ra,12(sp)
    if(file->offset + size > file->fs_file.size)
1c00156a:	008786b3          	add	a3,a5,s0
1c00156e:	00d67463          	bleu	a3,a2,1c001576 <__pi_read_fs_direct_read_async+0x28>
    {
        real_size = file->fs_file.size - file->offset;
1c001572:	40f60433          	sub	s0,a2,a5
    }
    file->offset += real_size;
1c001576:	97a2                	add	a5,a5,s0
1c001578:	c95c                	sw	a5,20(a0)
    
    //pi_irq_restore(irq);
    
    pi_flash_read_async(fs->flash, addr, (void *) buffer, real_size, event);
1c00157a:	00082503          	lw	a0,0(a6)
1c00157e:	86a2                	mv	a3,s0
1c001580:	8646                	mv	a2,a7
1c001582:	3f9d                	jal	1c0014f8 <pi_flash_read_async>
    
    return real_size;
}
1c001584:	8522                	mv	a0,s0
1c001586:	40b2                	lw	ra,12(sp)
1c001588:	4422                	lw	s0,8(sp)
1c00158a:	0141                	addi	sp,sp,16
1c00158c:	8082                	ret

1c00158e <__pi_read_fs_copy_async>:


static int32_t
__pi_read_fs_copy_async(pi_fs_file_t *_file, uint32_t index, void *buffer, uint32_t size, int32_t ext2loc,
                        pi_task_t *task)
{
1c00158e:	882a                	mv	a6,a0
    pi_read_fs_file_t *file = (pi_read_fs_file_t *) _file;
    pi_read_fs_t *fs = (pi_read_fs_t *) file->fs_file.fs->data;
1c001590:	4108                	lw	a0,0(a0)
    return pi_flash_copy_async(fs->flash, file->addr + index, buffer, size, ext2loc, task);
1c001592:	01882803          	lw	a6,24(a6)
1c001596:	4508                	lw	a0,8(a0)
}

static inline int pi_flash_copy_async(struct pi_device *device, uint32_t pi_flash_addr, void *buffer, uint32_t size, int ext2loc, pi_task_t *task)
{
  pi_flash_api_t *api = (pi_flash_api_t *)device->api;
  return api->copy_async(device, pi_flash_addr, buffer, size, ext2loc, task);
1c001598:	95c2                	add	a1,a1,a6
1c00159a:	4108                	lw	a0,0(a0)
1c00159c:	00052883          	lw	a7,0(a0)
1c0015a0:	0288a303          	lw	t1,40(a7)
1c0015a4:	8302                	jr	t1

1c0015a6 <__pi_read_fs_copy_2d_async>:
}

static int32_t
__pi_read_fs_copy_2d_async(pi_fs_file_t *_file, uint32_t index, void *buffer, uint32_t size, uint32_t stride,
                           uint32_t length, int32_t ext2loc, pi_task_t *task)
{
1c0015a6:	832a                	mv	t1,a0
    pi_read_fs_file_t *file = (pi_read_fs_file_t *) _file;
    pi_read_fs_t *fs = (pi_read_fs_t *) file->fs_file.fs->data;
1c0015a8:	4108                	lw	a0,0(a0)
    return pi_flash_copy_2d_async(fs->flash, file->addr + index, buffer, size, stride, length, ext2loc, task);
1c0015aa:	01832e03          	lw	t3,24(t1)
1c0015ae:	4508                	lw	a0,8(a0)
}

static inline int pi_flash_copy_2d_async(struct pi_device *device, uint32_t pi_flash_addr, void *buffer, uint32_t size, uint32_t stride, uint32_t length, int ext2loc, pi_task_t *task)
{
  pi_flash_api_t *api = (pi_flash_api_t *)device->api;
  return api->copy_2d_async(device, pi_flash_addr, buffer, size, stride, length, ext2loc, task);
1c0015b0:	95f2                	add	a1,a1,t3
1c0015b2:	4108                	lw	a0,0(a0)
1c0015b4:	00052303          	lw	t1,0(a0)
1c0015b8:	02c32303          	lw	t1,44(t1)
1c0015bc:	8302                	jr	t1

1c0015be <rt_event_enqueue>:
  return __builtin_pulp_read_then_spr_bit_clr(reg, val);
1c0015be:	300476f3          	csrrci	a3,mstatus,8
  if (sched->first) {
1c0015c2:	01c02603          	lw	a2,28(zero) # 1c <_l1_preload_size>
  event->next = NULL;
1c0015c6:	00052023          	sw	zero,0(a0)
1c0015ca:	01c00713          	li	a4,28
  if (sched->first) {
1c0015ce:	c619                	beqz	a2,1c0015dc <rt_event_enqueue+0x1e>
    sched->last->next = event;
1c0015d0:	435c                	lw	a5,4(a4)
1c0015d2:	c388                	sw	a0,0(a5)
  sched->last = event;
1c0015d4:	c348                	sw	a0,4(a4)
  __builtin_pulp_spr_write(reg, val);
1c0015d6:	30069073          	csrw	mstatus,a3
}
1c0015da:	8082                	ret
    sched->first = event;
1c0015dc:	00a02e23          	sw	a0,28(zero) # 1c <_l1_preload_size>
1c0015e0:	bfd5                	j	1c0015d4 <rt_event_enqueue+0x16>

1c0015e2 <__pi_fs_free>:
    if(fs != NULL)
1c0015e2:	c91d                	beqz	a0,1c001618 <__pi_fs_free+0x36>
{
1c0015e4:	1141                	addi	sp,sp,-16
1c0015e6:	c422                	sw	s0,8(sp)
1c0015e8:	842a                	mv	s0,a0
        if(fs->pi_fs_info) pmsis_l2_malloc_free(fs->pi_fs_info, fs->pi_fs_l2->pi_fs_size);
1c0015ea:	09c52503          	lw	a0,156(a0)
{
1c0015ee:	c606                	sw	ra,12(sp)
        if(fs->pi_fs_info) pmsis_l2_malloc_free(fs->pi_fs_info, fs->pi_fs_l2->pi_fs_size);
1c0015f0:	c511                	beqz	a0,1c0015fc <__pi_fs_free+0x1a>
1c0015f2:	09842783          	lw	a5,152(s0)
1c0015f6:	438c                	lw	a1,0(a5)
1c0015f8:	1b1020ef          	jal	ra,1c003fa8 <pi_l2_free>
        if(fs->pi_fs_l2) pmsis_l2_malloc_free(fs->pi_fs_l2, sizeof(pi_fs_l2_t));
1c0015fc:	09842503          	lw	a0,152(s0)
1c001600:	c501                	beqz	a0,1c001608 <__pi_fs_free+0x26>
1c001602:	45a1                	li	a1,8
1c001604:	1a5020ef          	jal	ra,1c003fa8 <pi_l2_free>
        pmsis_l2_malloc_free(fs, sizeof(pi_read_fs_t));
1c001608:	8522                	mv	a0,s0
}
1c00160a:	4422                	lw	s0,8(sp)
1c00160c:	40b2                	lw	ra,12(sp)
        pmsis_l2_malloc_free(fs, sizeof(pi_read_fs_t));
1c00160e:	1b800593          	li	a1,440
}
1c001612:	0141                	addi	sp,sp,16
        pmsis_l2_malloc_free(fs, sizeof(pi_read_fs_t));
1c001614:	1950206f          	j	1c003fa8 <pi_l2_free>
1c001618:	8082                	ret

1c00161a <__pi_read_fs_unmount>:
    __pi_fs_free(fs);
1c00161a:	4508                	lw	a0,8(a0)
1c00161c:	b7d9                	j	1c0015e2 <__pi_fs_free>

1c00161e <__pi_read_fs_open>:
{
1c00161e:	1101                	addi	sp,sp,-32
1c001620:	ca26                	sw	s1,20(sp)
1c001622:	c452                	sw	s4,8(sp)
1c001624:	c256                	sw	s5,4(sp)
1c001626:	ce06                	sw	ra,28(sp)
1c001628:	cc22                	sw	s0,24(sp)
1c00162a:	c84a                	sw	s2,16(sp)
1c00162c:	c64e                	sw	s3,12(sp)
1c00162e:	c05a                	sw	s6,0(sp)
1c001630:	8a2a                	mv	s4,a0
1c001632:	8aae                	mv	s5,a1
    pi_read_fs_t *fs = (pi_read_fs_t *) device->data;
1c001634:	4504                	lw	s1,8(a0)
    if(flags == PI_FS_FLAGS_WRITE)
1c001636:	08163f63          	p.bneimm	a2,1,1c0016d4 <__pi_read_fs_open+0xb6>
        if(fs->last_created_file)
1c00163a:	12c4a783          	lw	a5,300(s1)
1c00163e:	c399                	beqz	a5,1c001644 <__pi_read_fs_open+0x26>
    return NULL;
1c001640:	4501                	li	a0,0
1c001642:	a8bd                	j	1c0016c0 <__pi_read_fs_open+0xa2>
        file = pmsis_l2_malloc(sizeof(pi_read_fs_file_t));
1c001644:	0c000513          	li	a0,192
1c001648:	155020ef          	jal	ra,1c003f9c <pi_l2_malloc>
1c00164c:	842a                	mv	s0,a0
        if(file == NULL) return NULL;
1c00164e:	d96d                	beqz	a0,1c001640 <__pi_read_fs_open+0x22>
        int str_len = strlen(file_name);
1c001650:	8556                	mv	a0,s5
1c001652:	113040ef          	jal	ra,1c005f64 <strlen>
        int header_size = ((str_len + 7) & ~0x7) + 12;
1c001656:	00750913          	addi	s2,a0,7
1c00165a:	c4093933          	p.bclr	s2,s2,2,0
1c00165e:	0931                	addi	s2,s2,12
        int str_len = strlen(file_name);
1c001660:	89aa                	mv	s3,a0
        uint8_t *header = pmsis_l2_malloc(header_size);
1c001662:	854a                	mv	a0,s2
1c001664:	139020ef          	jal	ra,1c003f9c <pi_l2_malloc>
        if(header == NULL)
1c001668:	e519                	bnez	a0,1c001676 <__pi_read_fs_open+0x58>
    pmsis_l2_malloc_free(file, sizeof(pi_read_fs_file_t));
1c00166a:	0c000593          	li	a1,192
1c00166e:	8522                	mv	a0,s0
1c001670:	139020ef          	jal	ra,1c003fa8 <pi_l2_free>
1c001674:	b7f1                	j	1c001640 <__pi_read_fs_open+0x22>
        file->header = header;
1c001676:	0aa42a23          	sw	a0,180(s0)
        file->header_size = header_size;
1c00167a:	0b242c23          	sw	s2,184(s0)
        memcpy(&file->header[12], file_name, str_len);
1c00167e:	864e                	mv	a2,s3
1c001680:	85d6                	mv	a1,s5
1c001682:	0531                	addi	a0,a0,12
1c001684:	107040ef          	jal	ra,1c005f8a <memcpy>
        *(uint32_t *) &file->header[8] = str_len;
1c001688:	0b442783          	lw	a5,180(s0)
1c00168c:	0137a423          	sw	s3,8(a5)
        file->addr = fs->free_flash_area + header_size;
1c001690:	1284a783          	lw	a5,296(s1)
        file->fs_file.size = 0;
1c001694:	00042623          	sw	zero,12(s0)
        file->offset = 0;
1c001698:	00042a23          	sw	zero,20(s0)
        file->addr = fs->free_flash_area + header_size;
1c00169c:	993e                	add	s2,s2,a5
        file->cache_addr = -1;
1c00169e:	57fd                	li	a5,-1
        file->addr = fs->free_flash_area + header_size;
1c0016a0:	01242c23          	sw	s2,24(s0)
        file->cache_addr = -1;
1c0016a4:	0af42823          	sw	a5,176(s0)
        fs->last_created_file = file;
1c0016a8:	1284a623          	sw	s0,300(s1)
    file->fs_file.api = (pi_fs_api_t *) device->api;
1c0016ac:	000a2783          	lw	a5,0(s4)
    file->fs_file.fs_data = &fs->fs_data;
1c0016b0:	13048493          	addi	s1,s1,304
    file->fs_file.data = file;
1c0016b4:	c400                	sw	s0,8(s0)
    file->fs_file.api = (pi_fs_api_t *) device->api;
1c0016b6:	c05c                	sw	a5,4(s0)
    file->fs_file.fs = device;
1c0016b8:	01442023          	sw	s4,0(s0)
    file->fs_file.fs_data = &fs->fs_data;
1c0016bc:	c804                	sw	s1,16(s0)
    return &file->fs_file;
1c0016be:	8522                	mv	a0,s0
}
1c0016c0:	40f2                	lw	ra,28(sp)
1c0016c2:	4462                	lw	s0,24(sp)
1c0016c4:	44d2                	lw	s1,20(sp)
1c0016c6:	4942                	lw	s2,16(sp)
1c0016c8:	49b2                	lw	s3,12(sp)
1c0016ca:	4a22                	lw	s4,8(sp)
1c0016cc:	4a92                	lw	s5,4(sp)
1c0016ce:	4b02                	lw	s6,0(sp)
1c0016d0:	6105                	addi	sp,sp,32
1c0016d2:	8082                	ret
        unsigned int *pi_fs_info = fs->pi_fs_info;
1c0016d4:	09c4a783          	lw	a5,156(s1)
        for (i = 0; i < nb_comps; i++)
1c0016d8:	4981                	li	s3,0
        pi_fs_desc_t *desc = NULL;
1c0016da:	4901                	li	s2,0
        int nb_comps = *pi_fs_info++;
1c0016dc:	0007ab03          	lw	s6,0(a5)
1c0016e0:	00478413          	addi	s0,a5,4
        for (i = 0; i < nb_comps; i++)
1c0016e4:	0569c163          	blt	s3,s6,1c001726 <__pi_read_fs_open+0x108>
        if(i == nb_comps) goto error;
1c0016e8:	f5698ce3          	beq	s3,s6,1c001640 <__pi_read_fs_open+0x22>
        file = pmsis_l2_malloc(sizeof(pi_read_fs_file_t));
1c0016ec:	0c000513          	li	a0,192
1c0016f0:	0ad020ef          	jal	ra,1c003f9c <pi_l2_malloc>
1c0016f4:	842a                	mv	s0,a0
        if(file == NULL) goto error;
1c0016f6:	d529                	beqz	a0,1c001640 <__pi_read_fs_open+0x22>
        file->cache = pmsis_l2_malloc(READ_FS_THRESHOLD_BLOCK_FULL);
1c0016f8:	08800513          	li	a0,136
1c0016fc:	0a1020ef          	jal	ra,1c003f9c <pi_l2_malloc>
1c001700:	0aa42623          	sw	a0,172(s0)
        if(file->cache == NULL) goto error1;
1c001704:	d13d                	beqz	a0,1c00166a <__pi_read_fs_open+0x4c>
        file->fs_file.size = desc->size;
1c001706:	00492783          	lw	a5,4(s2)
        file->addr = desc->addr + fs->partition_offset;
1c00170a:	4498                	lw	a4,8(s1)
        file->header = NULL;
1c00170c:	0a042a23          	sw	zero,180(s0)
        file->fs_file.size = desc->size;
1c001710:	c45c                	sw	a5,12(s0)
        file->addr = desc->addr + fs->partition_offset;
1c001712:	00092783          	lw	a5,0(s2)
        file->offset = 0;
1c001716:	00042a23          	sw	zero,20(s0)
        file->addr = desc->addr + fs->partition_offset;
1c00171a:	97ba                	add	a5,a5,a4
1c00171c:	cc1c                	sw	a5,24(s0)
        file->cache_addr = -1;
1c00171e:	57fd                	li	a5,-1
1c001720:	0af42823          	sw	a5,176(s0)
1c001724:	b761                	j	1c0016ac <__pi_read_fs_open+0x8e>
            if(strcmp(desc->name, file_name) == 0) break;
1c001726:	85d6                	mv	a1,s5
1c001728:	00c40513          	addi	a0,s0,12
1c00172c:	005040ef          	jal	ra,1c005f30 <strcmp>
1c001730:	c901                	beqz	a0,1c001740 <__pi_read_fs_open+0x122>
            pi_fs_info = (unsigned int *) ((unsigned int) pi_fs_info + sizeof(pi_fs_desc_t) + desc->path_size);
1c001732:	441c                	lw	a5,8(s0)
        for (i = 0; i < nb_comps; i++)
1c001734:	8922                	mv	s2,s0
1c001736:	0985                	addi	s3,s3,1
            pi_fs_info = (unsigned int *) ((unsigned int) pi_fs_info + sizeof(pi_fs_desc_t) + desc->path_size);
1c001738:	97a2                	add	a5,a5,s0
1c00173a:	00c78413          	addi	s0,a5,12
1c00173e:	b75d                	j	1c0016e4 <__pi_read_fs_open+0xc6>
1c001740:	8922                	mv	s2,s0
1c001742:	b76d                	j	1c0016ec <__pi_read_fs_open+0xce>

1c001744 <__pi_fs_mount_step>:
{
1c001744:	7179                	addi	sp,sp,-48
1c001746:	d226                	sw	s1,36(sp)
    switch (fs->mount_step)
1c001748:	09052483          	lw	s1,144(a0)
{
1c00174c:	d422                	sw	s0,40(sp)
1c00174e:	d606                	sw	ra,44(sp)
1c001750:	d04a                	sw	s2,32(sp)
    const pi_partition_table_t partition_table = NULL;
1c001752:	ce02                	sw	zero,28(sp)
{
1c001754:	842a                	mv	s0,a0
    switch (fs->mount_step)
1c001756:	0834a463          	p.beqimm	s1,3,1c0017de <__pi_fs_mount_step+0x9a>
1c00175a:	0c44a963          	p.beqimm	s1,4,1c00182c <__pi_fs_mount_step+0xe8>
1c00175e:	0614ba63          	p.bneimm	s1,1,1c0017d2 <__pi_fs_mount_step+0x8e>
            rc = pi_partition_table_load(fs->flash, &partition_table);
1c001762:	4108                	lw	a0,0(a0)
1c001764:	086c                	addi	a1,sp,28
1c001766:	77b000ef          	jal	ra,1c0026e0 <pi_partition_table_load>
            if(rc != PI_OK) goto error;
1c00176a:	ed09                	bnez	a0,1c001784 <__pi_fs_mount_step+0x40>
            readfs_partition = pi_partition_find_first(partition_table, PI_PARTITION_TYPE_DATA,
1c00176c:	4054                	lw	a3,4(s0)
1c00176e:	4572                	lw	a0,28(sp)
1c001770:	08100613          	li	a2,129
1c001774:	4585                	li	a1,1
1c001776:	76f000ef          	jal	ra,1c0026e4 <pi_partition_find_first>
1c00177a:	892a                	mv	s2,a0
            if(readfs_partition == NULL)
1c00177c:	e901                	bnez	a0,1c00178c <__pi_fs_mount_step+0x48>
                pi_partition_table_free(partition_table);
1c00177e:	4572                	lw	a0,28(sp)
1c001780:	75f000ef          	jal	ra,1c0026de <pi_partition_table_free>
    fs->error = -1;
1c001784:	57fd                	li	a5,-1
1c001786:	12f42223          	sw	a5,292(s0)
1c00178a:	a0c9                	j	1c00184c <__pi_fs_mount_step+0x108>
            fs->partition_offset = pi_partition_get_flash_offset(readfs_partition);
1c00178c:	749000ef          	jal	ra,1c0026d4 <pi_partition_get_flash_offset>

/// @cond IMPLEM

static inline pi_err_t pi_partition_close(const pi_partition_t *partition)
{
    pi_l2_free((pi_partition_t *) partition, sizeof(pi_partition_t));
1c001790:	02800593          	li	a1,40
1c001794:	c408                	sw	a0,8(s0)
1c001796:	854a                	mv	a0,s2
1c001798:	011020ef          	jal	ra,1c003fa8 <pi_l2_free>
            pi_partition_table_free(partition_table);
1c00179c:	4572                	lw	a0,28(sp)
1c00179e:	741000ef          	jal	ra,1c0026de <pi_partition_table_free>
            fs->mount_step++;
1c0017a2:	09042783          	lw	a5,144(s0)
            pi_flash_read_async(fs->flash, fs->partition_offset, &fs->pi_fs_l2->pi_fs_size, 8,
1c0017a6:	4008                	lw	a0,0(s0)
1c0017a8:	440c                	lw	a1,8(s0)
            fs->mount_step++;
1c0017aa:	0789                	addi	a5,a5,2
1c0017ac:	08f42823          	sw	a5,144(s0)
            pi_flash_read_async(fs->flash, fs->partition_offset, &fs->pi_fs_l2->pi_fs_size, 8,
1c0017b0:	09842603          	lw	a2,152(s0)


struct pi_task *pi_task_callback(struct pi_task *task, void (*callback)(void*), void *arg)
{
  task->id = PI_TASK_CALLBACK_ID;
  task->arg[0] = (uint32_t)callback;
1c0017b4:	1c0017b7          	lui	a5,0x1c001
1c0017b8:	74478793          	addi	a5,a5,1860 # 1c001744 <__pi_fs_mount_step>
  task->id = PI_TASK_CALLBACK_ID;
1c0017bc:	02042223          	sw	zero,36(s0)
  task->arg[0] = (uint32_t)callback;
1c0017c0:	c81c                	sw	a5,16(s0)
  task->arg[1] = (uint32_t)arg;
1c0017c2:	c840                	sw	s0,20(s0)
  task->implem.keep = 1;
1c0017c4:	d844                	sw	s1,52(s0)
  task->done = 0;
1c0017c6:	02040023          	sb	zero,32(s0)
1c0017ca:	00c40713          	addi	a4,s0,12
1c0017ce:	46a1                	li	a3,8
            pi_flash_read_async(fs->flash, pi_fs_offset + 8, (void *) fs->pi_fs_info, pi_fs_size,
1c0017d0:	3325                	jal	1c0014f8 <pi_flash_read_async>
}
1c0017d2:	50b2                	lw	ra,44(sp)
1c0017d4:	5422                	lw	s0,40(sp)
1c0017d6:	5492                	lw	s1,36(sp)
1c0017d8:	5902                	lw	s2,32(sp)
1c0017da:	6145                	addi	sp,sp,48
1c0017dc:	8082                	ret
            int pi_fs_size = ((fs->pi_fs_l2->pi_fs_size + 7) & ~7);
1c0017de:	09852783          	lw	a5,152(a0)
            int pi_fs_offset = fs->partition_offset;
1c0017e2:	4504                	lw	s1,8(a0)
            int pi_fs_size = ((fs->pi_fs_l2->pi_fs_size + 7) & ~7);
1c0017e4:	4394                	lw	a3,0(a5)
1c0017e6:	069d                	addi	a3,a3,7
1c0017e8:	c406b6b3          	p.bclr	a3,a3,2,0
            fs->pi_fs_info = pmsis_l2_malloc(pi_fs_size);
1c0017ec:	8536                	mv	a0,a3
1c0017ee:	c636                	sw	a3,12(sp)
1c0017f0:	7ac020ef          	jal	ra,1c003f9c <pi_l2_malloc>
1c0017f4:	08a42e23          	sw	a0,156(s0)
1c0017f8:	862a                	mv	a2,a0
            if(fs->pi_fs_info == NULL)
1c0017fa:	46b2                	lw	a3,12(sp)
1c0017fc:	d541                	beqz	a0,1c001784 <__pi_fs_mount_step+0x40>
            fs->mount_step++;
1c0017fe:	09042783          	lw	a5,144(s0)
            pi_flash_read_async(fs->flash, pi_fs_offset + 8, (void *) fs->pi_fs_info, pi_fs_size,
1c001802:	4008                	lw	a0,0(s0)
  task->id = PI_TASK_CALLBACK_ID;
1c001804:	02042223          	sw	zero,36(s0)
            fs->mount_step++;
1c001808:	0785                	addi	a5,a5,1
1c00180a:	08f42823          	sw	a5,144(s0)
  task->arg[0] = (uint32_t)callback;
1c00180e:	1c0017b7          	lui	a5,0x1c001
1c001812:	74478793          	addi	a5,a5,1860 # 1c001744 <__pi_fs_mount_step>
1c001816:	c81c                	sw	a5,16(s0)
  task->implem.keep = 1;
1c001818:	4785                	li	a5,1
  task->arg[1] = (uint32_t)arg;
1c00181a:	c840                	sw	s0,20(s0)
  task->implem.keep = 1;
1c00181c:	d85c                	sw	a5,52(s0)
1c00181e:	02040023          	sb	zero,32(s0)
            pi_flash_read_async(fs->flash, pi_fs_offset + 8, (void *) fs->pi_fs_info, pi_fs_size,
1c001822:	00c40713          	addi	a4,s0,12
1c001826:	00848593          	addi	a1,s1,8
1c00182a:	b75d                	j	1c0017d0 <__pi_fs_mount_step+0x8c>
            unsigned int *pi_fs_info = fs->pi_fs_info;
1c00182c:	09c52703          	lw	a4,156(a0)
            for (i = 0; i < nb_comps; i++)
1c001830:	4681                	li	a3,0
            int nb_comps = *pi_fs_info++;
1c001832:	00470793          	addi	a5,a4,4
1c001836:	430c                	lw	a1,0(a4)
            pi_fs_desc_t *desc = NULL;
1c001838:	4701                	li	a4,0
            for (i = 0; i < nb_comps; i++)
1c00183a:	00b6cd63          	blt	a3,a1,1c001854 <__pi_fs_mount_step+0x110>
            if(desc == NULL)
1c00183e:	e315                	bnez	a4,1c001862 <__pi_fs_mount_step+0x11e>
                fs->free_flash_area = desc->addr + desc->size;
1c001840:	12f42423          	sw	a5,296(s0)
            fs->last_created_file = NULL;
1c001844:	12042623          	sw	zero,300(s0)
            fs->error = 0;
1c001848:	12042223          	sw	zero,292(s0)
  rt_event_enqueue(task);
1c00184c:	08c42503          	lw	a0,140(s0)
1c001850:	33bd                	jal	1c0015be <rt_event_enqueue>
1c001852:	b741                	j	1c0017d2 <__pi_fs_mount_step+0x8e>
                pi_fs_info = (unsigned int *) ((unsigned int) pi_fs_info + sizeof(pi_fs_desc_t) + desc->path_size);
1c001854:	4790                	lw	a2,8(a5)
            for (i = 0; i < nb_comps; i++)
1c001856:	873e                	mv	a4,a5
1c001858:	0685                	addi	a3,a3,1
                pi_fs_info = (unsigned int *) ((unsigned int) pi_fs_info + sizeof(pi_fs_desc_t) + desc->path_size);
1c00185a:	963e                	add	a2,a2,a5
1c00185c:	00c60793          	addi	a5,a2,12 # 300c <__rt_stack_size+0x280c>
1c001860:	bfe9                	j	1c00183a <__pi_fs_mount_step+0xf6>
                fs->free_flash_area = desc->addr + desc->size;
1c001862:	431c                	lw	a5,0(a4)
1c001864:	4358                	lw	a4,4(a4)
1c001866:	97ba                	add	a5,a5,a4
1c001868:	bfe1                	j	1c001840 <__pi_fs_mount_step+0xfc>

1c00186a <__pi_read_fs_close>:
    if(file->header == NULL)
1c00186a:	0b452603          	lw	a2,180(a0)
{
1c00186e:	1141                	addi	sp,sp,-16
1c001870:	c422                	sw	s0,8(sp)
1c001872:	c606                	sw	ra,12(sp)
1c001874:	842a                	mv	s0,a0
    if(file->header == NULL)
1c001876:	ee19                	bnez	a2,1c001894 <__pi_read_fs_close+0x2a>
        pmsis_l2_malloc_free(file->cache, READ_FS_THRESHOLD_BLOCK_FULL);
1c001878:	0ac52503          	lw	a0,172(a0)
1c00187c:	08800593          	li	a1,136
        pi_l2_free((void *) file->header, file->header_size);
1c001880:	728020ef          	jal	ra,1c003fa8 <pi_l2_free>
        pi_l2_free((void *) file, sizeof(pi_read_fs_file_t));
1c001884:	8522                	mv	a0,s0
}
1c001886:	4422                	lw	s0,8(sp)
1c001888:	40b2                	lw	ra,12(sp)
        pi_l2_free((void *) file, sizeof(pi_read_fs_file_t));
1c00188a:	0c000593          	li	a1,192
}
1c00188e:	0141                	addi	sp,sp,16
        pi_l2_free((void *) file, sizeof(pi_read_fs_file_t));
1c001890:	7180206f          	j	1c003fa8 <pi_l2_free>
        pi_read_fs_t *fs = (pi_read_fs_t *) file->fs_file.fs->data;
1c001894:	411c                	lw	a5,0(a0)
        *(uint32_t *) &file->header[0] = file->addr;
1c001896:	4d0c                	lw	a1,24(a0)
        *(uint32_t *) &file->header[4] = file->fs_file.size;
1c001898:	4558                	lw	a4,12(a0)
        pi_read_fs_t *fs = (pi_read_fs_t *) file->fs_file.fs->data;
1c00189a:	479c                	lw	a5,8(a5)
  api->program(device, pi_flash_addr, data, size);
1c00189c:	0b842683          	lw	a3,184(s0)
        *(uint32_t *) &file->header[0] = file->addr;
1c0018a0:	c20c                	sw	a1,0(a2)
        pi_flash_program(fs->flash, file->addr - file->header_size, (void *) file->header, file->header_size);
1c0018a2:	4388                	lw	a0,0(a5)
1c0018a4:	8d95                	sub	a1,a1,a3
        *(uint32_t *) &file->header[4] = file->fs_file.size;
1c0018a6:	c258                	sw	a4,4(a2)
1c0018a8:	411c                	lw	a5,0(a0)
1c0018aa:	5bdc                	lw	a5,52(a5)
1c0018ac:	9782                	jalr	a5
        pi_l2_free((void *) file->header, file->header_size);
1c0018ae:	0b842583          	lw	a1,184(s0)
1c0018b2:	0b442503          	lw	a0,180(s0)
1c0018b6:	b7e9                	j	1c001880 <__pi_read_fs_close+0x16>

1c0018b8 <__pi_read_fs_mount>:
{
1c0018b8:	7175                	addi	sp,sp,-144
1c0018ba:	c326                	sw	s1,132(sp)
1c0018bc:	c14a                	sw	s2,128(sp)
1c0018be:	84aa                	mv	s1,a0
    struct pi_fs_conf *conf = (struct pi_fs_conf *) device->config;
1c0018c0:	00452903          	lw	s2,4(a0)
    pi_read_fs_t *fs = pmsis_l2_malloc(sizeof(pi_read_fs_t));
1c0018c4:	1b800513          	li	a0,440
{
1c0018c8:	c522                	sw	s0,136(sp)
1c0018ca:	c706                	sw	ra,140(sp)
    pi_read_fs_t *fs = pmsis_l2_malloc(sizeof(pi_read_fs_t));
1c0018cc:	6d0020ef          	jal	ra,1c003f9c <pi_l2_malloc>
1c0018d0:	842a                	mv	s0,a0
    if(fs == NULL) goto error;
1c0018d2:	e911                	bnez	a0,1c0018e6 <__pi_read_fs_mount+0x2e>
    __pi_fs_free(fs);
1c0018d4:	8522                	mv	a0,s0
1c0018d6:	3331                	jal	1c0015e2 <__pi_fs_free>
    return -1;
1c0018d8:	557d                	li	a0,-1
}
1c0018da:	40ba                	lw	ra,140(sp)
1c0018dc:	442a                	lw	s0,136(sp)
1c0018de:	449a                	lw	s1,132(sp)
1c0018e0:	490a                	lw	s2,128(sp)
1c0018e2:	6149                	addi	sp,sp,144
1c0018e4:	8082                	ret
    fs->flash = conf->flash;
1c0018e6:	00492783          	lw	a5,4(s2)
    fs->pi_fs_l2 = NULL;
1c0018ea:	08052c23          	sw	zero,152(a0)
    fs->pi_fs_info = NULL;
1c0018ee:	08052e23          	sw	zero,156(a0)
    fs->flash = conf->flash;
1c0018f2:	c11c                	sw	a5,0(a0)
    fs->fs_data.cluster_reqs_first = NULL;
1c0018f4:	12052823          	sw	zero,304(a0)
    fs->pi_fs_l2 = pmsis_l2_malloc(sizeof(pi_fs_l2_t));
1c0018f8:	4521                	li	a0,8
1c0018fa:	6a2020ef          	jal	ra,1c003f9c <pi_l2_malloc>
1c0018fe:	08a42c23          	sw	a0,152(s0)
    if(fs->pi_fs_l2 == NULL) goto error;
1c001902:	d969                	beqz	a0,1c0018d4 <__pi_read_fs_mount+0x1c>
    fs->mount_step = 1;
1c001904:	4785                	li	a5,1
1c001906:	08f42823          	sw	a5,144(s0)
  task->id = PI_TASK_NONE_ID;
1c00190a:	cc3e                	sw	a5,24(sp)
  task->implem.keep = 1;
1c00190c:	d43e                	sw	a5,40(sp)
1c00190e:	00010a23          	sb	zero,20(sp)
    fs->pending_event = pi_task_block(&task);
1c001912:	00010793          	mv	a5,sp
1c001916:	08f42623          	sw	a5,140(s0)
    fs->partition_name = conf->partition_name;
1c00191a:	00892783          	lw	a5,8(s2)
  task->arg[0] = (uint32_t)0;
1c00191e:	c202                	sw	zero,4(sp)
    fs->pi_fs_info = NULL;
1c001920:	08042e23          	sw	zero,156(s0)
    fs->partition_name = conf->partition_name;
1c001924:	c05c                	sw	a5,4(s0)
    device->data = (void *) fs;
1c001926:	c480                	sw	s0,8(s1)
    __pi_fs_mount_step((void *) fs);
1c001928:	8522                	mv	a0,s0
1c00192a:	3d29                	jal	1c001744 <__pi_fs_mount_step>
  while(!task->done)
1c00192c:	01410783          	lb	a5,20(sp)
1c001930:	c791                	beqz	a5,1c00193c <__pi_read_fs_mount+0x84>
    if(fs->error)
1c001932:	12442783          	lw	a5,292(s0)
1c001936:	ffd9                	bnez	a5,1c0018d4 <__pi_read_fs_mount+0x1c>
    return 0;
1c001938:	4501                	li	a0,0
1c00193a:	b745                	j	1c0018da <__pi_read_fs_mount+0x22>
  return __builtin_pulp_read_then_spr_bit_clr(reg, val);
1c00193c:	30047973          	csrrci	s2,mstatus,8
  __rt_event_execute(__rt_event_get_current_sched(), wait);
1c001940:	4585                	li	a1,1
1c001942:	01c00513          	li	a0,28
1c001946:	3da020ef          	jal	ra,1c003d20 <__rt_event_execute>
  __builtin_pulp_spr_write(reg, val);
1c00194a:	30091073          	csrw	mstatus,s2
1c00194e:	bff9                	j	1c00192c <__pi_read_fs_mount+0x74>

1c001950 <__pi_fs_read_cached>:
{
1c001950:	88ae                	mv	a7,a1
    if(addr < file->cache_addr || addr + size > file->cache_addr + READ_FS_THRESHOLD_BLOCK_FULL)
1c001952:	0b052583          	lw	a1,176(a0)
{
1c001956:	1141                	addi	sp,sp,-16
1c001958:	c226                	sw	s1,4(sp)
1c00195a:	c606                	sw	ra,12(sp)
1c00195c:	c422                	sw	s0,8(sp)
1c00195e:	84ba                	mv	s1,a4
1c001960:	0ac52803          	lw	a6,172(a0)
    if(addr < file->cache_addr || addr + size > file->cache_addr + READ_FS_THRESHOLD_BLOCK_FULL)
1c001964:	00b66f63          	bltu	a2,a1,1c001982 <__pi_fs_read_cached+0x32>
    if(size > READ_FS_THRESHOLD_BLOCK_FULL - (addr & 0x7)) size = READ_FS_THRESHOLD_BLOCK_FULL - (addr & 0x7);
1c001968:	f8363733          	p.bclr	a4,a2,28,3
1c00196c:	08800413          	li	s0,136
1c001970:	8c19                	sub	s0,s0,a4
1c001972:	04d45433          	p.minu	s0,s0,a3
    if(addr < file->cache_addr || addr + size > file->cache_addr + READ_FS_THRESHOLD_BLOCK_FULL)
1c001976:	008606b3          	add	a3,a2,s0
1c00197a:	08858713          	addi	a4,a1,136 # 3088 <__rt_stack_size+0x2888>
1c00197e:	02d77963          	bleu	a3,a4,1c0019b0 <__pi_fs_read_cached+0x60>
    pi_read_fs_t *fs = (pi_read_fs_t *) file->fs_file.fs->data;
1c001982:	4118                	lw	a4,0(a0)
        file->cache_addr = addr & ~0x7;
1c001984:	c40635b3          	p.bclr	a1,a2,2,0
    pi_flash_read_async(fs->flash, addr, (void *) buffer, size, event);
1c001988:	08800693          	li	a3,136
    pi_read_fs_t *fs = (pi_read_fs_t *) file->fs_file.fs->data;
1c00198c:	00872883          	lw	a7,8(a4)
        file->cache_addr = addr & ~0x7;
1c001990:	0ab52823          	sw	a1,176(a0)
    pi_flash_read_async(fs->flash, addr, (void *) buffer, size, event);
1c001994:	873e                	mv	a4,a5
1c001996:	0008a503          	lw	a0,0(a7)
1c00199a:	8642                	mv	a2,a6
        return 0;
1c00199c:	4401                	li	s0,0
    pi_flash_read_async(fs->flash, addr, (void *) buffer, size, event);
1c00199e:	3ea9                	jal	1c0014f8 <pi_flash_read_async>
        *pending = 1;
1c0019a0:	4785                	li	a5,1
1c0019a2:	c09c                	sw	a5,0(s1)
}
1c0019a4:	8522                	mv	a0,s0
1c0019a6:	40b2                	lw	ra,12(sp)
1c0019a8:	4422                	lw	s0,8(sp)
1c0019aa:	4492                	lw	s1,4(sp)
1c0019ac:	0141                	addi	sp,sp,16
1c0019ae:	8082                	ret
    memcpy((void *) buffer, &file->cache[addr - file->cache_addr], size);
1c0019b0:	40b605b3          	sub	a1,a2,a1
1c0019b4:	95c2                	add	a1,a1,a6
1c0019b6:	8622                	mv	a2,s0
1c0019b8:	8546                	mv	a0,a7
1c0019ba:	5d0040ef          	jal	ra,1c005f8a <memcpy>
    return __pi_fs_read_from_cache(file, buffer, addr, size);
1c0019be:	b7dd                	j	1c0019a4 <__pi_fs_read_cached+0x54>

1c0019c0 <__pi_fs_read>:
{
1c0019c0:	7179                	addi	sp,sp,-48
1c0019c2:	d422                	sw	s0,40(sp)
1c0019c4:	d226                	sw	s1,36(sp)
1c0019c6:	d04a                	sw	s2,32(sp)
1c0019c8:	ca56                	sw	s5,20(sp)
1c0019ca:	c85a                	sw	s6,16(sp)
1c0019cc:	d606                	sw	ra,44(sp)
1c0019ce:	8b3e                	mv	s6,a5
1c0019d0:	ce4e                	sw	s3,28(sp)
1c0019d2:	cc52                	sw	s4,24(sp)
1c0019d4:	c65e                	sw	s7,12(sp)
    int use_cache = size <= READ_FS_THRESHOLD || (addr & 0x7) != (buffer & 0x7);
1c0019d6:	47c1                	li	a5,16
{
1c0019d8:	892e                	mv	s2,a1
1c0019da:	8432                	mv	s0,a2
1c0019dc:	84b6                	mv	s1,a3
1c0019de:	8aba                	mv	s5,a4
    int use_cache = size <= READ_FS_THRESHOLD || (addr & 0x7) != (buffer & 0x7);
1c0019e0:	04d7df63          	ble	a3,a5,1c001a3e <__pi_fs_read+0x7e>
1c0019e4:	00b647b3          	xor	a5,a2,a1
1c0019e8:	f837b7b3          	p.bclr	a5,a5,28,3
1c0019ec:	eba9                	bnez	a5,1c001a3e <__pi_fs_read+0x7e>
    if(size <= READ_FS_THRESHOLD_BLOCK_FULL &&
1c0019ee:	08800793          	li	a5,136
1c0019f2:	06d7d663          	ble	a3,a5,1c001a5e <__pi_fs_read+0x9e>
    pi_read_fs_t *fs = (pi_read_fs_t *) file->fs_file.fs->data;
1c0019f6:	411c                	lw	a5,0(a0)
1c0019f8:	0087ab83          	lw	s7,8(a5)
    int prefix_size = addr & 0x7;
1c0019fc:	f83437b3          	p.bclr	a5,s0,28,3
    if(prefix_size)
1c001a00:	c395                	beqz	a5,1c001a24 <__pi_fs_read+0x64>
        prefix_size = 4 - prefix_size;
1c001a02:	4991                	li	s3,4
1c001a04:	40f989b3          	sub	s3,s3,a5
        int read_size = __pi_fs_read_cached(file, buffer, addr, prefix_size, pending, event);
1c001a08:	8756                	mv	a4,s5
1c001a0a:	87da                	mv	a5,s6
1c001a0c:	86ce                	mv	a3,s3
1c001a0e:	8622                	mv	a2,s0
1c001a10:	85ca                	mv	a1,s2
1c001a12:	3f3d                	jal	1c001950 <__pi_fs_read_cached>
        if(*pending) return read_size;
1c001a14:	000aa783          	lw	a5,0(s5)
        int read_size = __pi_fs_read_cached(file, buffer, addr, prefix_size, pending, event);
1c001a18:	8a2a                	mv	s4,a0
        if(*pending) return read_size;
1c001a1a:	e7b5                	bnez	a5,1c001a86 <__pi_fs_read+0xc6>
        addr += prefix_size;
1c001a1c:	944e                	add	s0,s0,s3
        buffer += prefix_size;
1c001a1e:	994e                	add	s2,s2,s3
        size -= prefix_size;
1c001a20:	413484b3          	sub	s1,s1,s3
    pi_flash_read_async(fs->flash, addr, (void *) buffer, size, event);
1c001a24:	000ba503          	lw	a0,0(s7)
    int block_size = size & ~0x7;
1c001a28:	c404ba33          	p.bclr	s4,s1,2,0
    pi_flash_read_async(fs->flash, addr, (void *) buffer, size, event);
1c001a2c:	875a                	mv	a4,s6
1c001a2e:	86d2                	mv	a3,s4
1c001a30:	864a                	mv	a2,s2
1c001a32:	85a2                	mv	a1,s0
1c001a34:	34d1                	jal	1c0014f8 <pi_flash_read_async>
    *pending = 1;
1c001a36:	4785                	li	a5,1
1c001a38:	00faa023          	sw	a5,0(s5)
    return block_size;
1c001a3c:	a0a9                	j	1c001a86 <__pi_fs_read+0xc6>
    if(use_cache) return __pi_fs_read_cached(file, buffer, addr, size, pending, event);
1c001a3e:	8622                	mv	a2,s0
}
1c001a40:	5422                	lw	s0,40(sp)
1c001a42:	50b2                	lw	ra,44(sp)
1c001a44:	49f2                	lw	s3,28(sp)
1c001a46:	4a62                	lw	s4,24(sp)
1c001a48:	4bb2                	lw	s7,12(sp)
    if(use_cache) return __pi_fs_read_cached(file, buffer, addr, size, pending, event);
1c001a4a:	87da                	mv	a5,s6
1c001a4c:	8756                	mv	a4,s5
}
1c001a4e:	4b42                	lw	s6,16(sp)
1c001a50:	4ad2                	lw	s5,20(sp)
    if(use_cache) return __pi_fs_read_cached(file, buffer, addr, size, pending, event);
1c001a52:	86a6                	mv	a3,s1
1c001a54:	85ca                	mv	a1,s2
}
1c001a56:	5492                	lw	s1,36(sp)
1c001a58:	5902                	lw	s2,32(sp)
1c001a5a:	6145                	addi	sp,sp,48
    if(use_cache) return __pi_fs_read_cached(file, buffer, addr, size, pending, event);
1c001a5c:	bdd5                	j	1c001950 <__pi_fs_read_cached>
       addr >= file->cache_addr &&
1c001a5e:	0b052583          	lw	a1,176(a0)
    if(size <= READ_FS_THRESHOLD_BLOCK_FULL &&
1c001a62:	f8b66ae3          	bltu	a2,a1,1c0019f6 <__pi_fs_read+0x36>
       addr + size < file->cache_addr + READ_FS_THRESHOLD_BLOCK_FULL)
1c001a66:	00c687b3          	add	a5,a3,a2
1c001a6a:	08858713          	addi	a4,a1,136
       addr >= file->cache_addr &&
1c001a6e:	f8e7f4e3          	bleu	a4,a5,1c0019f6 <__pi_fs_read+0x36>
    memcpy((void *) buffer, &file->cache[addr - file->cache_addr], size);
1c001a72:	40b60433          	sub	s0,a2,a1
1c001a76:	0ac52583          	lw	a1,172(a0)
1c001a7a:	8636                	mv	a2,a3
1c001a7c:	854a                	mv	a0,s2
1c001a7e:	95a2                	add	a1,a1,s0
1c001a80:	50a040ef          	jal	ra,1c005f8a <memcpy>
        return __pi_fs_read_from_cache(file, buffer, addr, size);
1c001a84:	8a26                	mv	s4,s1
}
1c001a86:	50b2                	lw	ra,44(sp)
1c001a88:	5422                	lw	s0,40(sp)
1c001a8a:	8552                	mv	a0,s4
1c001a8c:	5492                	lw	s1,36(sp)
1c001a8e:	5902                	lw	s2,32(sp)
1c001a90:	49f2                	lw	s3,28(sp)
1c001a92:	4a62                	lw	s4,24(sp)
1c001a94:	4ad2                	lw	s5,20(sp)
1c001a96:	4b42                	lw	s6,16(sp)
1c001a98:	4bb2                	lw	s7,12(sp)
1c001a9a:	6145                	addi	sp,sp,48
1c001a9c:	8082                	ret

1c001a9e <__pi_read_fs_try_read>:
    if(file->pending_size == 0)
1c001a9e:	0a852683          	lw	a3,168(a0)
{
1c001aa2:	7179                	addi	sp,sp,-48
1c001aa4:	d422                	sw	s0,40(sp)
1c001aa6:	d606                	sw	ra,44(sp)
1c001aa8:	d226                	sw	s1,36(sp)
1c001aaa:	d04a                	sw	s2,32(sp)
1c001aac:	ce4e                	sw	s3,28(sp)
    int pending = 0;
1c001aae:	c602                	sw	zero,12(sp)
{
1c001ab0:	842a                	mv	s0,a0
    if(file->pending_size == 0)
1c001ab2:	ee91                	bnez	a3,1c001ace <__pi_read_fs_try_read+0x30>
            file->pending_event->implem.data[0] = file->first_read_size;
1c001ab4:	501c                	lw	a5,32(s0)
1c001ab6:	0bc42703          	lw	a4,188(s0)
1c001aba:	df98                	sw	a4,56(a5)
  rt_event_enqueue(task);
1c001abc:	5008                	lw	a0,32(s0)
1c001abe:	3601                	jal	1c0015be <rt_event_enqueue>
}
1c001ac0:	50b2                	lw	ra,44(sp)
1c001ac2:	5422                	lw	s0,40(sp)
1c001ac4:	5492                	lw	s1,36(sp)
1c001ac6:	5902                	lw	s2,32(sp)
1c001ac8:	49f2                	lw	s3,28(sp)
1c001aca:	6145                	addi	sp,sp,48
1c001acc:	8082                	ret
  task->arg[0] = (uint32_t)callback;
1c001ace:	1c0024b7          	lui	s1,0x1c002
1c001ad2:	a9e48493          	addi	s1,s1,-1378 # 1c001a9e <__pi_read_fs_try_read>
  task->id = PI_TASK_CALLBACK_ID;
1c001ad6:	02052e23          	sw	zero,60(a0)
  task->arg[0] = (uint32_t)callback;
1c001ada:	d504                	sw	s1,40(a0)
    int size = __pi_fs_read(
1c001adc:	4d50                	lw	a2,28(a0)
1c001ade:	0a452583          	lw	a1,164(a0)
  task->arg[1] = (uint32_t)arg;
1c001ae2:	d448                	sw	a0,44(s0)
            pi_task_callback(&file->step_event, __pi_read_fs_try_read, (void *) file)
1c001ae4:	02450913          	addi	s2,a0,36
  task->implem.keep = 1;
1c001ae8:	4985                	li	s3,1
    int size = __pi_fs_read(
1c001aea:	87ca                	mv	a5,s2
1c001aec:	05352623          	sw	s3,76(a0)
  task->done = 0;
1c001af0:	02050c23          	sb	zero,56(a0)
1c001af4:	0078                	addi	a4,sp,12
1c001af6:	35e9                	jal	1c0019c0 <__pi_fs_read>
    file->pending_addr += size;
1c001af8:	4c5c                	lw	a5,28(s0)
1c001afa:	97aa                	add	a5,a5,a0
1c001afc:	cc5c                	sw	a5,28(s0)
    file->pending_buffer += size;
1c001afe:	0a442783          	lw	a5,164(s0)
1c001b02:	97aa                	add	a5,a5,a0
1c001b04:	0af42223          	sw	a5,164(s0)
    file->pending_size -= size;
1c001b08:	0a842783          	lw	a5,168(s0)
1c001b0c:	40a78533          	sub	a0,a5,a0
    if(!pending)
1c001b10:	47b2                	lw	a5,12(sp)
    file->pending_size -= size;
1c001b12:	0aa42423          	sw	a0,168(s0)
    if(!pending)
1c001b16:	f7cd                	bnez	a5,1c001ac0 <__pi_read_fs_try_read+0x22>
        if(file->pending_size == 0)
1c001b18:	dd51                	beqz	a0,1c001ab4 <__pi_read_fs_try_read+0x16>
  task->id = PI_TASK_CALLBACK_ID;
1c001b1a:	02042e23          	sw	zero,60(s0)
  task->arg[0] = (uint32_t)callback;
1c001b1e:	d404                	sw	s1,40(s0)
  task->arg[1] = (uint32_t)arg;
1c001b20:	d440                	sw	s0,44(s0)
  task->implem.keep = 1;
1c001b22:	05342623          	sw	s3,76(s0)
1c001b26:	02040c23          	sb	zero,56(s0)
  rt_event_enqueue(task);
1c001b2a:	854a                	mv	a0,s2
1c001b2c:	bf49                	j	1c001abe <__pi_read_fs_try_read+0x20>

1c001b2e <__pi_read_fs_read_async>:
    if(file->offset + size > file->fs_file.size)
1c001b2e:	495c                	lw	a5,20(a0)
1c001b30:	4558                	lw	a4,12(a0)
{
1c001b32:	1101                	addi	sp,sp,-32
1c001b34:	ce06                	sw	ra,28(sp)
    if(file->offset + size > file->fs_file.size)
1c001b36:	00c78833          	add	a6,a5,a2
1c001b3a:	01077463          	bleu	a6,a4,1c001b42 <__pi_read_fs_read_async+0x14>
        real_size = file->fs_file.size - file->offset;
1c001b3e:	40f70633          	sub	a2,a4,a5
    file->first_read_size = real_size;
1c001b42:	0ac52e23          	sw	a2,188(a0)
1c001b46:	00068a23          	sb	zero,20(a3)
    file->pending_addr = file->addr + file->offset;
1c001b4a:	495c                	lw	a5,20(a0)
1c001b4c:	4d18                	lw	a4,24(a0)
    file->pending_size = real_size;
1c001b4e:	0ac52423          	sw	a2,168(a0)
    file->pending_event = event;
1c001b52:	d114                	sw	a3,32(a0)
    file->pending_addr = file->addr + file->offset;
1c001b54:	973e                	add	a4,a4,a5
    file->offset += real_size;
1c001b56:	97b2                	add	a5,a5,a2
    file->pending_buffer = (unsigned int) buffer;
1c001b58:	0ab52223          	sw	a1,164(a0)
    file->pending_addr = file->addr + file->offset;
1c001b5c:	cd58                	sw	a4,28(a0)
    file->offset += real_size;
1c001b5e:	c95c                	sw	a5,20(a0)
    __pi_read_fs_try_read((void *) file);
1c001b60:	c632                	sw	a2,12(sp)
1c001b62:	3f35                	jal	1c001a9e <__pi_read_fs_try_read>
}
1c001b64:	4632                	lw	a2,12(sp)
1c001b66:	40f2                	lw	ra,28(sp)
1c001b68:	8532                	mv	a0,a2
1c001b6a:	6105                	addi	sp,sp,32
1c001b6c:	8082                	ret

1c001b6e <__pi_host_fs_mount>:
  int fd;
} pi_host_fs_file_t;

static int32_t __pi_host_fs_mount(struct pi_device *device)
{
  bsp_fs_data.cluster_reqs_first = NULL;
1c001b6e:	1c0087b7          	lui	a5,0x1c008
1c001b72:	c007a623          	sw	zero,-1012(a5) # 1c007c0c <bsp_fs_data>
  return 0;
}
1c001b76:	4501                	li	a0,0
1c001b78:	8082                	ret

1c001b7a <__pi_host_fs_unmount>:

static void __pi_host_fs_unmount(struct pi_device *device)
{
}
1c001b7a:	8082                	ret

1c001b7c <rt_event_enqueue>:
  return __builtin_pulp_read_then_spr_bit_clr(reg, val);
1c001b7c:	300476f3          	csrrci	a3,mstatus,8
  if (sched->first) {
1c001b80:	01c02603          	lw	a2,28(zero) # 1c <_l1_preload_size>
  event->next = NULL;
1c001b84:	00052023          	sw	zero,0(a0)
1c001b88:	01c00713          	li	a4,28
  if (sched->first) {
1c001b8c:	c619                	beqz	a2,1c001b9a <rt_event_enqueue+0x1e>
    sched->last->next = event;
1c001b8e:	435c                	lw	a5,4(a4)
1c001b90:	c388                	sw	a0,0(a5)
  sched->last = event;
1c001b92:	c348                	sw	a0,4(a4)
  __builtin_pulp_spr_write(reg, val);
1c001b94:	30069073          	csrw	mstatus,a3
}
1c001b98:	8082                	ret
    sched->first = event;
1c001b9a:	00a02e23          	sw	a0,28(zero) # 1c <_l1_preload_size>
1c001b9e:	bfd5                	j	1c001b92 <rt_event_enqueue+0x16>

1c001ba0 <__pi_host_fs_seek>:
}

static int32_t __pi_host_fs_seek(pi_fs_file_t *arg, unsigned int offset)
{
  pi_host_fs_file_t *file = (pi_host_fs_file_t *)arg;
  return semihost_seek(file->fd, offset);
1c001ba0:	4948                	lw	a0,20(a0)
1c001ba2:	0ff0106f          	j	1c0034a0 <semihost_seek>

1c001ba6 <__pi_host_fs_copy_2d_async>:
  else
    return __pi_host_fs_write_async(arg, buffer, size, task);
}

static int32_t __pi_host_fs_copy_2d_async(pi_fs_file_t *file, uint32_t index, void *buffer, uint32_t size, uint32_t stride, uint32_t length, int32_t ext2loc, pi_task_t *task)
{
1c001ba6:	7179                	addi	sp,sp,-48
1c001ba8:	d422                	sw	s0,40(sp)
1c001baa:	d226                	sw	s1,36(sp)
1c001bac:	d04a                	sw	s2,32(sp)
1c001bae:	ce4e                	sw	s3,28(sp)
1c001bb0:	cc52                	sw	s4,24(sp)
1c001bb2:	ca56                	sw	s5,20(sp)
1c001bb4:	c85a                	sw	s6,16(sp)
1c001bb6:	c65e                	sw	s7,12(sp)
1c001bb8:	c462                	sw	s8,8(sp)
1c001bba:	d606                	sw	ra,44(sp)
1c001bbc:	89aa                	mv	s3,a0
1c001bbe:	8a2e                	mv	s4,a1
1c001bc0:	84b2                	mv	s1,a2
1c001bc2:	8b36                	mv	s6,a3
1c001bc4:	8bba                	mv	s7,a4
1c001bc6:	843e                	mv	s0,a5
1c001bc8:	8c42                	mv	s8,a6
1c001bca:	8ac6                	mv	s5,a7
  unsigned int chunk;
  for (chunk=0; chunk<size; chunk+=length)
1c001bcc:	4901                	li	s2,0
1c001bce:	03696163          	bltu	s2,s6,1c001bf0 <__pi_host_fs_copy_2d_async+0x4a>
1c001bd2:	8556                	mv	a0,s5
1c001bd4:	3765                	jal	1c001b7c <rt_event_enqueue>

    buffer = ((char *)buffer) + length;
    index += stride;
  }
  pi_task_push(task);
  return 0;
1c001bd6:	4501                	li	a0,0

error:
  pi_task_push(task);
  return -1;
}
1c001bd8:	50b2                	lw	ra,44(sp)
1c001bda:	5422                	lw	s0,40(sp)
1c001bdc:	5492                	lw	s1,36(sp)
1c001bde:	5902                	lw	s2,32(sp)
1c001be0:	49f2                	lw	s3,28(sp)
1c001be2:	4a62                	lw	s4,24(sp)
1c001be4:	4ad2                	lw	s5,20(sp)
1c001be6:	4b42                	lw	s6,16(sp)
1c001be8:	4bb2                	lw	s7,12(sp)
1c001bea:	4c22                	lw	s8,8(sp)
1c001bec:	6145                	addi	sp,sp,48
1c001bee:	8082                	ret
    if (__pi_host_fs_seek(file, index))
1c001bf0:	85d2                	mv	a1,s4
1c001bf2:	854e                	mv	a0,s3
1c001bf4:	05645433          	p.minu	s0,s0,s6
1c001bf8:	3765                	jal	1c001ba0 <__pi_host_fs_seek>
1c001bfa:	e10d                	bnez	a0,1c001c1c <__pi_host_fs_copy_2d_async+0x76>
      if (pi_fs_read(file, buffer, length) != (int)length)
1c001bfc:	8622                	mv	a2,s0
1c001bfe:	85a6                	mv	a1,s1
1c001c00:	854e                	mv	a0,s3
    if (ext2loc)
1c001c02:	000c0a63          	beqz	s8,1c001c16 <__pi_host_fs_copy_2d_async+0x70>
      if (pi_fs_read(file, buffer, length) != (int)length)
1c001c06:	89fff0ef          	jal	ra,1c0014a4 <pi_fs_read>
1c001c0a:	00851963          	bne	a0,s0,1c001c1c <__pi_host_fs_copy_2d_async+0x76>
    buffer = ((char *)buffer) + length;
1c001c0e:	94a2                	add	s1,s1,s0
    index += stride;
1c001c10:	9a5e                	add	s4,s4,s7
  for (chunk=0; chunk<size; chunk+=length)
1c001c12:	9922                	add	s2,s2,s0
1c001c14:	bf6d                	j	1c001bce <__pi_host_fs_copy_2d_async+0x28>
      if (pi_fs_write(file, buffer, length) != (int)length)
1c001c16:	8bdff0ef          	jal	ra,1c0014d2 <pi_fs_write>
1c001c1a:	bfc5                	j	1c001c0a <__pi_host_fs_copy_2d_async+0x64>
1c001c1c:	8556                	mv	a0,s5
1c001c1e:	3fb9                	jal	1c001b7c <rt_event_enqueue>
  return -1;
1c001c20:	557d                	li	a0,-1
1c001c22:	bf5d                	j	1c001bd8 <__pi_host_fs_copy_2d_async+0x32>

1c001c24 <__pi_host_fs_write_async>:
  int result = size - semihost_write(file->fd, buffer, size);
1c001c24:	4948                	lw	a0,20(a0)
{
1c001c26:	1101                	addi	sp,sp,-32
1c001c28:	ce06                	sw	ra,28(sp)
1c001c2a:	cc22                	sw	s0,24(sp)
1c001c2c:	ca26                	sw	s1,20(sp)
  int result = size - semihost_write(file->fd, buffer, size);
1c001c2e:	c636                	sw	a3,12(sp)
{
1c001c30:	84b2                	mv	s1,a2
  int result = size - semihost_write(file->fd, buffer, size);
1c001c32:	053010ef          	jal	ra,1c003484 <semihost_write>
1c001c36:	46b2                	lw	a3,12(sp)
1c001c38:	842a                	mv	s0,a0
1c001c3a:	8536                	mv	a0,a3
1c001c3c:	3781                	jal	1c001b7c <rt_event_enqueue>
}
1c001c3e:	40848533          	sub	a0,s1,s0
1c001c42:	40f2                	lw	ra,28(sp)
1c001c44:	4462                	lw	s0,24(sp)
1c001c46:	44d2                	lw	s1,20(sp)
1c001c48:	6105                	addi	sp,sp,32
1c001c4a:	8082                	ret

1c001c4c <__pi_host_fs_read_async>:
  int result = size - semihost_read(file->fd, buffer, size);
1c001c4c:	4948                	lw	a0,20(a0)
{
1c001c4e:	1101                	addi	sp,sp,-32
1c001c50:	ce06                	sw	ra,28(sp)
1c001c52:	cc22                	sw	s0,24(sp)
  int result = size - semihost_read(file->fd, buffer, size);
1c001c54:	c636                	sw	a3,12(sp)
{
1c001c56:	8432                	mv	s0,a2
  int result = size - semihost_read(file->fd, buffer, size);
1c001c58:	011010ef          	jal	ra,1c003468 <semihost_read>
  task->implem.data[0] = result;
1c001c5c:	46b2                	lw	a3,12(sp)
  int result = size - semihost_read(file->fd, buffer, size);
1c001c5e:	8c09                	sub	s0,s0,a0
  task->implem.data[0] = result;
1c001c60:	de80                	sw	s0,56(a3)
1c001c62:	8536                	mv	a0,a3
1c001c64:	3f21                	jal	1c001b7c <rt_event_enqueue>
}
1c001c66:	8522                	mv	a0,s0
1c001c68:	40f2                	lw	ra,28(sp)
1c001c6a:	4462                	lw	s0,24(sp)
1c001c6c:	6105                	addi	sp,sp,32
1c001c6e:	8082                	ret

1c001c70 <__pi_host_fs_copy_async>:
{
1c001c70:	1101                	addi	sp,sp,-32
1c001c72:	cc22                	sw	s0,24(sp)
1c001c74:	ca26                	sw	s1,20(sp)
  if (__pi_host_fs_seek(arg, index))
1c001c76:	c636                	sw	a3,12(sp)
{
1c001c78:	84b2                	mv	s1,a2
  if (__pi_host_fs_seek(arg, index))
1c001c7a:	c43a                	sw	a4,8(sp)
{
1c001c7c:	ce06                	sw	ra,28(sp)
1c001c7e:	842a                	mv	s0,a0
  if (__pi_host_fs_seek(arg, index))
1c001c80:	c23e                	sw	a5,4(sp)
1c001c82:	3f39                	jal	1c001ba0 <__pi_host_fs_seek>
1c001c84:	4632                	lw	a2,12(sp)
1c001c86:	4692                	lw	a3,4(sp)
1c001c88:	4722                	lw	a4,8(sp)
1c001c8a:	ed11                	bnez	a0,1c001ca6 <__pi_host_fs_copy_async+0x36>
    return __pi_host_fs_read_async(arg, buffer, size, task);
1c001c8c:	85a6                	mv	a1,s1
1c001c8e:	8522                	mv	a0,s0
  if (ext2loc)
1c001c90:	c711                	beqz	a4,1c001c9c <__pi_host_fs_copy_async+0x2c>
}
1c001c92:	4462                	lw	s0,24(sp)
1c001c94:	40f2                	lw	ra,28(sp)
1c001c96:	44d2                	lw	s1,20(sp)
1c001c98:	6105                	addi	sp,sp,32
    return __pi_host_fs_read_async(arg, buffer, size, task);
1c001c9a:	bf4d                	j	1c001c4c <__pi_host_fs_read_async>
}
1c001c9c:	4462                	lw	s0,24(sp)
1c001c9e:	40f2                	lw	ra,28(sp)
1c001ca0:	44d2                	lw	s1,20(sp)
1c001ca2:	6105                	addi	sp,sp,32
    return __pi_host_fs_write_async(arg, buffer, size, task);
1c001ca4:	b741                	j	1c001c24 <__pi_host_fs_write_async>
}
1c001ca6:	40f2                	lw	ra,28(sp)
1c001ca8:	4462                	lw	s0,24(sp)
1c001caa:	44d2                	lw	s1,20(sp)
1c001cac:	557d                	li	a0,-1
1c001cae:	6105                	addi	sp,sp,32
1c001cb0:	8082                	ret

1c001cb2 <__pi_host_fs_direct_read_async>:
1c001cb2:	bf69                	j	1c001c4c <__pi_host_fs_read_async>

1c001cb4 <__pi_host_fs_close>:
{
1c001cb4:	1141                	addi	sp,sp,-16
1c001cb6:	c422                	sw	s0,8(sp)
1c001cb8:	842a                	mv	s0,a0
  semihost_close(file->fd);
1c001cba:	4948                	lw	a0,20(a0)
{
1c001cbc:	c606                	sw	ra,12(sp)
  semihost_close(file->fd);
1c001cbe:	7a4010ef          	jal	ra,1c003462 <semihost_close>
  pmsis_l2_malloc_free(file, sizeof(pi_host_fs_file_t));
1c001cc2:	8522                	mv	a0,s0
}
1c001cc4:	4422                	lw	s0,8(sp)
1c001cc6:	40b2                	lw	ra,12(sp)
  pmsis_l2_malloc_free(file, sizeof(pi_host_fs_file_t));
1c001cc8:	45e1                	li	a1,24
}
1c001cca:	0141                	addi	sp,sp,16
  pmsis_l2_malloc_free(file, sizeof(pi_host_fs_file_t));
1c001ccc:	2dc0206f          	j	1c003fa8 <pi_l2_free>

1c001cd0 <__pi_host_fs_open>:
{
1c001cd0:	1101                	addi	sp,sp,-32
1c001cd2:	ca26                	sw	s1,20(sp)
1c001cd4:	84aa                	mv	s1,a0
  pi_host_fs_file_t *file = pmsis_l2_malloc(sizeof(pi_host_fs_file_t));
1c001cd6:	4561                	li	a0,24
{
1c001cd8:	c84a                	sw	s2,16(sp)
  pi_host_fs_file_t *file = pmsis_l2_malloc(sizeof(pi_host_fs_file_t));
1c001cda:	c632                	sw	a2,12(sp)
{
1c001cdc:	ce06                	sw	ra,28(sp)
1c001cde:	cc22                	sw	s0,24(sp)
1c001ce0:	892e                	mv	s2,a1
  pi_host_fs_file_t *file = pmsis_l2_malloc(sizeof(pi_host_fs_file_t));
1c001ce2:	2ba020ef          	jal	ra,1c003f9c <pi_l2_malloc>
  if (file == NULL) goto error;
1c001ce6:	4632                	lw	a2,12(sp)
1c001ce8:	e909                	bnez	a0,1c001cfa <__pi_host_fs_open+0x2a>
  return NULL;
1c001cea:	4401                	li	s0,0
}
1c001cec:	8522                	mv	a0,s0
1c001cee:	40f2                	lw	ra,28(sp)
1c001cf0:	4462                	lw	s0,24(sp)
1c001cf2:	44d2                	lw	s1,20(sp)
1c001cf4:	4942                	lw	s2,16(sp)
1c001cf6:	6105                	addi	sp,sp,32
1c001cf8:	8082                	ret
  file->header.fs = device;
1c001cfa:	c104                	sw	s1,0(a0)
1c001cfc:	842a                	mv	s0,a0
  file->fd = semihost_open(file_name, flags == PI_FS_FLAGS_WRITE ? 6 : flags == PI_FS_FLAGS_APPEND ? 8 : 0);
1c001cfe:	4599                	li	a1,6
1c001d00:	00162663          	p.beqimm	a2,1,1c001d0c <__pi_host_fs_open+0x3c>
1c001d04:	45a1                	li	a1,8
1c001d06:	00262363          	p.beqimm	a2,2,1c001d0c <__pi_host_fs_open+0x3c>
1c001d0a:	4581                	li	a1,0
1c001d0c:	854a                	mv	a0,s2
1c001d0e:	72a010ef          	jal	ra,1c003438 <semihost_open>
1c001d12:	c848                	sw	a0,20(s0)
  if (file->fd == -1)
1c001d14:	fdf52be3          	p.beqimm	a0,-1,1c001cea <__pi_host_fs_open+0x1a>
  file->header.api = (pi_fs_api_t *)device->api;
1c001d18:	409c                	lw	a5,0(s1)
  file->header.data = file;
1c001d1a:	c400                	sw	s0,8(s0)
  file->header.fs = device;
1c001d1c:	c004                	sw	s1,0(s0)
  file->header.api = (pi_fs_api_t *)device->api;
1c001d1e:	c05c                	sw	a5,4(s0)
  file->header.fs_data = &bsp_fs_data;
1c001d20:	1c0087b7          	lui	a5,0x1c008
1c001d24:	c0c78793          	addi	a5,a5,-1012 # 1c007c0c <bsp_fs_data>
1c001d28:	c81c                	sw	a5,16(s0)
  return (pi_fs_file_t *)file;
1c001d2a:	b7c9                	j	1c001cec <__pi_host_fs_open+0x1c>

1c001d2c <__rt_event_enqueue>:
  if (sched->first) {
1c001d2c:	01c02683          	lw	a3,28(zero) # 1c <_l1_preload_size>
  event->next = NULL;
1c001d30:	00052023          	sw	zero,0(a0)
1c001d34:	01c00713          	li	a4,28
  if (sched->first) {
1c001d38:	c689                	beqz	a3,1c001d42 <__rt_event_enqueue+0x16>
    sched->last->next = event;
1c001d3a:	435c                	lw	a5,4(a4)
1c001d3c:	c388                	sw	a0,0(a5)
  sched->last = event;
1c001d3e:	c348                	sw	a0,4(a4)
}
1c001d40:	8082                	ret
    sched->first = event;
1c001d42:	00a02e23          	sw	a0,28(zero) # 1c <_l1_preload_size>
1c001d46:	bfe5                	j	1c001d3e <__rt_event_enqueue+0x12>

1c001d48 <hyperflash_ioctl>:



static int32_t hyperflash_ioctl(struct pi_device *device, uint32_t cmd, void *arg)
{
  switch (cmd)
1c001d48:	e589                	bnez	a1,1c001d52 <hyperflash_ioctl+0xa>
  {
    case PI_FLASH_IOCTL_INFO:
    {
      struct pi_flash_info *flash_info = (struct pi_flash_info *)arg;
      flash_info->sector_size = 1<<18;
1c001d4a:	000407b7          	lui	a5,0x40
1c001d4e:	c21c                	sw	a5,0(a2)
      // TODO find a way to know what is on the flash, as they may be a boot binary
      flash_info->flash_start = flash_info->sector_size;
1c001d50:	c25c                	sw	a5,4(a2)
    }
  }
  return 0;
}
1c001d52:	4501                	li	a0,0
1c001d54:	8082                	ret

1c001d56 <hyperflash_stall_task>:
  return __builtin_pulp_read_then_spr_bit_clr(reg, val);
1c001d56:	30047373          	csrrci	t1,mstatus,8

    restore_irq(irq);
    return 1;
  }
#else
  if (hyperflash->pending_task != NULL)
1c001d5a:	01852e03          	lw	t3,24(a0)
1c001d5e:	020e0763          	beqz	t3,1c001d8c <hyperflash_stall_task+0x36>
  {
    task->implem.data[0] = id;
1c001d62:	dd90                	sw	a2,56(a1)
    task->implem.data[1] = arg0;
1c001d64:	ddd4                	sw	a3,60(a1)
    task->implem.data[2] = arg1;
1c001d66:	c1b8                	sw	a4,64(a1)
    task->implem.data[3] = arg2;
1c001d68:	c1fc                	sw	a5,68(a1)
    task->implem.data[4] = arg3;
1c001d6a:	0505a423          	sw	a6,72(a1)
    task->implem.data[5] = arg4;
1c001d6e:	0515a623          	sw	a7,76(a1)

    if (hyperflash->waiting_first)
1c001d72:	491c                	lw	a5,16(a0)
1c001d74:	cb91                	beqz	a5,1c001d88 <hyperflash_stall_task+0x32>
      hyperflash->waiting_last->implem.next = task;
1c001d76:	495c                	lw	a5,20(a0)
1c001d78:	cfcc                	sw	a1,28(a5)
    else
      hyperflash->waiting_first = task;

    hyperflash->waiting_last = task;
1c001d7a:	c94c                	sw	a1,20(a0)
    task->implem.next = NULL;
1c001d7c:	0005ae23          	sw	zero,28(a1)
  __builtin_pulp_spr_write(reg, val);
1c001d80:	30031073          	csrw	mstatus,t1

    restore_irq(irq);
    return 1;
1c001d84:	4505                	li	a0,1
1c001d86:	8082                	ret
      hyperflash->waiting_first = task;
1c001d88:	c90c                	sw	a1,16(a0)
1c001d8a:	bfc5                	j	1c001d7a <hyperflash_stall_task+0x24>
  }
#endif  /* PMSIS_DRIVERS */

  hyperflash->pending_task = task;
1c001d8c:	cd0c                	sw	a1,24(a0)
1c001d8e:	30031073          	csrw	mstatus,t1

  restore_irq(irq);
  return 0;
1c001d92:	4501                	li	a0,0
}
1c001d94:	8082                	ret

1c001d96 <hyperflash_read_2d_async>:
{
1c001d96:	1101                	addi	sp,sp,-32
1c001d98:	cc22                	sw	s0,24(sp)
  hyperflash_t *hyperflash = (hyperflash_t *)device->data;
1c001d9a:	4500                	lw	s0,8(a0)
{
1c001d9c:	ca26                	sw	s1,20(sp)
1c001d9e:	84ae                	mv	s1,a1
1c001da0:	c84a                	sw	s2,16(sp)
1c001da2:	c64e                	sw	s3,12(sp)
1c001da4:	c452                	sw	s4,8(sp)
1c001da6:	c256                	sw	s5,4(sp)
1c001da8:	c05a                	sw	s6,0(sp)
1c001daa:	8932                	mv	s2,a2
1c001dac:	8b2a                	mv	s6,a0
1c001dae:	89b6                	mv	s3,a3
1c001db0:	8a3a                	mv	s4,a4
1c001db2:	8abe                	mv	s5,a5
1c001db4:	85c2                	mv	a1,a6
  if (hyperflash_stall_task(hyperflash, task, STALL_TASK_READ_2D, addr, (uint32_t)data, size, stride, length))
1c001db6:	88be                	mv	a7,a5
1c001db8:	883a                	mv	a6,a4
1c001dba:	87b6                	mv	a5,a3
1c001dbc:	8732                	mv	a4,a2
1c001dbe:	86a6                	mv	a3,s1
1c001dc0:	4619                	li	a2,6
1c001dc2:	8522                	mv	a0,s0
{
1c001dc4:	ce06                	sw	ra,28(sp)
  if (hyperflash_stall_task(hyperflash, task, STALL_TASK_READ_2D, addr, (uint32_t)data, size, stride, length))
1c001dc6:	3f41                	jal	1c001d56 <hyperflash_stall_task>
1c001dc8:	e129                	bnez	a0,1c001e0a <hyperflash_read_2d_async+0x74>
  task->arg[0] = (uint32_t)callback;
1c001dca:	1c0027b7          	lui	a5,0x1c002
1c001dce:	00e78793          	addi	a5,a5,14 # 1c00200e <hyperflash_handle_pending_task>
  task->done = 0;
1c001dd2:	02040e23          	sb	zero,60(s0)
1c001dd6:	d45c                	sw	a5,44(s0)
  task->implem.keep = 1;
1c001dd8:	4785                	li	a5,1
  task->arg[1] = (uint32_t)arg;
1c001dda:	03642823          	sw	s6,48(s0)
  task->implem.keep = 1;
1c001dde:	c83c                	sw	a5,80(s0)
  task->id = PI_TASK_CALLBACK_ID;
1c001de0:	04042023          	sw	zero,64(s0)
  pi_hyper_read_2d_async(&hyperflash->hyper_device, addr, data, size, stride, length, pi_task_callback(&hyperflash->task, hyperflash_handle_pending_task, device));
1c001de4:	02840813          	addi	a6,s0,40
1c001de8:	8522                	mv	a0,s0
}
1c001dea:	4462                	lw	s0,24(sp)
1c001dec:	40f2                	lw	ra,28(sp)
1c001dee:	4b02                	lw	s6,0(sp)
  pi_hyper_read_2d_async(&hyperflash->hyper_device, addr, data, size, stride, length, pi_task_callback(&hyperflash->task, hyperflash_handle_pending_task, device));
1c001df0:	87d6                	mv	a5,s5
1c001df2:	8752                	mv	a4,s4
}
1c001df4:	4a92                	lw	s5,4(sp)
1c001df6:	4a22                	lw	s4,8(sp)
  pi_hyper_read_2d_async(&hyperflash->hyper_device, addr, data, size, stride, length, pi_task_callback(&hyperflash->task, hyperflash_handle_pending_task, device));
1c001df8:	86ce                	mv	a3,s3
1c001dfa:	864a                	mv	a2,s2
}
1c001dfc:	49b2                	lw	s3,12(sp)
1c001dfe:	4942                	lw	s2,16(sp)
  pi_hyper_read_2d_async(&hyperflash->hyper_device, addr, data, size, stride, length, pi_task_callback(&hyperflash->task, hyperflash_handle_pending_task, device));
1c001e00:	85a6                	mv	a1,s1
}
1c001e02:	44d2                	lw	s1,20(sp)
1c001e04:	6105                	addi	sp,sp,32
  pi_hyper_read_2d_async(&hyperflash->hyper_device, addr, data, size, stride, length, pi_task_callback(&hyperflash->task, hyperflash_handle_pending_task, device));
1c001e06:	0990306f          	j	1c00569e <pi_hyper_read_2d_async>
}
1c001e0a:	40f2                	lw	ra,28(sp)
1c001e0c:	4462                	lw	s0,24(sp)
1c001e0e:	44d2                	lw	s1,20(sp)
1c001e10:	4942                	lw	s2,16(sp)
1c001e12:	49b2                	lw	s3,12(sp)
1c001e14:	4a22                	lw	s4,8(sp)
1c001e16:	4a92                	lw	s5,4(sp)
1c001e18:	4b02                	lw	s6,0(sp)
1c001e1a:	6105                	addi	sp,sp,32
1c001e1c:	8082                	ret

1c001e1e <hyperflash_copy_2d_async>:



static int hyperflash_copy_2d_async(struct pi_device *device, uint32_t flash_addr, void *buffer, uint32_t size, uint32_t stride, uint32_t length, int ext2loc, pi_task_t *task)
{
  if (!ext2loc)
1c001e1e:	00080a63          	beqz	a6,1c001e32 <hyperflash_copy_2d_async+0x14>
{
1c001e22:	1141                	addi	sp,sp,-16
1c001e24:	8846                	mv	a6,a7
1c001e26:	c606                	sw	ra,12(sp)
    return -1;

  hyperflash_read_2d_async(device, flash_addr, buffer, size, stride, length, task);
1c001e28:	37bd                	jal	1c001d96 <hyperflash_read_2d_async>

  return 0;
}
1c001e2a:	40b2                	lw	ra,12(sp)
  return 0;
1c001e2c:	4501                	li	a0,0
}
1c001e2e:	0141                	addi	sp,sp,16
1c001e30:	8082                	ret
    return -1;
1c001e32:	557d                	li	a0,-1
}
1c001e34:	8082                	ret

1c001e36 <hyperflash_set_reg_exec>:
  hyperflash->udma_buffer[0] = value;
1c001e36:	00c51623          	sh	a2,12(a0)
  pi_hyper_write(&hyperflash->hyper_device, addr, hyperflash->udma_buffer, 2);
1c001e3a:	4689                	li	a3,2
1c001e3c:	00c50613          	addi	a2,a0,12
1c001e40:	4b60306f          	j	1c0052f6 <pi_hyper_write>

1c001e44 <hyperflash_erase_sector_async>:
{
1c001e44:	1101                	addi	sp,sp,-32
1c001e46:	cc22                	sw	s0,24(sp)
  hyperflash_t *hyperflash = (hyperflash_t *)device->data;
1c001e48:	4500                	lw	s0,8(a0)
{
1c001e4a:	c64e                	sw	s3,12(sp)
1c001e4c:	89ae                	mv	s3,a1
1c001e4e:	c84a                	sw	s2,16(sp)
1c001e50:	85b2                	mv	a1,a2
1c001e52:	892a                	mv	s2,a0
  if (hyperflash_stall_task(hyperflash, task, STALL_TASK_ERASE_SECTOR, addr, 0, 0, 0, 0))
1c001e54:	4881                	li	a7,0
1c001e56:	4801                	li	a6,0
1c001e58:	4781                	li	a5,0
1c001e5a:	4701                	li	a4,0
1c001e5c:	86ce                	mv	a3,s3
1c001e5e:	4609                	li	a2,2
1c001e60:	8522                	mv	a0,s0
{
1c001e62:	ce06                	sw	ra,28(sp)
1c001e64:	ca26                	sw	s1,20(sp)
  if (hyperflash_stall_task(hyperflash, task, STALL_TASK_ERASE_SECTOR, addr, 0, 0, 0, 0))
1c001e66:	3dc5                	jal	1c001d56 <hyperflash_stall_task>
1c001e68:	ed3d                	bnez	a0,1c001ee6 <hyperflash_erase_sector_async+0xa2>
  hyperflash_set_reg_exec(hyperflash, 0x555<<1, 0xAA);
1c001e6a:	6485                	lui	s1,0x1
1c001e6c:	aaa48593          	addi	a1,s1,-1366 # aaa <__rt_stack_size+0x2aa>
1c001e70:	8522                	mv	a0,s0
1c001e72:	0aa00613          	li	a2,170
1c001e76:	37c1                	jal	1c001e36 <hyperflash_set_reg_exec>
  hyperflash_set_reg_exec(hyperflash, 0x2AA<<1, 0x55);
1c001e78:	8522                	mv	a0,s0
1c001e7a:	05500613          	li	a2,85
1c001e7e:	55400593          	li	a1,1364
1c001e82:	3f55                	jal	1c001e36 <hyperflash_set_reg_exec>
  hyperflash_set_reg_exec(hyperflash, 0x555<<1, 0x80);
1c001e84:	aaa48593          	addi	a1,s1,-1366
1c001e88:	8522                	mv	a0,s0
1c001e8a:	08000613          	li	a2,128
1c001e8e:	3765                	jal	1c001e36 <hyperflash_set_reg_exec>
  hyperflash_set_reg_exec(hyperflash, 0x555<<1, 0xAA);
1c001e90:	aaa48593          	addi	a1,s1,-1366
1c001e94:	8522                	mv	a0,s0
1c001e96:	0aa00613          	li	a2,170
1c001e9a:	3f71                	jal	1c001e36 <hyperflash_set_reg_exec>
  hyperflash_set_reg_exec(hyperflash, 0x2AA<<1, 0x55);
1c001e9c:	8522                	mv	a0,s0
1c001e9e:	05500613          	li	a2,85
1c001ea2:	55400593          	li	a1,1364
1c001ea6:	3f41                	jal	1c001e36 <hyperflash_set_reg_exec>
  hyperflash_set_reg_exec(hyperflash, addr, 0x30);
1c001ea8:	85ce                	mv	a1,s3
1c001eaa:	8522                	mv	a0,s0
1c001eac:	03000613          	li	a2,48
1c001eb0:	3759                	jal	1c001e36 <hyperflash_set_reg_exec>
  task->arg[0] = (uint32_t)callback;
1c001eb2:	1c0027b7          	lui	a5,0x1c002
1c001eb6:	60a78793          	addi	a5,a5,1546 # 1c00260a <hyperflash_check_erase>
1c001eba:	02040e23          	sb	zero,60(s0)
1c001ebe:	d45c                	sw	a5,44(s0)
  task->implem.keep = 1;
1c001ec0:	4785                	li	a5,1
  task->arg[1] = (uint32_t)arg;
1c001ec2:	03242823          	sw	s2,48(s0)
  task->id = PI_TASK_CALLBACK_ID;
1c001ec6:	04042023          	sw	zero,64(s0)
  task->implem.keep = 1;
1c001eca:	c83c                	sw	a5,80(s0)
  pi_task_push_delayed_us(pi_task_callback(&hyperflash->task, hyperflash_check_erase, device), 10000);
1c001ecc:	02840513          	addi	a0,s0,40
}
1c001ed0:	4462                	lw	s0,24(sp)
1c001ed2:	40f2                	lw	ra,28(sp)
1c001ed4:	44d2                	lw	s1,20(sp)
1c001ed6:	4942                	lw	s2,16(sp)
1c001ed8:	49b2                	lw	s3,12(sp)
  pi_task_push_delayed_us(pi_task_callback(&hyperflash->task, hyperflash_check_erase, device), 10000);
1c001eda:	6589                	lui	a1,0x2
1c001edc:	71058593          	addi	a1,a1,1808 # 2710 <__rt_stack_size+0x1f10>
}
1c001ee0:	6105                	addi	sp,sp,32
  pi_task_push_delayed_us(pi_task_callback(&hyperflash->task, hyperflash_check_erase, device), 10000);
1c001ee2:	6f70106f          	j	1c003dd8 <pi_task_push_delayed_us>
}
1c001ee6:	40f2                	lw	ra,28(sp)
1c001ee8:	4462                	lw	s0,24(sp)
1c001eea:	44d2                	lw	s1,20(sp)
1c001eec:	4942                	lw	s2,16(sp)
1c001eee:	49b2                	lw	s3,12(sp)
1c001ef0:	6105                	addi	sp,sp,32
1c001ef2:	8082                	ret

1c001ef4 <hyperflash_erase_chip_async>:
{
1c001ef4:	1141                	addi	sp,sp,-16
1c001ef6:	c422                	sw	s0,8(sp)
  hyperflash_t *hyperflash = (hyperflash_t *)device->data;
1c001ef8:	4500                	lw	s0,8(a0)
{
1c001efa:	c04a                	sw	s2,0(sp)
  if (hyperflash_stall_task(hyperflash, task, STALL_TASK_ERASE_CHIP, 0, 0, 0, 0, 0))
1c001efc:	4881                	li	a7,0
{
1c001efe:	892a                	mv	s2,a0
  if (hyperflash_stall_task(hyperflash, task, STALL_TASK_ERASE_CHIP, 0, 0, 0, 0, 0))
1c001f00:	4801                	li	a6,0
1c001f02:	4781                	li	a5,0
1c001f04:	4701                	li	a4,0
1c001f06:	4681                	li	a3,0
1c001f08:	4605                	li	a2,1
1c001f0a:	8522                	mv	a0,s0
{
1c001f0c:	c606                	sw	ra,12(sp)
1c001f0e:	c226                	sw	s1,4(sp)
  if (hyperflash_stall_task(hyperflash, task, STALL_TASK_ERASE_CHIP, 0, 0, 0, 0, 0))
1c001f10:	3599                	jal	1c001d56 <hyperflash_stall_task>
1c001f12:	ed35                	bnez	a0,1c001f8e <hyperflash_erase_chip_async+0x9a>
  hyperflash_set_reg_exec(hyperflash, 0x555<<1, 0xAA);
1c001f14:	6485                	lui	s1,0x1
1c001f16:	aaa48593          	addi	a1,s1,-1366 # aaa <__rt_stack_size+0x2aa>
1c001f1a:	8522                	mv	a0,s0
1c001f1c:	0aa00613          	li	a2,170
1c001f20:	3f19                	jal	1c001e36 <hyperflash_set_reg_exec>
  hyperflash_set_reg_exec(hyperflash, 0x2AA<<1, 0x55);
1c001f22:	8522                	mv	a0,s0
1c001f24:	05500613          	li	a2,85
1c001f28:	55400593          	li	a1,1364
1c001f2c:	3729                	jal	1c001e36 <hyperflash_set_reg_exec>
  hyperflash_set_reg_exec(hyperflash, 0x555<<1, 0x80);
1c001f2e:	aaa48593          	addi	a1,s1,-1366
1c001f32:	8522                	mv	a0,s0
1c001f34:	08000613          	li	a2,128
1c001f38:	3dfd                	jal	1c001e36 <hyperflash_set_reg_exec>
  hyperflash_set_reg_exec(hyperflash, 0x555<<1, 0xAA);
1c001f3a:	aaa48593          	addi	a1,s1,-1366
1c001f3e:	8522                	mv	a0,s0
1c001f40:	0aa00613          	li	a2,170
1c001f44:	3dcd                	jal	1c001e36 <hyperflash_set_reg_exec>
  hyperflash_set_reg_exec(hyperflash, 0x2AA<<1, 0x55);
1c001f46:	8522                	mv	a0,s0
1c001f48:	05500613          	li	a2,85
1c001f4c:	55400593          	li	a1,1364
1c001f50:	35dd                	jal	1c001e36 <hyperflash_set_reg_exec>
  hyperflash_set_reg_exec(hyperflash, 0x555<<1, 0x10);
1c001f52:	aaa48593          	addi	a1,s1,-1366
1c001f56:	8522                	mv	a0,s0
1c001f58:	4641                	li	a2,16
1c001f5a:	3df1                	jal	1c001e36 <hyperflash_set_reg_exec>
  task->arg[0] = (uint32_t)callback;
1c001f5c:	1c0027b7          	lui	a5,0x1c002
1c001f60:	60a78793          	addi	a5,a5,1546 # 1c00260a <hyperflash_check_erase>
1c001f64:	02040e23          	sb	zero,60(s0)
1c001f68:	d45c                	sw	a5,44(s0)
  task->implem.keep = 1;
1c001f6a:	4785                	li	a5,1
  task->arg[1] = (uint32_t)arg;
1c001f6c:	03242823          	sw	s2,48(s0)
  task->id = PI_TASK_CALLBACK_ID;
1c001f70:	04042023          	sw	zero,64(s0)
  task->implem.keep = 1;
1c001f74:	c83c                	sw	a5,80(s0)
  pi_task_push_delayed_us(pi_task_callback(&hyperflash->task, hyperflash_check_erase, device), 100000);
1c001f76:	02840513          	addi	a0,s0,40
}
1c001f7a:	4422                	lw	s0,8(sp)
1c001f7c:	40b2                	lw	ra,12(sp)
1c001f7e:	4492                	lw	s1,4(sp)
1c001f80:	4902                	lw	s2,0(sp)
  pi_task_push_delayed_us(pi_task_callback(&hyperflash->task, hyperflash_check_erase, device), 100000);
1c001f82:	65e1                	lui	a1,0x18
1c001f84:	6a058593          	addi	a1,a1,1696 # 186a0 <__L1Cl+0x86a0>
}
1c001f88:	0141                	addi	sp,sp,16
  pi_task_push_delayed_us(pi_task_callback(&hyperflash->task, hyperflash_check_erase, device), 100000);
1c001f8a:	64f0106f          	j	1c003dd8 <pi_task_push_delayed_us>
}
1c001f8e:	40b2                	lw	ra,12(sp)
1c001f90:	4422                	lw	s0,8(sp)
1c001f92:	4492                	lw	s1,4(sp)
1c001f94:	4902                	lw	s2,0(sp)
1c001f96:	0141                	addi	sp,sp,16
1c001f98:	8082                	ret

1c001f9a <hyperflash_read_async>:
{
1c001f9a:	1101                	addi	sp,sp,-32
1c001f9c:	cc22                	sw	s0,24(sp)
  hyperflash_t *hyperflash = (hyperflash_t *)device->data;
1c001f9e:	4500                	lw	s0,8(a0)
{
1c001fa0:	ca26                	sw	s1,20(sp)
1c001fa2:	84ae                	mv	s1,a1
1c001fa4:	c84a                	sw	s2,16(sp)
1c001fa6:	c64e                	sw	s3,12(sp)
1c001fa8:	c452                	sw	s4,8(sp)
1c001faa:	8932                	mv	s2,a2
1c001fac:	8a2a                	mv	s4,a0
1c001fae:	89b6                	mv	s3,a3
1c001fb0:	85ba                	mv	a1,a4
  if (hyperflash_stall_task(hyperflash, task, STALL_TASK_READ, addr, (uint32_t)data, size, 0, 0))
1c001fb2:	87b6                	mv	a5,a3
1c001fb4:	8732                	mv	a4,a2
1c001fb6:	4881                	li	a7,0
1c001fb8:	4801                	li	a6,0
1c001fba:	86a6                	mv	a3,s1
1c001fbc:	4615                	li	a2,5
1c001fbe:	8522                	mv	a0,s0
{
1c001fc0:	ce06                	sw	ra,28(sp)
  if (hyperflash_stall_task(hyperflash, task, STALL_TASK_READ, addr, (uint32_t)data, size, 0, 0))
1c001fc2:	3b51                	jal	1c001d56 <hyperflash_stall_task>
1c001fc4:	ed0d                	bnez	a0,1c001ffe <hyperflash_read_async+0x64>
  task->arg[0] = (uint32_t)callback;
1c001fc6:	1c0027b7          	lui	a5,0x1c002
1c001fca:	00e78793          	addi	a5,a5,14 # 1c00200e <hyperflash_handle_pending_task>
1c001fce:	02040e23          	sb	zero,60(s0)
1c001fd2:	d45c                	sw	a5,44(s0)
  task->implem.keep = 1;
1c001fd4:	4785                	li	a5,1
  task->arg[1] = (uint32_t)arg;
1c001fd6:	03442823          	sw	s4,48(s0)
  task->id = PI_TASK_CALLBACK_ID;
1c001fda:	04042023          	sw	zero,64(s0)
  task->implem.keep = 1;
1c001fde:	c83c                	sw	a5,80(s0)
  pi_hyper_read_async(&hyperflash->hyper_device, addr, data, size, pi_task_callback(&hyperflash->task, hyperflash_handle_pending_task, device));
1c001fe0:	02840713          	addi	a4,s0,40
1c001fe4:	8522                	mv	a0,s0
}
1c001fe6:	4462                	lw	s0,24(sp)
1c001fe8:	40f2                	lw	ra,28(sp)
1c001fea:	4a22                	lw	s4,8(sp)
  pi_hyper_read_async(&hyperflash->hyper_device, addr, data, size, pi_task_callback(&hyperflash->task, hyperflash_handle_pending_task, device));
1c001fec:	86ce                	mv	a3,s3
1c001fee:	864a                	mv	a2,s2
}
1c001ff0:	49b2                	lw	s3,12(sp)
1c001ff2:	4942                	lw	s2,16(sp)
  pi_hyper_read_async(&hyperflash->hyper_device, addr, data, size, pi_task_callback(&hyperflash->task, hyperflash_handle_pending_task, device));
1c001ff4:	85a6                	mv	a1,s1
}
1c001ff6:	44d2                	lw	s1,20(sp)
1c001ff8:	6105                	addi	sp,sp,32
  pi_hyper_read_async(&hyperflash->hyper_device, addr, data, size, pi_task_callback(&hyperflash->task, hyperflash_handle_pending_task, device));
1c001ffa:	2ac0306f          	j	1c0052a6 <pi_hyper_read_async>
}
1c001ffe:	40f2                	lw	ra,28(sp)
1c002000:	4462                	lw	s0,24(sp)
1c002002:	44d2                	lw	s1,20(sp)
1c002004:	4942                	lw	s2,16(sp)
1c002006:	49b2                	lw	s3,12(sp)
1c002008:	4a22                	lw	s4,8(sp)
1c00200a:	6105                	addi	sp,sp,32
1c00200c:	8082                	ret

1c00200e <hyperflash_handle_pending_task>:
{
1c00200e:	1101                	addi	sp,sp,-32
1c002010:	ca26                	sw	s1,20(sp)
  hyperflash_t *hyperflash = (hyperflash_t *)device->data;
1c002012:	4504                	lw	s1,8(a0)
{
1c002014:	cc22                	sw	s0,24(sp)
1c002016:	842a                	mv	s0,a0
1c002018:	ce06                	sw	ra,28(sp)
1c00201a:	c84a                	sw	s2,16(sp)
1c00201c:	c64e                	sw	s3,12(sp)
  return __builtin_pulp_read_then_spr_bit_clr(reg, val);
1c00201e:	30047973          	csrrci	s2,mstatus,8
  pi_task_enqueue(hyperflash->pending_task);
1c002022:	4c88                	lw	a0,24(s1)
1c002024:	300479f3          	csrrci	s3,mstatus,8
  __rt_event_enqueue(event);
1c002028:	3311                	jal	1c001d2c <__rt_event_enqueue>
  __builtin_pulp_spr_write(reg, val);
1c00202a:	30099073          	csrw	mstatus,s3
  pi_task_t *task = hyperflash->waiting_first;
1c00202e:	4898                	lw	a4,16(s1)
  hyperflash->pending_task = NULL;
1c002030:	0004ac23          	sw	zero,24(s1)
  if (task)
1c002034:	c319                	beqz	a4,1c00203a <hyperflash_handle_pending_task+0x2c>
    hyperflash->waiting_first = task->implem.next;
1c002036:	4f5c                	lw	a5,28(a4)
1c002038:	c89c                	sw	a5,16(s1)
1c00203a:	30091073          	csrw	mstatus,s2
  if (task)
1c00203e:	cf5d                	beqz	a4,1c0020fc <hyperflash_handle_pending_task+0xee>
    if (task->implem.data[0] == STALL_TASK_PROGRAM)
1c002040:	5f1c                	lw	a5,56(a4)
1c002042:	ef81                	bnez	a5,1c00205a <hyperflash_handle_pending_task+0x4c>
      hyperflash_program_async(device, task->implem.data[1], (void *)task->implem.data[2], task->implem.data[3], task);
1c002044:	8522                	mv	a0,s0
}
1c002046:	4462                	lw	s0,24(sp)
1c002048:	40f2                	lw	ra,28(sp)
1c00204a:	44d2                	lw	s1,20(sp)
1c00204c:	4942                	lw	s2,16(sp)
1c00204e:	49b2                	lw	s3,12(sp)
      hyperflash_program_async(device, task->implem.data[1], (void *)task->implem.data[2], task->implem.data[3], task);
1c002050:	4374                	lw	a3,68(a4)
1c002052:	4330                	lw	a2,64(a4)
1c002054:	5f4c                	lw	a1,60(a4)
}
1c002056:	6105                	addi	sp,sp,32
      hyperflash_program_async(device, task->implem.data[1], (void *)task->implem.data[2], task->implem.data[3], task);
1c002058:	a421                	j	1c002260 <hyperflash_program_async>
    else if (task->implem.data[0] == STALL_TASK_ERASE_CHIP)
1c00205a:	0017bb63          	p.bneimm	a5,1,1c002070 <hyperflash_handle_pending_task+0x62>
      hyperflash_erase_chip_async(device, task);
1c00205e:	8522                	mv	a0,s0
}
1c002060:	4462                	lw	s0,24(sp)
1c002062:	40f2                	lw	ra,28(sp)
1c002064:	44d2                	lw	s1,20(sp)
1c002066:	4942                	lw	s2,16(sp)
1c002068:	49b2                	lw	s3,12(sp)
      hyperflash_erase_chip_async(device, task);
1c00206a:	85ba                	mv	a1,a4
}
1c00206c:	6105                	addi	sp,sp,32
      hyperflash_erase_chip_async(device, task);
1c00206e:	b559                	j	1c001ef4 <hyperflash_erase_chip_async>
    else if (task->implem.data[0] == STALL_TASK_ERASE_SECTOR)
1c002070:	0027bc63          	p.bneimm	a5,2,1c002088 <hyperflash_handle_pending_task+0x7a>
      hyperflash_erase_sector_async(device, task->implem.data[1], task);
1c002074:	8522                	mv	a0,s0
}
1c002076:	4462                	lw	s0,24(sp)
1c002078:	40f2                	lw	ra,28(sp)
1c00207a:	44d2                	lw	s1,20(sp)
1c00207c:	4942                	lw	s2,16(sp)
1c00207e:	49b2                	lw	s3,12(sp)
      hyperflash_erase_sector_async(device, task->implem.data[1], task);
1c002080:	5f4c                	lw	a1,60(a4)
1c002082:	863a                	mv	a2,a4
}
1c002084:	6105                	addi	sp,sp,32
      hyperflash_erase_sector_async(device, task->implem.data[1], task);
1c002086:	bb7d                	j	1c001e44 <hyperflash_erase_sector_async>
    else if (task->implem.data[0] == STALL_TASK_REG_SET)
1c002088:	0037bd63          	p.bneimm	a5,3,1c0020a2 <hyperflash_handle_pending_task+0x94>
      hyperflash_reg_set_async(device, task->implem.data[1], (uint8_t *)task->implem.data[2], task);
1c00208c:	8522                	mv	a0,s0
}
1c00208e:	4462                	lw	s0,24(sp)
1c002090:	40f2                	lw	ra,28(sp)
1c002092:	44d2                	lw	s1,20(sp)
1c002094:	4942                	lw	s2,16(sp)
1c002096:	49b2                	lw	s3,12(sp)
      hyperflash_reg_set_async(device, task->implem.data[1], (uint8_t *)task->implem.data[2], task);
1c002098:	4330                	lw	a2,64(a4)
1c00209a:	5f4c                	lw	a1,60(a4)
1c00209c:	86ba                	mv	a3,a4
}
1c00209e:	6105                	addi	sp,sp,32
      hyperflash_reg_set_async(device, task->implem.data[1], (uint8_t *)task->implem.data[2], task);
1c0020a0:	a0d9                	j	1c002166 <hyperflash_reg_set_async>
    else if (task->implem.data[0] == STALL_TASK_REG_GET)
1c0020a2:	0047bd63          	p.bneimm	a5,4,1c0020bc <hyperflash_handle_pending_task+0xae>
      hyperflash_reg_get_async(device, task->implem.data[1], (uint8_t *)task->implem.data[2], task);
1c0020a6:	8522                	mv	a0,s0
}
1c0020a8:	4462                	lw	s0,24(sp)
1c0020aa:	40f2                	lw	ra,28(sp)
1c0020ac:	44d2                	lw	s1,20(sp)
1c0020ae:	4942                	lw	s2,16(sp)
1c0020b0:	49b2                	lw	s3,12(sp)
      hyperflash_reg_get_async(device, task->implem.data[1], (uint8_t *)task->implem.data[2], task);
1c0020b2:	4330                	lw	a2,64(a4)
1c0020b4:	5f4c                	lw	a1,60(a4)
1c0020b6:	86ba                	mv	a3,a4
}
1c0020b8:	6105                	addi	sp,sp,32
      hyperflash_reg_get_async(device, task->implem.data[1], (uint8_t *)task->implem.data[2], task);
1c0020ba:	a881                	j	1c00210a <hyperflash_reg_get_async>
    else if (task->implem.data[0] == STALL_TASK_READ)
1c0020bc:	0057bd63          	p.bneimm	a5,5,1c0020d6 <hyperflash_handle_pending_task+0xc8>
      hyperflash_read_async(device, task->implem.data[1], (void *)task->implem.data[2], task->implem.data[3], task);
1c0020c0:	8522                	mv	a0,s0
}
1c0020c2:	4462                	lw	s0,24(sp)
1c0020c4:	40f2                	lw	ra,28(sp)
1c0020c6:	44d2                	lw	s1,20(sp)
1c0020c8:	4942                	lw	s2,16(sp)
1c0020ca:	49b2                	lw	s3,12(sp)
      hyperflash_read_async(device, task->implem.data[1], (void *)task->implem.data[2], task->implem.data[3], task);
1c0020cc:	4374                	lw	a3,68(a4)
1c0020ce:	4330                	lw	a2,64(a4)
1c0020d0:	5f4c                	lw	a1,60(a4)
}
1c0020d2:	6105                	addi	sp,sp,32
      hyperflash_read_async(device, task->implem.data[1], (void *)task->implem.data[2], task->implem.data[3], task);
1c0020d4:	b5d9                	j	1c001f9a <hyperflash_read_async>
    else if (task->implem.data[0] == STALL_TASK_READ_2D)
1c0020d6:	0267b363          	p.bneimm	a5,6,1c0020fc <hyperflash_handle_pending_task+0xee>
      hyperflash_read_2d_async(device, task->implem.data[1], (void *)task->implem.data[2], task->implem.data[3], task->implem.data[4], task->implem.data[5], task);
1c0020da:	883a                	mv	a6,a4
1c0020dc:	8522                	mv	a0,s0
}
1c0020de:	4462                	lw	s0,24(sp)
      hyperflash_read_2d_async(device, task->implem.data[1], (void *)task->implem.data[2], task->implem.data[3], task->implem.data[4], task->implem.data[5], task);
1c0020e0:	477c                	lw	a5,76(a4)
}
1c0020e2:	40f2                	lw	ra,28(sp)
1c0020e4:	44d2                	lw	s1,20(sp)
1c0020e6:	4942                	lw	s2,16(sp)
1c0020e8:	49b2                	lw	s3,12(sp)
      hyperflash_read_2d_async(device, task->implem.data[1], (void *)task->implem.data[2], task->implem.data[3], task->implem.data[4], task->implem.data[5], task);
1c0020ea:	4738                	lw	a4,72(a4)
1c0020ec:	04482683          	lw	a3,68(a6)
1c0020f0:	04082603          	lw	a2,64(a6)
1c0020f4:	03c82583          	lw	a1,60(a6)
}
1c0020f8:	6105                	addi	sp,sp,32
      hyperflash_read_2d_async(device, task->implem.data[1], (void *)task->implem.data[2], task->implem.data[3], task->implem.data[4], task->implem.data[5], task);
1c0020fa:	b971                	j	1c001d96 <hyperflash_read_2d_async>
}
1c0020fc:	40f2                	lw	ra,28(sp)
1c0020fe:	4462                	lw	s0,24(sp)
1c002100:	44d2                	lw	s1,20(sp)
1c002102:	4942                	lw	s2,16(sp)
1c002104:	49b2                	lw	s3,12(sp)
1c002106:	6105                	addi	sp,sp,32
1c002108:	8082                	ret

1c00210a <hyperflash_reg_get_async>:
{
1c00210a:	1101                	addi	sp,sp,-32
1c00210c:	cc22                	sw	s0,24(sp)
  hyperflash_t *hyperflash = (hyperflash_t *)device->data;
1c00210e:	4500                	lw	s0,8(a0)
{
1c002110:	c64e                	sw	s3,12(sp)
1c002112:	89ae                	mv	s3,a1
1c002114:	ca26                	sw	s1,20(sp)
1c002116:	c84a                	sw	s2,16(sp)
1c002118:	84aa                	mv	s1,a0
1c00211a:	8932                	mv	s2,a2
1c00211c:	85b6                	mv	a1,a3
  if (hyperflash_stall_task(hyperflash, task, STALL_TASK_REG_GET, addr, (uint32_t)value, 0, 0, 0))
1c00211e:	8732                	mv	a4,a2
1c002120:	4881                	li	a7,0
1c002122:	4801                	li	a6,0
1c002124:	4781                	li	a5,0
1c002126:	86ce                	mv	a3,s3
1c002128:	4611                	li	a2,4
1c00212a:	8522                	mv	a0,s0
{
1c00212c:	ce06                	sw	ra,28(sp)
  if (hyperflash_stall_task(hyperflash, task, STALL_TASK_REG_GET, addr, (uint32_t)value, 0, 0, 0))
1c00212e:	3125                	jal	1c001d56 <hyperflash_stall_task>
1c002130:	e505                	bnez	a0,1c002158 <hyperflash_reg_get_async+0x4e>
  pi_hyper_read(&hyperflash->hyper_device, addr, hyperflash->udma_buffer, 4);
1c002132:	8522                	mv	a0,s0
1c002134:	00c40613          	addi	a2,s0,12
1c002138:	85ce                	mv	a1,s3
1c00213a:	4691                	li	a3,4
1c00213c:	180030ef          	jal	ra,1c0052bc <pi_hyper_read>
  return hyperflash->udma_buffer[0];
1c002140:	00c45783          	lhu	a5,12(s0)
}
1c002144:	4462                	lw	s0,24(sp)
1c002146:	40f2                	lw	ra,28(sp)
  *(uint16_t *)value = hyperflash_get_reg_exec(hyperflash, addr);
1c002148:	00f91023          	sh	a5,0(s2)
}
1c00214c:	49b2                	lw	s3,12(sp)
1c00214e:	4942                	lw	s2,16(sp)
  hyperflash_handle_pending_task(device);
1c002150:	8526                	mv	a0,s1
}
1c002152:	44d2                	lw	s1,20(sp)
1c002154:	6105                	addi	sp,sp,32
  hyperflash_handle_pending_task(device);
1c002156:	bd65                	j	1c00200e <hyperflash_handle_pending_task>
}
1c002158:	40f2                	lw	ra,28(sp)
1c00215a:	4462                	lw	s0,24(sp)
1c00215c:	44d2                	lw	s1,20(sp)
1c00215e:	4942                	lw	s2,16(sp)
1c002160:	49b2                	lw	s3,12(sp)
1c002162:	6105                	addi	sp,sp,32
1c002164:	8082                	ret

1c002166 <hyperflash_reg_set_async>:
{
1c002166:	1101                	addi	sp,sp,-32
1c002168:	ca26                	sw	s1,20(sp)
  hyperflash_t *hyperflash = (hyperflash_t *)device->data;
1c00216a:	4504                	lw	s1,8(a0)
{
1c00216c:	c84a                	sw	s2,16(sp)
1c00216e:	892e                	mv	s2,a1
1c002170:	cc22                	sw	s0,24(sp)
1c002172:	c64e                	sw	s3,12(sp)
1c002174:	842a                	mv	s0,a0
1c002176:	89b2                	mv	s3,a2
1c002178:	85b6                	mv	a1,a3
  if (hyperflash_stall_task(hyperflash, task, STALL_TASK_REG_SET, addr, (uint32_t)value, 0, 0, 0))
1c00217a:	8732                	mv	a4,a2
1c00217c:	4881                	li	a7,0
1c00217e:	4801                	li	a6,0
1c002180:	4781                	li	a5,0
1c002182:	86ca                	mv	a3,s2
1c002184:	460d                	li	a2,3
1c002186:	8526                	mv	a0,s1
{
1c002188:	ce06                	sw	ra,28(sp)
  if (hyperflash_stall_task(hyperflash, task, STALL_TASK_REG_SET, addr, (uint32_t)value, 0, 0, 0))
1c00218a:	36f1                	jal	1c001d56 <hyperflash_stall_task>
1c00218c:	ed11                	bnez	a0,1c0021a8 <hyperflash_reg_set_async+0x42>
  hyperflash_set_reg_exec(hyperflash, addr, *(uint16_t *)value);
1c00218e:	0009d603          	lhu	a2,0(s3)
1c002192:	8526                	mv	a0,s1
1c002194:	85ca                	mv	a1,s2
1c002196:	3145                	jal	1c001e36 <hyperflash_set_reg_exec>
  hyperflash_handle_pending_task(device);
1c002198:	8522                	mv	a0,s0
}
1c00219a:	4462                	lw	s0,24(sp)
1c00219c:	40f2                	lw	ra,28(sp)
1c00219e:	44d2                	lw	s1,20(sp)
1c0021a0:	4942                	lw	s2,16(sp)
1c0021a2:	49b2                	lw	s3,12(sp)
1c0021a4:	6105                	addi	sp,sp,32
  hyperflash_handle_pending_task(device);
1c0021a6:	b5a5                	j	1c00200e <hyperflash_handle_pending_task>
}
1c0021a8:	40f2                	lw	ra,28(sp)
1c0021aa:	4462                	lw	s0,24(sp)
1c0021ac:	44d2                	lw	s1,20(sp)
1c0021ae:	4942                	lw	s2,16(sp)
1c0021b0:	49b2                	lw	s3,12(sp)
1c0021b2:	6105                	addi	sp,sp,32
1c0021b4:	8082                	ret

1c0021b6 <hyperflash_program_resume>:
{
1c0021b6:	1101                	addi	sp,sp,-32
1c0021b8:	cc22                	sw	s0,24(sp)
  hyperflash_t *hyperflash = (hyperflash_t *)device->data;
1c0021ba:	4500                	lw	s0,8(a0)
{
1c0021bc:	ce06                	sw	ra,28(sp)
1c0021be:	ca26                	sw	s1,20(sp)
  if (hyperflash->pending_size == 0)
1c0021c0:	13042683          	lw	a3,304(s0)
{
1c0021c4:	c84a                	sw	s2,16(sp)
  if (hyperflash->pending_size == 0)
1c0021c6:	e699                	bnez	a3,1c0021d4 <hyperflash_program_resume+0x1e>
}
1c0021c8:	4462                	lw	s0,24(sp)
1c0021ca:	40f2                	lw	ra,28(sp)
1c0021cc:	44d2                	lw	s1,20(sp)
1c0021ce:	4942                	lw	s2,16(sp)
1c0021d0:	6105                	addi	sp,sp,32
    hyperflash_handle_pending_task(device);
1c0021d2:	bd35                	j	1c00200e <hyperflash_handle_pending_task>
    unsigned int iter_size = 512 - (hyperflash->pending_hyper_addr & 0x1ff);
1c0021d4:	12842783          	lw	a5,296(s0)
    hyperflash_set_reg_exec(hyperflash, 0x555<<1, 0xAA);
1c0021d8:	6905                	lui	s2,0x1
1c0021da:	84aa                	mv	s1,a0
    unsigned int iter_size = 512 - (hyperflash->pending_hyper_addr & 0x1ff);
1c0021dc:	ec97b733          	p.bclr	a4,a5,22,9
1c0021e0:	20000793          	li	a5,512
1c0021e4:	8f99                	sub	a5,a5,a4
1c0021e6:	04f6d6b3          	p.minu	a3,a3,a5
    hyperflash_set_reg_exec(hyperflash, 0x555<<1, 0xAA);
1c0021ea:	aaa90593          	addi	a1,s2,-1366 # aaa <__rt_stack_size+0x2aa>
1c0021ee:	8522                	mv	a0,s0
1c0021f0:	0aa00613          	li	a2,170
1c0021f4:	c636                	sw	a3,12(sp)
1c0021f6:	3181                	jal	1c001e36 <hyperflash_set_reg_exec>
    hyperflash_set_reg_exec(hyperflash, 0x2AA<<1, 0x55);
1c0021f8:	8522                	mv	a0,s0
1c0021fa:	05500613          	li	a2,85
1c0021fe:	55400593          	li	a1,1364
1c002202:	3915                	jal	1c001e36 <hyperflash_set_reg_exec>
    hyperflash_set_reg_exec(hyperflash, 0x555<<1, 0xA0);
1c002204:	aaa90593          	addi	a1,s2,-1366
1c002208:	8522                	mv	a0,s0
1c00220a:	0a000613          	li	a2,160
1c00220e:	3125                	jal	1c001e36 <hyperflash_set_reg_exec>
    hyperflash->pending_hyper_addr += iter_size;
1c002210:	46b2                	lw	a3,12(sp)
    uint32_t hyper_addr = hyperflash->pending_hyper_addr;
1c002212:	12842583          	lw	a1,296(s0)
    uint32_t data = hyperflash->pending_data;
1c002216:	12c42603          	lw	a2,300(s0)
  task->done = 0;
1c00221a:	02040e23          	sb	zero,60(s0)
    hyperflash->pending_hyper_addr += iter_size;
1c00221e:	00d587b3          	add	a5,a1,a3
1c002222:	12f42423          	sw	a5,296(s0)
    hyperflash->pending_data += iter_size;
1c002226:	00d607b3          	add	a5,a2,a3
1c00222a:	12f42623          	sw	a5,300(s0)
    hyperflash->pending_size -= iter_size;
1c00222e:	13042783          	lw	a5,304(s0)
  task->arg[1] = (uint32_t)arg;
1c002232:	d804                	sw	s1,48(s0)
  task->id = PI_TASK_CALLBACK_ID;
1c002234:	04042023          	sw	zero,64(s0)
1c002238:	8f95                	sub	a5,a5,a3
1c00223a:	12f42823          	sw	a5,304(s0)
  task->arg[0] = (uint32_t)callback;
1c00223e:	1c0027b7          	lui	a5,0x1c002
1c002242:	65c78793          	addi	a5,a5,1628 # 1c00265c <hyperflash_check_program>
1c002246:	d45c                	sw	a5,44(s0)
  task->implem.keep = 1;
1c002248:	4785                	li	a5,1
1c00224a:	c83c                	sw	a5,80(s0)
    pi_hyper_write_async(&hyperflash->hyper_device, hyper_addr, (void *)data, iter_size, pi_task_callback(&hyperflash->task, hyperflash_check_program, device));
1c00224c:	02840713          	addi	a4,s0,40
1c002250:	8522                	mv	a0,s0
}
1c002252:	4462                	lw	s0,24(sp)
1c002254:	40f2                	lw	ra,28(sp)
1c002256:	44d2                	lw	s1,20(sp)
1c002258:	4942                	lw	s2,16(sp)
1c00225a:	6105                	addi	sp,sp,32
    pi_hyper_write_async(&hyperflash->hyper_device, hyper_addr, (void *)data, iter_size, pi_task_callback(&hyperflash->task, hyperflash_check_program, device));
1c00225c:	0820306f          	j	1c0052de <pi_hyper_write_async>

1c002260 <hyperflash_program_async>:
{
1c002260:	1101                	addi	sp,sp,-32
1c002262:	cc22                	sw	s0,24(sp)
  hyperflash_t *hyperflash = (hyperflash_t *)device->data;
1c002264:	4500                	lw	s0,8(a0)
{
1c002266:	c452                	sw	s4,8(sp)
1c002268:	8a2e                	mv	s4,a1
1c00226a:	ca26                	sw	s1,20(sp)
1c00226c:	c84a                	sw	s2,16(sp)
1c00226e:	c64e                	sw	s3,12(sp)
1c002270:	84aa                	mv	s1,a0
1c002272:	89b2                	mv	s3,a2
1c002274:	8936                	mv	s2,a3
1c002276:	85ba                	mv	a1,a4
  if (hyperflash_stall_task(hyperflash, task, STALL_TASK_PROGRAM, hyper_addr, (uint32_t)data, size, 0, 0))
1c002278:	87b6                	mv	a5,a3
1c00227a:	8732                	mv	a4,a2
1c00227c:	4881                	li	a7,0
1c00227e:	4801                	li	a6,0
1c002280:	86d2                	mv	a3,s4
1c002282:	4601                	li	a2,0
1c002284:	8522                	mv	a0,s0
{
1c002286:	ce06                	sw	ra,28(sp)
  if (hyperflash_stall_task(hyperflash, task, STALL_TASK_PROGRAM, hyper_addr, (uint32_t)data, size, 0, 0))
1c002288:	acfff0ef          	jal	ra,1c001d56 <hyperflash_stall_task>
1c00228c:	e105                	bnez	a0,1c0022ac <hyperflash_program_async+0x4c>
  hyperflash->pending_hyper_addr = hyper_addr;
1c00228e:	13442423          	sw	s4,296(s0)
  hyperflash->pending_data = (uint32_t)data;
1c002292:	13342623          	sw	s3,300(s0)
  hyperflash->pending_size = size;
1c002296:	13242823          	sw	s2,304(s0)
}
1c00229a:	4462                	lw	s0,24(sp)
1c00229c:	40f2                	lw	ra,28(sp)
1c00229e:	4942                	lw	s2,16(sp)
1c0022a0:	49b2                	lw	s3,12(sp)
1c0022a2:	4a22                	lw	s4,8(sp)
  hyperflash_program_resume(device);
1c0022a4:	8526                	mv	a0,s1
}
1c0022a6:	44d2                	lw	s1,20(sp)
1c0022a8:	6105                	addi	sp,sp,32
  hyperflash_program_resume(device);
1c0022aa:	b731                	j	1c0021b6 <hyperflash_program_resume>
}
1c0022ac:	40f2                	lw	ra,28(sp)
1c0022ae:	4462                	lw	s0,24(sp)
1c0022b0:	44d2                	lw	s1,20(sp)
1c0022b2:	4942                	lw	s2,16(sp)
1c0022b4:	49b2                	lw	s3,12(sp)
1c0022b6:	4a22                	lw	s4,8(sp)
1c0022b8:	6105                	addi	sp,sp,32
1c0022ba:	8082                	ret

1c0022bc <hyperflash_copy_async>:
{
1c0022bc:	1141                	addi	sp,sp,-16
1c0022be:	c606                	sw	ra,12(sp)
  if (!ext2loc)
1c0022c0:	e719                	bnez	a4,1c0022ce <hyperflash_copy_async+0x12>
    hyperflash_program_async(device, flash_addr, buffer, size, task);
1c0022c2:	873e                	mv	a4,a5
1c0022c4:	3f71                	jal	1c002260 <hyperflash_program_async>
}
1c0022c6:	40b2                	lw	ra,12(sp)
1c0022c8:	4501                	li	a0,0
1c0022ca:	0141                	addi	sp,sp,16
1c0022cc:	8082                	ret
    hyperflash_read_async(device, flash_addr, buffer, size, task);
1c0022ce:	873e                	mv	a4,a5
1c0022d0:	31e9                	jal	1c001f9a <hyperflash_read_async>
1c0022d2:	bfd5                	j	1c0022c6 <hyperflash_copy_async+0xa>

1c0022d4 <hyperflash_close>:
{
1c0022d4:	1141                	addi	sp,sp,-16
1c0022d6:	c422                	sw	s0,8(sp)
  hyperflash_t *hyperflash = (hyperflash_t *)device->data;
1c0022d8:	4500                	lw	s0,8(a0)
{
1c0022da:	c606                	sw	ra,12(sp)
  pi_hyper_close(&hyperflash->hyper_device);
1c0022dc:	8522                	mv	a0,s0
1c0022de:	631020ef          	jal	ra,1c00510e <pi_hyper_close>
  pmsis_l2_malloc_free(hyperflash, sizeof(hyperflash_t));
1c0022e2:	8522                	mv	a0,s0
}
1c0022e4:	4422                	lw	s0,8(sp)
1c0022e6:	40b2                	lw	ra,12(sp)
  pmsis_l2_malloc_free(hyperflash, sizeof(hyperflash_t));
1c0022e8:	13c00593          	li	a1,316
}
1c0022ec:	0141                	addi	sp,sp,16
  pmsis_l2_malloc_free(hyperflash, sizeof(hyperflash_t));
1c0022ee:	4bb0106f          	j	1c003fa8 <pi_l2_free>

1c0022f2 <hyperflash_open>:
{
1c0022f2:	7179                	addi	sp,sp,-48
1c0022f4:	d226                	sw	s1,36(sp)
1c0022f6:	d04a                	sw	s2,32(sp)
1c0022f8:	84aa                	mv	s1,a0
  struct pi_hyperflash_conf *conf = (struct pi_hyperflash_conf *)device->config;
1c0022fa:	00452903          	lw	s2,4(a0)
  hyperflash_t *hyperflash = (hyperflash_t *)pmsis_l2_malloc(sizeof(hyperflash_t));
1c0022fe:	13c00513          	li	a0,316
{
1c002302:	d606                	sw	ra,44(sp)
1c002304:	d422                	sw	s0,40(sp)
  hyperflash_t *hyperflash = (hyperflash_t *)pmsis_l2_malloc(sizeof(hyperflash_t));
1c002306:	497010ef          	jal	ra,1c003f9c <pi_l2_malloc>
  if (hyperflash == NULL)
1c00230a:	c935                	beqz	a0,1c00237e <hyperflash_open+0x8c>
  device->data = (void *)hyperflash;
1c00230c:	c488                	sw	a0,8(s1)
1c00230e:	842a                	mv	s0,a0
  if (bsp_hyperflash_open(conf))
1c002310:	854a                	mv	a0,s2
1c002312:	1ee010ef          	jal	ra,1c003500 <bsp_hyperflash_open>
1c002316:	84aa                	mv	s1,a0
1c002318:	ed21                	bnez	a0,1c002370 <hyperflash_open+0x7e>
  struct pi_hyper_conf hyper_conf = {0};
1c00231a:	4671                	li	a2,28
1c00231c:	4581                	li	a1,0
1c00231e:	0048                	addi	a0,sp,4
1c002320:	45b030ef          	jal	ra,1c005f7a <memset>
  pi_hyper_conf_init(&hyper_conf);
1c002324:	0048                	addi	a0,sp,4
1c002326:	479020ef          	jal	ra,1c004f9e <pi_hyper_conf_init>
  hyper_conf.id = (unsigned char) conf->hyper_itf;
1c00232a:	00492783          	lw	a5,4(s2)
  pi_open_from_conf(&hyperflash->hyper_device, &hyper_conf);
1c00232e:	8522                	mv	a0,s0
1c002330:	004c                	addi	a1,sp,4
  hyper_conf.id = (unsigned char) conf->hyper_itf;
1c002332:	00f10423          	sb	a5,8(sp)
  hyper_conf.cs = conf->hyper_cs;
1c002336:	00892783          	lw	a5,8(s2)
  hyper_conf.type = PI_HYPER_TYPE_FLASH;
1c00233a:	c802                	sw	zero,16(sp)
  hyper_conf.cs = conf->hyper_cs;
1c00233c:	c63e                	sw	a5,12(sp)
  hyper_conf.xip_en = conf->xip_en;
1c00233e:	00c92783          	lw	a5,12(s2)
1c002342:	00f104a3          	sb	a5,9(sp)
  pi_open_from_conf(&hyperflash->hyper_device, &hyper_conf);
1c002346:	37c010ef          	jal	ra,1c0036c2 <pi_open_from_conf>
  int32_t error = pi_hyper_open(&hyperflash->hyper_device);
1c00234a:	8522                	mv	a0,s0
1c00234c:	463020ef          	jal	ra,1c004fae <pi_hyper_open>
  if (error)
1c002350:	e105                	bnez	a0,1c002370 <hyperflash_open+0x7e>
  hyperflash->pending_task = NULL;
1c002352:	00042c23          	sw	zero,24(s0)
  hyperflash->waiting_first = NULL;
1c002356:	00042823          	sw	zero,16(s0)
  hyperflash->erase_task = NULL;
1c00235a:	02042223          	sw	zero,36(s0)
  hyperflash->erase_waiting_first = NULL;
1c00235e:	00042e23          	sw	zero,28(s0)
}
1c002362:	50b2                	lw	ra,44(sp)
1c002364:	5422                	lw	s0,40(sp)
1c002366:	8526                	mv	a0,s1
1c002368:	5902                	lw	s2,32(sp)
1c00236a:	5492                	lw	s1,36(sp)
1c00236c:	6145                	addi	sp,sp,48
1c00236e:	8082                	ret
  pmsis_l2_malloc_free(hyperflash, sizeof(hyperflash_t));
1c002370:	13c00593          	li	a1,316
1c002374:	8522                	mv	a0,s0
1c002376:	433010ef          	jal	ra,1c003fa8 <pi_l2_free>
  return -2;
1c00237a:	54f9                	li	s1,-2
1c00237c:	b7dd                	j	1c002362 <hyperflash_open+0x70>
    return -1;
1c00237e:	54fd                	li	s1,-1
1c002380:	b7cd                	j	1c002362 <hyperflash_open+0x70>

1c002382 <pi_task_wait_on.isra.3>:
static inline void pi_task_wait_on(struct pi_task *task)
1c002382:	1141                	addi	sp,sp,-16
1c002384:	c422                	sw	s0,8(sp)
1c002386:	c226                	sw	s1,4(sp)
1c002388:	c606                	sw	ra,12(sp)
1c00238a:	c04a                	sw	s2,0(sp)
1c00238c:	842a                	mv	s0,a0
  while(!task->done)
1c00238e:	00040783          	lb	a5,0(s0)
1c002392:	c799                	beqz	a5,1c0023a0 <pi_task_wait_on.isra.3+0x1e>
}
1c002394:	40b2                	lw	ra,12(sp)
1c002396:	4422                	lw	s0,8(sp)
1c002398:	4492                	lw	s1,4(sp)
1c00239a:	4902                	lw	s2,0(sp)
1c00239c:	0141                	addi	sp,sp,16
1c00239e:	8082                	ret
  return __builtin_pulp_read_then_spr_bit_clr(reg, val);
1c0023a0:	30047973          	csrrci	s2,mstatus,8
  __rt_event_execute(__rt_event_get_current_sched(), wait);
1c0023a4:	4585                	li	a1,1
1c0023a6:	01c00513          	li	a0,28
1c0023aa:	177010ef          	jal	ra,1c003d20 <__rt_event_execute>
  __builtin_pulp_spr_write(reg, val);
1c0023ae:	30091073          	csrw	mstatus,s2
1c0023b2:	bff1                	j	1c00238e <pi_task_wait_on.isra.3+0xc>

1c0023b4 <hyperflash_copy_2d>:
  pi_task_wait_on(&task);
  return 0;
}

static inline int hyperflash_copy_2d(struct pi_device *device, uint32_t pi_flash_addr, void *buffer, uint32_t size, uint32_t stride, uint32_t length, int ext2loc)
{
1c0023b4:	7175                	addi	sp,sp,-144
  task->id = PI_TASK_NONE_ID;
1c0023b6:	4885                	li	a7,1
1c0023b8:	c706                	sw	ra,140(sp)
1c0023ba:	cc46                	sw	a7,24(sp)
  task->arg[0] = (uint32_t)0;
1c0023bc:	c202                	sw	zero,4(sp)
  task->implem.keep = 1;
1c0023be:	d446                	sw	a7,40(sp)
  task->done = 0;
1c0023c0:	00010a23          	sb	zero,20(sp)
  if (!ext2loc)
1c0023c4:	00080b63          	beqz	a6,1c0023da <hyperflash_copy_2d+0x26>
  hyperflash_read_2d_async(device, flash_addr, buffer, size, stride, length, task);
1c0023c8:	880a                	mv	a6,sp
1c0023ca:	9cdff0ef          	jal	ra,1c001d96 <hyperflash_read_2d_async>
  pi_task_t task;
  pi_task_block(&task);
  if (hyperflash_copy_2d_async(device, pi_flash_addr, buffer, size, stride, length, ext2loc, &task))
    return -1;
  pi_task_wait_on(&task);
1c0023ce:	0848                	addi	a0,sp,20
1c0023d0:	3f4d                	jal	1c002382 <pi_task_wait_on.isra.3>
  return 0;
1c0023d2:	4501                	li	a0,0
}
1c0023d4:	40ba                	lw	ra,140(sp)
1c0023d6:	6149                	addi	sp,sp,144
1c0023d8:	8082                	ret
    return -1;
1c0023da:	557d                	li	a0,-1
1c0023dc:	bfe5                	j	1c0023d4 <hyperflash_copy_2d+0x20>

1c0023de <hyperflash_erase_sector>:
{
1c0023de:	7175                	addi	sp,sp,-144
  task->id = PI_TASK_NONE_ID;
1c0023e0:	4785                	li	a5,1
  hyperflash_erase_sector_async(device, pi_flash_addr, pi_task_block(&task));
1c0023e2:	860a                	mv	a2,sp
{
1c0023e4:	c706                	sw	ra,140(sp)
1c0023e6:	cc3e                	sw	a5,24(sp)
  task->implem.keep = 1;
1c0023e8:	d43e                	sw	a5,40(sp)
  task->arg[0] = (uint32_t)0;
1c0023ea:	c202                	sw	zero,4(sp)
1c0023ec:	00010a23          	sb	zero,20(sp)
  hyperflash_erase_sector_async(device, pi_flash_addr, pi_task_block(&task));
1c0023f0:	a55ff0ef          	jal	ra,1c001e44 <hyperflash_erase_sector_async>
  pi_task_wait_on(&task);
1c0023f4:	0848                	addi	a0,sp,20
1c0023f6:	3771                	jal	1c002382 <pi_task_wait_on.isra.3>
}
1c0023f8:	40ba                	lw	ra,140(sp)
1c0023fa:	4501                	li	a0,0
1c0023fc:	6149                	addi	sp,sp,144
1c0023fe:	8082                	ret

1c002400 <hyperflash_erase_chip>:
{
1c002400:	7175                	addi	sp,sp,-144
  task->id = PI_TASK_NONE_ID;
1c002402:	4785                	li	a5,1
  hyperflash_erase_chip_async(device, pi_task_block(&task));
1c002404:	858a                	mv	a1,sp
{
1c002406:	c706                	sw	ra,140(sp)
1c002408:	cc3e                	sw	a5,24(sp)
  task->implem.keep = 1;
1c00240a:	d43e                	sw	a5,40(sp)
  task->arg[0] = (uint32_t)0;
1c00240c:	c202                	sw	zero,4(sp)
1c00240e:	00010a23          	sb	zero,20(sp)
  hyperflash_erase_chip_async(device, pi_task_block(&task));
1c002412:	ae3ff0ef          	jal	ra,1c001ef4 <hyperflash_erase_chip_async>
  pi_task_wait_on(&task);
1c002416:	0848                	addi	a0,sp,20
1c002418:	37ad                	jal	1c002382 <pi_task_wait_on.isra.3>
}
1c00241a:	40ba                	lw	ra,140(sp)
1c00241c:	4501                	li	a0,0
1c00241e:	6149                	addi	sp,sp,144
1c002420:	8082                	ret

1c002422 <hyperflash_read>:
{
1c002422:	7175                	addi	sp,sp,-144
  task->id = PI_TASK_NONE_ID;
1c002424:	4785                	li	a5,1
  hyperflash_read_async(device, pi_flash_addr, data, size, pi_task_block(&task));
1c002426:	870a                	mv	a4,sp
{
1c002428:	c706                	sw	ra,140(sp)
1c00242a:	cc3e                	sw	a5,24(sp)
  task->implem.keep = 1;
1c00242c:	d43e                	sw	a5,40(sp)
  task->arg[0] = (uint32_t)0;
1c00242e:	c202                	sw	zero,4(sp)
1c002430:	00010a23          	sb	zero,20(sp)
  hyperflash_read_async(device, pi_flash_addr, data, size, pi_task_block(&task));
1c002434:	b67ff0ef          	jal	ra,1c001f9a <hyperflash_read_async>
  pi_task_wait_on(&task);
1c002438:	0848                	addi	a0,sp,20
1c00243a:	37a1                	jal	1c002382 <pi_task_wait_on.isra.3>
}
1c00243c:	40ba                	lw	ra,140(sp)
1c00243e:	4501                	li	a0,0
1c002440:	6149                	addi	sp,sp,144
1c002442:	8082                	ret

1c002444 <hyperflash_reg_get>:
{
1c002444:	7175                	addi	sp,sp,-144
  task->id = PI_TASK_NONE_ID;
1c002446:	4785                	li	a5,1
  hyperflash_reg_get_async(device, pi_flash_addr, value, pi_task_block(&task));
1c002448:	868a                	mv	a3,sp
{
1c00244a:	c706                	sw	ra,140(sp)
1c00244c:	cc3e                	sw	a5,24(sp)
  task->implem.keep = 1;
1c00244e:	d43e                	sw	a5,40(sp)
  task->arg[0] = (uint32_t)0;
1c002450:	c202                	sw	zero,4(sp)
1c002452:	00010a23          	sb	zero,20(sp)
  hyperflash_reg_get_async(device, pi_flash_addr, value, pi_task_block(&task));
1c002456:	3955                	jal	1c00210a <hyperflash_reg_get_async>
  pi_task_wait_on(&task);
1c002458:	0848                	addi	a0,sp,20
1c00245a:	3725                	jal	1c002382 <pi_task_wait_on.isra.3>
}
1c00245c:	40ba                	lw	ra,140(sp)
1c00245e:	4501                	li	a0,0
1c002460:	6149                	addi	sp,sp,144
1c002462:	8082                	ret

1c002464 <hyperflash_reg_set>:
{
1c002464:	7175                	addi	sp,sp,-144
  task->id = PI_TASK_NONE_ID;
1c002466:	4785                	li	a5,1
  hyperflash_reg_set_async(device, pi_flash_addr, value, pi_task_block(&task));
1c002468:	868a                	mv	a3,sp
{
1c00246a:	c706                	sw	ra,140(sp)
1c00246c:	cc3e                	sw	a5,24(sp)
  task->implem.keep = 1;
1c00246e:	d43e                	sw	a5,40(sp)
  task->arg[0] = (uint32_t)0;
1c002470:	c202                	sw	zero,4(sp)
1c002472:	00010a23          	sb	zero,20(sp)
  hyperflash_reg_set_async(device, pi_flash_addr, value, pi_task_block(&task));
1c002476:	39c5                	jal	1c002166 <hyperflash_reg_set_async>
  pi_task_wait_on(&task);
1c002478:	0848                	addi	a0,sp,20
1c00247a:	3721                	jal	1c002382 <pi_task_wait_on.isra.3>
}
1c00247c:	40ba                	lw	ra,140(sp)
1c00247e:	4501                	li	a0,0
1c002480:	6149                	addi	sp,sp,144
1c002482:	8082                	ret

1c002484 <hyperflash_program>:
{
1c002484:	7175                	addi	sp,sp,-144
  task->id = PI_TASK_NONE_ID;
1c002486:	4785                	li	a5,1
  hyperflash_program_async(device, pi_flash_addr, data, size, pi_task_block(&task));
1c002488:	870a                	mv	a4,sp
{
1c00248a:	c706                	sw	ra,140(sp)
1c00248c:	cc3e                	sw	a5,24(sp)
  task->implem.keep = 1;
1c00248e:	d43e                	sw	a5,40(sp)
  task->arg[0] = (uint32_t)0;
1c002490:	c202                	sw	zero,4(sp)
1c002492:	00010a23          	sb	zero,20(sp)
  hyperflash_program_async(device, pi_flash_addr, data, size, pi_task_block(&task));
1c002496:	33e9                	jal	1c002260 <hyperflash_program_async>
  pi_task_wait_on(&task);
1c002498:	0848                	addi	a0,sp,20
1c00249a:	35e5                	jal	1c002382 <pi_task_wait_on.isra.3>
}
1c00249c:	40ba                	lw	ra,140(sp)
1c00249e:	4501                	li	a0,0
1c0024a0:	6149                	addi	sp,sp,144
1c0024a2:	8082                	ret

1c0024a4 <hyperflash_copy>:
{
1c0024a4:	7175                	addi	sp,sp,-144
  task->id = PI_TASK_NONE_ID;
1c0024a6:	4785                	li	a5,1
1c0024a8:	cc3e                	sw	a5,24(sp)
  task->implem.keep = 1;
1c0024aa:	d43e                	sw	a5,40(sp)
  if (hyperflash_copy_async(device, pi_flash_addr, buffer, size, ext2loc, &task))
1c0024ac:	878a                	mv	a5,sp
{
1c0024ae:	c522                	sw	s0,136(sp)
1c0024b0:	c706                	sw	ra,140(sp)
  task->arg[0] = (uint32_t)0;
1c0024b2:	c202                	sw	zero,4(sp)
1c0024b4:	00010a23          	sb	zero,20(sp)
  if (hyperflash_copy_async(device, pi_flash_addr, buffer, size, ext2loc, &task))
1c0024b8:	3511                	jal	1c0022bc <hyperflash_copy_async>
    return -1;
1c0024ba:	547d                	li	s0,-1
  if (hyperflash_copy_async(device, pi_flash_addr, buffer, size, ext2loc, &task))
1c0024bc:	e501                	bnez	a0,1c0024c4 <hyperflash_copy+0x20>
1c0024be:	842a                	mv	s0,a0
  pi_task_wait_on(&task);
1c0024c0:	0848                	addi	a0,sp,20
1c0024c2:	35c1                	jal	1c002382 <pi_task_wait_on.isra.3>
}
1c0024c4:	8522                	mv	a0,s0
1c0024c6:	40ba                	lw	ra,140(sp)
1c0024c8:	442a                	lw	s0,136(sp)
1c0024ca:	6149                	addi	sp,sp,144
1c0024cc:	8082                	ret

1c0024ce <hyperflash_erase_resume>:
{
1c0024ce:	1101                	addi	sp,sp,-32
1c0024d0:	cc22                	sw	s0,24(sp)
  hyperflash_t *hyperflash = (hyperflash_t *)device->data;
1c0024d2:	4500                	lw	s0,8(a0)
{
1c0024d4:	ca26                	sw	s1,20(sp)
1c0024d6:	c84a                	sw	s2,16(sp)
  if (hyperflash->pending_erase_size == 0)
1c0024d8:	13842483          	lw	s1,312(s0)
{
1c0024dc:	ce06                	sw	ra,28(sp)
1c0024de:	c64e                	sw	s3,12(sp)
1c0024e0:	892a                	mv	s2,a0
  if (hyperflash->pending_erase_size == 0)
1c0024e2:	ec8d                	bnez	s1,1c00251c <hyperflash_erase_resume+0x4e>
  return __builtin_pulp_read_then_spr_bit_clr(reg, val);
1c0024e4:	300474f3          	csrrci	s1,mstatus,8
  pi_task_enqueue(hyperflash->erase_task);
1c0024e8:	5048                	lw	a0,36(s0)
1c0024ea:	300479f3          	csrrci	s3,mstatus,8
  __rt_event_enqueue(event);
1c0024ee:	83fff0ef          	jal	ra,1c001d2c <__rt_event_enqueue>
  __builtin_pulp_spr_write(reg, val);
1c0024f2:	30099073          	csrw	mstatus,s3
  pi_task_t *task = hyperflash->erase_waiting_first;
1c0024f6:	4c54                	lw	a3,28(s0)
  hyperflash->erase_task = NULL;
1c0024f8:	02042223          	sw	zero,36(s0)
  if (task)
1c0024fc:	c299                	beqz	a3,1c002502 <hyperflash_erase_resume+0x34>
    hyperflash->erase_waiting_first = task->implem.next;
1c0024fe:	4edc                	lw	a5,28(a3)
1c002500:	cc5c                	sw	a5,28(s0)
1c002502:	30049073          	csrw	mstatus,s1
  if (task)
1c002506:	c2b5                	beqz	a3,1c00256a <hyperflash_erase_resume+0x9c>
}
1c002508:	4462                	lw	s0,24(sp)
1c00250a:	40f2                	lw	ra,28(sp)
1c00250c:	44d2                	lw	s1,20(sp)
1c00250e:	49b2                	lw	s3,12(sp)
    hyperflash_erase_async(device, task->implem.data[1], task->implem.data[2], task);
1c002510:	42b0                	lw	a2,64(a3)
1c002512:	5ecc                	lw	a1,60(a3)
1c002514:	854a                	mv	a0,s2
}
1c002516:	4942                	lw	s2,16(sp)
1c002518:	6105                	addi	sp,sp,32
    hyperflash_erase_async(device, task->implem.data[1], task->implem.data[2], task);
1c00251a:	a8b9                	j	1c002578 <hyperflash_erase_async>
    unsigned int iter_size = SECTOR_SIZE - (hyperflash->pending_erase_hyper_addr & (SECTOR_SIZE - 1));
1c00251c:	13442583          	lw	a1,308(s0)
1c002520:	000407b7          	lui	a5,0x40
  task->id = PI_TASK_CALLBACK_ID;
1c002524:	0c042023          	sw	zero,192(s0)
1c002528:	db25b733          	p.bclr	a4,a1,13,18
1c00252c:	8f99                	sub	a5,a5,a4
1c00252e:	04f4d4b3          	p.minu	s1,s1,a5
  task->arg[0] = (uint32_t)callback;
1c002532:	1c0027b7          	lui	a5,0x1c002
1c002536:	4ce78793          	addi	a5,a5,1230 # 1c0024ce <hyperflash_erase_resume>
1c00253a:	0af42623          	sw	a5,172(s0)
  task->implem.keep = 1;
1c00253e:	4785                	li	a5,1
1c002540:	0cf42823          	sw	a5,208(s0)
  task->arg[1] = (uint32_t)arg;
1c002544:	0aa42823          	sw	a0,176(s0)
  task->done = 0;
1c002548:	0a040e23          	sb	zero,188(s0)
    hyperflash_erase_sector_async(device, hyper_addr, pi_task_callback(&hyperflash->task2, hyperflash_erase_resume, device));
1c00254c:	0a840613          	addi	a2,s0,168
1c002550:	8f5ff0ef          	jal	ra,1c001e44 <hyperflash_erase_sector_async>
    hyperflash->pending_erase_hyper_addr += iter_size;
1c002554:	13442783          	lw	a5,308(s0)
1c002558:	97a6                	add	a5,a5,s1
1c00255a:	12f42a23          	sw	a5,308(s0)
    hyperflash->pending_erase_size -= iter_size;
1c00255e:	13842783          	lw	a5,312(s0)
1c002562:	409784b3          	sub	s1,a5,s1
1c002566:	12942c23          	sw	s1,312(s0)
}
1c00256a:	40f2                	lw	ra,28(sp)
1c00256c:	4462                	lw	s0,24(sp)
1c00256e:	44d2                	lw	s1,20(sp)
1c002570:	4942                	lw	s2,16(sp)
1c002572:	49b2                	lw	s3,12(sp)
1c002574:	6105                	addi	sp,sp,32
1c002576:	8082                	ret

1c002578 <hyperflash_erase_async>:
  hyperflash_t *hyperflash = (hyperflash_t *)device->data;
1c002578:	451c                	lw	a5,8(a0)
  return __builtin_pulp_read_then_spr_bit_clr(reg, val);
1c00257a:	30047773          	csrrci	a4,mstatus,8
  if (hyperflash->erase_task != NULL)
1c00257e:	0247a803          	lw	a6,36(a5)
1c002582:	02080463          	beqz	a6,1c0025aa <hyperflash_erase_async+0x32>
    task->implem.data[0] = id;
1c002586:	450d                	li	a0,3
1c002588:	de88                	sw	a0,56(a3)
    task->implem.data[1] = arg0;
1c00258a:	decc                	sw	a1,60(a3)
    task->implem.data[2] = arg1;
1c00258c:	c2b0                	sw	a2,64(a3)
    task->implem.data[3] = arg2;
1c00258e:	0406a223          	sw	zero,68(a3)
    if (hyperflash->erase_waiting_first)
1c002592:	4fd0                	lw	a2,28(a5)
1c002594:	ca09                	beqz	a2,1c0025a6 <hyperflash_erase_async+0x2e>
      hyperflash->erase_waiting_last->implem.next = task;
1c002596:	5390                	lw	a2,32(a5)
1c002598:	ce54                	sw	a3,28(a2)
    hyperflash->erase_waiting_last = task;
1c00259a:	d394                	sw	a3,32(a5)
    task->implem.next = NULL;
1c00259c:	0006ae23          	sw	zero,28(a3)
  __builtin_pulp_spr_write(reg, val);
1c0025a0:	30071073          	csrw	mstatus,a4
}
1c0025a4:	8082                	ret
      hyperflash->erase_waiting_first = task;
1c0025a6:	cfd4                	sw	a3,28(a5)
1c0025a8:	bfcd                	j	1c00259a <hyperflash_erase_async+0x22>
  hyperflash->erase_task = task;
1c0025aa:	d3d4                	sw	a3,36(a5)
1c0025ac:	30071073          	csrw	mstatus,a4
  hyperflash->pending_erase_hyper_addr = addr;
1c0025b0:	12b7aa23          	sw	a1,308(a5)
  hyperflash->pending_erase_size = size;
1c0025b4:	12c7ac23          	sw	a2,312(a5)
  hyperflash_erase_resume(device);
1c0025b8:	bf19                	j	1c0024ce <hyperflash_erase_resume>

1c0025ba <hyperflash_erase>:
{
1c0025ba:	7175                	addi	sp,sp,-144
  task->id = PI_TASK_NONE_ID;
1c0025bc:	4785                	li	a5,1
  hyperflash_erase_async(device, pi_flash_addr, size, &task);
1c0025be:	868a                	mv	a3,sp
{
1c0025c0:	c706                	sw	ra,140(sp)
1c0025c2:	cc3e                	sw	a5,24(sp)
  task->implem.keep = 1;
1c0025c4:	d43e                	sw	a5,40(sp)
  task->arg[0] = (uint32_t)0;
1c0025c6:	c202                	sw	zero,4(sp)
1c0025c8:	00010a23          	sb	zero,20(sp)
  hyperflash_erase_async(device, pi_flash_addr, size, &task);
1c0025cc:	3775                	jal	1c002578 <hyperflash_erase_async>
  pi_task_wait_on(&task);
1c0025ce:	0848                	addi	a0,sp,20
1c0025d0:	3b4d                	jal	1c002382 <pi_task_wait_on.isra.3>
}
1c0025d2:	40ba                	lw	ra,140(sp)
1c0025d4:	4501                	li	a0,0
1c0025d6:	6149                	addi	sp,sp,144
1c0025d8:	8082                	ret

1c0025da <hyperflash_get_status_reg>:
  hyperflash_set_reg_exec(hyperflash, 0x555<<1, 0x70);
1c0025da:	6585                	lui	a1,0x1
{
1c0025dc:	1141                	addi	sp,sp,-16
  hyperflash_set_reg_exec(hyperflash, 0x555<<1, 0x70);
1c0025de:	07000613          	li	a2,112
1c0025e2:	aaa58593          	addi	a1,a1,-1366 # aaa <__rt_stack_size+0x2aa>
{
1c0025e6:	c606                	sw	ra,12(sp)
1c0025e8:	c422                	sw	s0,8(sp)
1c0025ea:	842a                	mv	s0,a0
  hyperflash_set_reg_exec(hyperflash, 0x555<<1, 0x70);
1c0025ec:	84bff0ef          	jal	ra,1c001e36 <hyperflash_set_reg_exec>
  pi_hyper_read(&hyperflash->hyper_device, addr, hyperflash->udma_buffer, 4);
1c0025f0:	8522                	mv	a0,s0
1c0025f2:	00c40613          	addi	a2,s0,12
1c0025f6:	4691                	li	a3,4
1c0025f8:	4581                	li	a1,0
1c0025fa:	4c3020ef          	jal	ra,1c0052bc <pi_hyper_read>
}
1c0025fe:	00c45503          	lhu	a0,12(s0)
1c002602:	40b2                	lw	ra,12(sp)
1c002604:	4422                	lw	s0,8(sp)
1c002606:	0141                	addi	sp,sp,16
1c002608:	8082                	ret

1c00260a <hyperflash_check_erase>:
{
1c00260a:	1141                	addi	sp,sp,-16
1c00260c:	c422                	sw	s0,8(sp)
  hyperflash_t *hyperflash = (hyperflash_t *)device->data;
1c00260e:	4500                	lw	s0,8(a0)
{
1c002610:	c226                	sw	s1,4(sp)
1c002612:	84aa                	mv	s1,a0
  uint32_t reg_status = hyperflash_get_status_reg(hyperflash);
1c002614:	8522                	mv	a0,s0
{
1c002616:	c606                	sw	ra,12(sp)
  uint32_t reg_status = hyperflash_get_status_reg(hyperflash);
1c002618:	37c9                	jal	1c0025da <hyperflash_get_status_reg>
  if (((reg_status >> 7) & 1) == 0)
1c00261a:	c0751533          	p.extractu	a0,a0,0,7
1c00261e:	e905                	bnez	a0,1c00264e <hyperflash_check_erase+0x44>
  task->arg[0] = (uint32_t)callback;
1c002620:	1c0027b7          	lui	a5,0x1c002
1c002624:	60a78793          	addi	a5,a5,1546 # 1c00260a <hyperflash_check_erase>
1c002628:	02040e23          	sb	zero,60(s0)
1c00262c:	d45c                	sw	a5,44(s0)
  task->implem.keep = 1;
1c00262e:	4785                	li	a5,1
  task->arg[1] = (uint32_t)arg;
1c002630:	d804                	sw	s1,48(s0)
  task->id = PI_TASK_CALLBACK_ID;
1c002632:	04042023          	sw	zero,64(s0)
  task->implem.keep = 1;
1c002636:	c83c                	sw	a5,80(s0)
    pi_task_push_delayed_us(pi_task_callback(&hyperflash->task, hyperflash_check_erase, device), 100000);
1c002638:	02840513          	addi	a0,s0,40
}
1c00263c:	4422                	lw	s0,8(sp)
1c00263e:	40b2                	lw	ra,12(sp)
1c002640:	4492                	lw	s1,4(sp)
    pi_task_push_delayed_us(pi_task_callback(&hyperflash->task, hyperflash_check_erase, device), 100000);
1c002642:	65e1                	lui	a1,0x18
1c002644:	6a058593          	addi	a1,a1,1696 # 186a0 <__L1Cl+0x86a0>
}
1c002648:	0141                	addi	sp,sp,16
    pi_task_push_delayed_us(pi_task_callback(&hyperflash->task, hyperflash_check_erase, device), 100000);
1c00264a:	78e0106f          	j	1c003dd8 <pi_task_push_delayed_us>
}
1c00264e:	4422                	lw	s0,8(sp)
1c002650:	40b2                	lw	ra,12(sp)
    hyperflash_handle_pending_task(device);
1c002652:	8526                	mv	a0,s1
}
1c002654:	4492                	lw	s1,4(sp)
1c002656:	0141                	addi	sp,sp,16
    hyperflash_handle_pending_task(device);
1c002658:	9b7ff06f          	j	1c00200e <hyperflash_handle_pending_task>

1c00265c <hyperflash_check_program>:
{
1c00265c:	1141                	addi	sp,sp,-16
1c00265e:	c422                	sw	s0,8(sp)
  hyperflash_t *hyperflash = (hyperflash_t *)device->data;
1c002660:	4500                	lw	s0,8(a0)
{
1c002662:	c226                	sw	s1,4(sp)
1c002664:	84aa                	mv	s1,a0
  if (((hyperflash_get_status_reg(hyperflash) >> 7) & 1) == 0)
1c002666:	8522                	mv	a0,s0
{
1c002668:	c606                	sw	ra,12(sp)
  if (((hyperflash_get_status_reg(hyperflash) >> 7) & 1) == 0)
1c00266a:	3f85                	jal	1c0025da <hyperflash_get_status_reg>
1c00266c:	08057513          	andi	a0,a0,128
1c002670:	e51d                	bnez	a0,1c00269e <hyperflash_check_program+0x42>
  task->arg[0] = (uint32_t)callback;
1c002672:	1c0027b7          	lui	a5,0x1c002
1c002676:	65c78793          	addi	a5,a5,1628 # 1c00265c <hyperflash_check_program>
1c00267a:	02040e23          	sb	zero,60(s0)
1c00267e:	d45c                	sw	a5,44(s0)
  task->implem.keep = 1;
1c002680:	4785                	li	a5,1
  task->arg[1] = (uint32_t)arg;
1c002682:	d804                	sw	s1,48(s0)
  task->id = PI_TASK_CALLBACK_ID;
1c002684:	04042023          	sw	zero,64(s0)
  task->implem.keep = 1;
1c002688:	c83c                	sw	a5,80(s0)
    pi_task_push_delayed_us(pi_task_callback(&hyperflash->task, hyperflash_check_program, device), 250);
1c00268a:	02840513          	addi	a0,s0,40
}
1c00268e:	4422                	lw	s0,8(sp)
1c002690:	40b2                	lw	ra,12(sp)
1c002692:	4492                	lw	s1,4(sp)
    pi_task_push_delayed_us(pi_task_callback(&hyperflash->task, hyperflash_check_program, device), 250);
1c002694:	0fa00593          	li	a1,250
}
1c002698:	0141                	addi	sp,sp,16
    pi_task_push_delayed_us(pi_task_callback(&hyperflash->task, hyperflash_check_program, device), 250);
1c00269a:	73e0106f          	j	1c003dd8 <pi_task_push_delayed_us>
}
1c00269e:	4422                	lw	s0,8(sp)
1c0026a0:	40b2                	lw	ra,12(sp)
    hyperflash_program_resume(device);
1c0026a2:	8526                	mv	a0,s1
}
1c0026a4:	4492                	lw	s1,4(sp)
1c0026a6:	0141                	addi	sp,sp,16
    hyperflash_program_resume(device);
1c0026a8:	b0fff06f          	j	1c0021b6 <hyperflash_program_resume>

1c0026ac <pi_hyperflash_conf_init>:
};



void pi_hyperflash_conf_init(struct pi_hyperflash_conf *conf)
{
1c0026ac:	1141                	addi	sp,sp,-16
  conf->flash.api = &hyperflash_api;
1c0026ae:	1c0087b7          	lui	a5,0x1c008
{
1c0026b2:	c606                	sw	ra,12(sp)
1c0026b4:	c422                	sw	s0,8(sp)
  conf->flash.api = &hyperflash_api;
1c0026b6:	92478793          	addi	a5,a5,-1756 # 1c007924 <hyperflash_api>
1c0026ba:	c11c                	sw	a5,0(a0)
{
1c0026bc:	842a                	mv	s0,a0
  bsp_hyperflash_conf_init(conf);
1c0026be:	639000ef          	jal	ra,1c0034f6 <bsp_hyperflash_conf_init>
  __flash_conf_init(&conf->flash);
1c0026c2:	8522                	mv	a0,s0
1c0026c4:	d4ffe0ef          	jal	ra,1c001412 <__flash_conf_init>
  conf->xip_en = 0;
}
1c0026c8:	40b2                	lw	ra,12(sp)
  conf->xip_en = 0;
1c0026ca:	00042623          	sw	zero,12(s0)
}
1c0026ce:	4422                	lw	s0,8(sp)
1c0026d0:	0141                	addi	sp,sp,16
1c0026d2:	8082                	ret

1c0026d4 <pi_partition_get_flash_offset>:
        return 0;
}

uint32_t pi_partition_get_flash_offset(const pi_partition_t *partition)
{
    if(partition)
1c0026d4:	c119                	beqz	a0,1c0026da <pi_partition_get_flash_offset+0x6>
        return partition->offset;
1c0026d6:	4548                	lw	a0,12(a0)
1c0026d8:	8082                	ret
    else
        return UINT32_MAX;
1c0026da:	557d                	li	a0,-1
}
1c0026dc:	8082                	ret

1c0026de <pi_partition_table_free>:

void pi_partition_table_free(pi_partition_table_t table)
{
    flash_partition_table_free((flash_partition_table_t *) table);
1c0026de:	aae9                	j	1c0028b8 <flash_partition_table_free>

1c0026e0 <pi_partition_table_load>:

pi_err_t pi_partition_table_load(pi_device_t *flash, const pi_partition_table_t *table)
{
    pi_err_t rc;
    
    rc = flash_partition_table_load(flash, (const flash_partition_table_t **) table, NULL);
1c0026e0:	4601                	li	a2,0
1c0026e2:	a8d1                	j	1c0027b6 <flash_partition_table_load>

1c0026e4 <pi_partition_find_first>:

const pi_partition_t *
pi_partition_find_first(const pi_partition_table_t table, const pi_partition_type_t type,
                        const pi_partition_subtype_t subtype,
                        const char *label)
{
1c0026e4:	1141                	addi	sp,sp,-16
1c0026e6:	c226                	sw	s1,4(sp)
1c0026e8:	c606                	sw	ra,12(sp)
1c0026ea:	c422                	sw	s0,8(sp)
1c0026ec:	84aa                	mv	s1,a0
    pi_partition_t *partition;
    const flash_partition_info_t *info;
    
    info = flash_partition_find_first((const flash_partition_table_t *) table, type, subtype, label);
1c0026ee:	22fd                	jal	1c0028dc <flash_partition_find_first>
    if(info == NULL)
1c0026f0:	c539                	beqz	a0,1c00273e <pi_partition_find_first+0x5a>
1c0026f2:	842a                	mv	s0,a0
        return NULL;
    
    partition = pi_l2_malloc(sizeof(pi_partition_t));
1c0026f4:	02800513          	li	a0,40
1c0026f8:	0a5010ef          	jal	ra,1c003f9c <pi_l2_malloc>
    partition->type = info->type;
1c0026fc:	00244783          	lbu	a5,2(s0)
    partition->subtype = info->subtype;
    partition->size = info->pos.size;
    partition->offset = info->pos.offset;
    partition->flash = ((const flash_partition_table_t *)table)->flash;
1c002700:	4098                	lw	a4,0(s1)
    partition->type = info->type;
1c002702:	c15c                	sw	a5,4(a0)
    partition->subtype = info->subtype;
1c002704:	00344783          	lbu	a5,3(s0)
1c002708:	c51c                	sw	a5,8(a0)
    partition->size = info->pos.size;
1c00270a:	441c                	lw	a5,8(s0)
1c00270c:	c91c                	sw	a5,16(a0)
    partition->offset = info->pos.offset;
1c00270e:	405c                	lw	a5,4(s0)
1c002710:	c55c                	sw	a5,12(a0)
    partition->flash = ((const flash_partition_table_t *)table)->flash;
1c002712:	87aa                	mv	a5,a0
1c002714:	00e7aa2b          	p.sw	a4,20(a5!)
    memcpy(partition->label, info->label, 16);
1c002718:	4458                	lw	a4,12(s0)
1c00271a:	c398                	sw	a4,0(a5)
1c00271c:	481c                	lw	a5,16(s0)
1c00271e:	cd1c                	sw	a5,24(a0)
1c002720:	485c                	lw	a5,20(s0)
1c002722:	cd5c                	sw	a5,28(a0)
1c002724:	4c1c                	lw	a5,24(s0)
    partition->label[16] = 0;
1c002726:	02050223          	sb	zero,36(a0)
    partition->encrypted = false;
1c00272a:	020502a3          	sb	zero,37(a0)
    memcpy(partition->label, info->label, 16);
1c00272e:	d11c                	sw	a5,32(a0)
    partition->read_only = false;
1c002730:	02050323          	sb	zero,38(a0)
    
    return (const pi_partition_t *) partition;
}
1c002734:	40b2                	lw	ra,12(sp)
1c002736:	4422                	lw	s0,8(sp)
1c002738:	4492                	lw	s1,4(sp)
1c00273a:	0141                	addi	sp,sp,16
1c00273c:	8082                	ret
        return NULL;
1c00273e:	4501                	li	a0,0
1c002740:	bfd5                	j	1c002734 <pi_partition_find_first+0x50>

1c002742 <flash_partition_table_verify>:

pi_err_t flash_partition_table_verify(const flash_partition_table_t *table)
{
    const flash_partition_info_t *part;
    const flash_partition_table_header_t *header = &table->header;
    const flash_partition_info_t *partition_table = table->partitions;
1c002742:	514c                	lw	a1,36(a0)
    MD5_CTX context;
    uint8_t digest[16];

    // Check magic number for each partition
    for (uint8_t num_parts = 0; num_parts < header->nbr_of_entries; num_parts++)
1c002744:	00754683          	lbu	a3,7(a0)
1c002748:	4781                	li	a5,0
1c00274a:	872e                	mv	a4,a1
    {
        part = partition_table + num_parts;
        if (part->magic_bytes != PI_PARTITION_MAGIC)
1c00274c:	1ba00613          	li	a2,442
    for (uint8_t num_parts = 0; num_parts < header->nbr_of_entries; num_parts++)
1c002750:	04f69663          	bne	a3,a5,1c00279c <flash_partition_table_verify+0x5a>
        {
            return PI_ERR_INVALID_STATE;
        }
    }

    if (header->crc_flags)
1c002754:	00854783          	lbu	a5,8(a0)
1c002758:	cfa9                	beqz	a5,1c0027b2 <flash_partition_table_verify+0x70>
{
1c00275a:	7155                	addi	sp,sp,-208
1c00275c:	c5a2                	sw	s0,200(sp)
1c00275e:	842a                	mv	s0,a0
    {
        MD5_Init(&context);
1c002760:	1028                	addi	a0,sp,40
{
1c002762:	c786                	sw	ra,204(sp)
        MD5_Init(&context);
1c002764:	c62e                	sw	a1,12(sp)
1c002766:	2b9000ef          	jal	ra,1c00321e <MD5_Init>
        MD5_Update(&context, (unsigned char *) partition_table,
                   header->nbr_of_entries * sizeof(flash_partition_info_t));
1c00276a:	00744603          	lbu	a2,7(s0)
        MD5_Update(&context, (unsigned char *) partition_table,
1c00276e:	45b2                	lw	a1,12(sp)
1c002770:	1028                	addi	a0,sp,40
1c002772:	0616                	slli	a2,a2,0x5
1c002774:	2dd000ef          	jal	ra,1c003250 <MD5_Update>
        MD5_Final(digest, &context);
1c002778:	102c                	addi	a1,sp,40
1c00277a:	0828                	addi	a0,sp,24
1c00277c:	371000ef          	jal	ra,1c0032ec <MD5_Final>

        if (strncmp((const char *) header->md5, (const char *) digest, sizeof(digest)))
1c002780:	4641                	li	a2,16
1c002782:	082c                	addi	a1,sp,24
1c002784:	01440513          	addi	a0,s0,20
1c002788:	7bc030ef          	jal	ra,1c005f44 <strncmp>
        {
            return PI_ERR_INVALID_CRC;
1c00278c:	47a1                	li	a5,8
        if (strncmp((const char *) header->md5, (const char *) digest, sizeof(digest)))
1c00278e:	e111                	bnez	a0,1c002792 <flash_partition_table_verify+0x50>
        }
    }

    return PI_OK;
1c002790:	4781                	li	a5,0
}
1c002792:	40be                	lw	ra,204(sp)
1c002794:	442e                	lw	s0,200(sp)
1c002796:	853e                	mv	a0,a5
1c002798:	6169                	addi	sp,sp,208
1c00279a:	8082                	ret
        if (part->magic_bytes != PI_PARTITION_MAGIC)
1c00279c:	0207580b          	p.lhu	a6,32(a4!)
1c0027a0:	00c81663          	bne	a6,a2,1c0027ac <flash_partition_table_verify+0x6a>
    for (uint8_t num_parts = 0; num_parts < header->nbr_of_entries; num_parts++)
1c0027a4:	0785                	addi	a5,a5,1
1c0027a6:	0ff7f793          	andi	a5,a5,255
1c0027aa:	b75d                	j	1c002750 <flash_partition_table_verify+0xe>
            return PI_ERR_INVALID_STATE;
1c0027ac:	478d                	li	a5,3
}
1c0027ae:	853e                	mv	a0,a5
1c0027b0:	8082                	ret
    return PI_OK;
1c0027b2:	4781                	li	a5,0
1c0027b4:	bfed                	j	1c0027ae <flash_partition_table_verify+0x6c>

1c0027b6 <flash_partition_table_load>:

pi_err_t flash_partition_table_load(pi_device_t *flash, const flash_partition_table_t **partition_table,
                                    uint8_t *nbr_of_entries)
{
1c0027b6:	1101                	addi	sp,sp,-32
1c0027b8:	ca26                	sw	s1,20(sp)
1c0027ba:	ce06                	sw	ra,28(sp)
1c0027bc:	cc22                	sw	s0,24(sp)
1c0027be:	c84a                	sw	s2,16(sp)
1c0027c0:	c64e                	sw	s3,12(sp)
1c0027c2:	c452                	sw	s4,8(sp)
1c0027c4:	c256                	sw	s5,4(sp)
    flash_partition_info_t *partitions = NULL;

    if(partition_table == NULL)
    {
        PARTITION_TRACE_ERR("Table argument is NULL");
        return PI_ERR_INVALID_ARG;
1c0027c6:	4489                	li	s1,2
    if(partition_table == NULL)
1c0027c8:	c5f9                	beqz	a1,1c002896 <flash_partition_table_load+0xe0>
1c0027ca:	892a                	mv	s2,a0
    }

// Alloc table containing header
    table = pi_l2_malloc(sizeof(*table));
1c0027cc:	02800513          	li	a0,40
1c0027d0:	89b2                	mv	s3,a2
1c0027d2:	8aae                	mv	s5,a1
1c0027d4:	7c8010ef          	jal	ra,1c003f9c <pi_l2_malloc>
1c0027d8:	842a                	mv	s0,a0
    if(table == NULL)
    {
        PARTITION_TRACE_ERR("Unable to allocate partition table in L2.");
        rc = PI_ERR_L2_NO_MEM;
1c0027da:	20100493          	li	s1,513
    if(table == NULL)
1c0027de:	cd45                	beqz	a0,1c002896 <flash_partition_table_load+0xe0>
        goto mount_error;
    }

    table_offset_l2 = pi_l2_malloc(sizeof(*table_offset_l2));
1c0027e0:	4511                	li	a0,4
1c0027e2:	7ba010ef          	jal	ra,1c003f9c <pi_l2_malloc>
1c0027e6:	84aa                	mv	s1,a0
    if(table_offset_l2 == NULL)
1c0027e8:	c169                	beqz	a0,1c0028aa <flash_partition_table_load+0xf4>
  api->read(device, pi_flash_addr, data, size);
1c0027ea:	00092783          	lw	a5,0(s2)
1c0027ee:	862a                	mv	a2,a0
1c0027f0:	4581                	li	a1,0
1c0027f2:	5b9c                	lw	a5,48(a5)
1c0027f4:	4691                	li	a3,4
1c0027f6:	854a                	mv	a0,s2
1c0027f8:	9782                	jalr	a5
        rc = PI_ERR_L2_NO_MEM;
        goto mount_error;
    }

    pi_flash_read(flash, 0, table_offset_l2, 4);
    if(*table_offset_l2 == 0)
1c0027fa:	0004aa03          	lw	s4,0(s1)

    return PI_OK;

    mount_error:
    if(table_offset_l2)
        pi_l2_free(table_offset_l2, sizeof(*table_offset_l2));
1c0027fe:	4591                	li	a1,4
1c002800:	8526                	mv	a0,s1
    if(*table_offset_l2 == 0)
1c002802:	0a0a0763          	beqz	s4,1c0028b0 <flash_partition_table_load+0xfa>
    pi_l2_free(table_offset_l2, sizeof(*table_offset_l2));
1c002806:	7a2010ef          	jal	ra,1c003fa8 <pi_l2_free>
1c00280a:	00092783          	lw	a5,0(s2)
1c00280e:	02000693          	li	a3,32
1c002812:	00440613          	addi	a2,s0,4
1c002816:	5b9c                	lw	a5,48(a5)
1c002818:	85d2                	mv	a1,s4
1c00281a:	854a                	mv	a0,s2
1c00281c:	9782                	jalr	a5
    if(table->header.magic_bytes != PI_PARTITION_TABLE_HEADER_MAGIC)
1c00281e:	00445703          	lhu	a4,4(s0)
1c002822:	2ba00793          	li	a5,698
        rc = PI_ERR_NOT_FOUND;
1c002826:	4495                	li	s1,5
    if(table->header.magic_bytes != PI_PARTITION_TABLE_HEADER_MAGIC)
1c002828:	04f71663          	bne	a4,a5,1c002874 <flash_partition_table_load+0xbe>
    if(table->header.format_version != PI_PARTITION_TABLE_FORMAT_VERSION)
1c00282c:	00644783          	lbu	a5,6(s0)
        rc = PI_ERR_INVALID_VERSION;
1c002830:	44a5                	li	s1,9
    if(table->header.format_version != PI_PARTITION_TABLE_FORMAT_VERSION)
1c002832:	0417b163          	p.bneimm	a5,1,1c002874 <flash_partition_table_load+0xbe>
    table->partitions = pi_l2_malloc(sizeof(flash_partition_info_t) * table->header.nbr_of_entries);
1c002836:	00744503          	lbu	a0,7(s0)
1c00283a:	0516                	slli	a0,a0,0x5
1c00283c:	760010ef          	jal	ra,1c003f9c <pi_l2_malloc>
1c002840:	d048                	sw	a0,36(s0)
1c002842:	862a                	mv	a2,a0
    if(table->partitions == NULL)
1c002844:	c13d                	beqz	a0,1c0028aa <flash_partition_table_load+0xf4>
1c002846:	00092783          	lw	a5,0(s2)
                  sizeof(flash_partition_info_t) * table->header.nbr_of_entries);
1c00284a:	00744683          	lbu	a3,7(s0)
1c00284e:	020a0593          	addi	a1,s4,32
1c002852:	5b9c                	lw	a5,48(a5)
1c002854:	0696                	slli	a3,a3,0x5
1c002856:	854a                	mv	a0,s2
1c002858:	9782                	jalr	a5
    if(table->header.crc_flags)
1c00285a:	00844783          	lbu	a5,8(s0)
1c00285e:	c38d                	beqz	a5,1c002880 <flash_partition_table_load+0xca>
        rc = flash_partition_table_verify(table);
1c002860:	8522                	mv	a0,s0
1c002862:	35c5                	jal	1c002742 <flash_partition_table_verify>
1c002864:	84aa                	mv	s1,a0
        if(rc != PI_OK)
1c002866:	cd09                	beqz	a0,1c002880 <flash_partition_table_load+0xca>
            pi_l2_free(table->partitions, sizeof(flash_partition_info_t) * table->header.nbr_of_entries);
1c002868:	00744583          	lbu	a1,7(s0)
1c00286c:	5048                	lw	a0,36(s0)
1c00286e:	0596                	slli	a1,a1,0x5
1c002870:	738010ef          	jal	ra,1c003fa8 <pi_l2_free>
    if(table)
        pi_l2_free(table, sizeof(*table));
1c002874:	02800593          	li	a1,40
1c002878:	8522                	mv	a0,s0
1c00287a:	72e010ef          	jal	ra,1c003fa8 <pi_l2_free>
1c00287e:	a821                	j	1c002896 <flash_partition_table_load+0xe0>
    table->flash = flash;
1c002880:	01242023          	sw	s2,0(s0)
    *partition_table = table;
1c002884:	008aa023          	sw	s0,0(s5)
    return PI_OK;
1c002888:	4481                	li	s1,0
    if(nbr_of_entries)
1c00288a:	00098663          	beqz	s3,1c002896 <flash_partition_table_load+0xe0>
        *nbr_of_entries = table->header.nbr_of_entries;
1c00288e:	00744783          	lbu	a5,7(s0)
1c002892:	00f98023          	sb	a5,0(s3)
    return rc;
}
1c002896:	40f2                	lw	ra,28(sp)
1c002898:	4462                	lw	s0,24(sp)
1c00289a:	8526                	mv	a0,s1
1c00289c:	4942                	lw	s2,16(sp)
1c00289e:	44d2                	lw	s1,20(sp)
1c0028a0:	49b2                	lw	s3,12(sp)
1c0028a2:	4a22                	lw	s4,8(sp)
1c0028a4:	4a92                	lw	s5,4(sp)
1c0028a6:	6105                	addi	sp,sp,32
1c0028a8:	8082                	ret
        rc = PI_ERR_L2_NO_MEM;
1c0028aa:	20100493          	li	s1,513
1c0028ae:	b7d9                	j	1c002874 <flash_partition_table_load+0xbe>
        pi_l2_free(table_offset_l2, sizeof(*table_offset_l2));
1c0028b0:	6f8010ef          	jal	ra,1c003fa8 <pi_l2_free>
        rc = PI_ERR_NOT_FOUND;
1c0028b4:	4495                	li	s1,5
1c0028b6:	bf7d                	j	1c002874 <flash_partition_table_load+0xbe>

1c0028b8 <flash_partition_table_free>:

void flash_partition_table_free(const flash_partition_table_t *table)
{
1c0028b8:	1141                	addi	sp,sp,-16
1c0028ba:	c422                	sw	s0,8(sp)
1c0028bc:	c606                	sw	ra,12(sp)
    pi_l2_free((void *) table->partitions, sizeof(flash_partition_info_t) * table->header.nbr_of_entries);
1c0028be:	00754583          	lbu	a1,7(a0)
{
1c0028c2:	842a                	mv	s0,a0
    pi_l2_free((void *) table->partitions, sizeof(flash_partition_info_t) * table->header.nbr_of_entries);
1c0028c4:	5148                	lw	a0,36(a0)
1c0028c6:	0596                	slli	a1,a1,0x5
1c0028c8:	6e0010ef          	jal	ra,1c003fa8 <pi_l2_free>
    pi_l2_free((void *) table, sizeof(flash_partition_table_t));
1c0028cc:	8522                	mv	a0,s0
}
1c0028ce:	4422                	lw	s0,8(sp)
1c0028d0:	40b2                	lw	ra,12(sp)
    pi_l2_free((void *) table, sizeof(flash_partition_table_t));
1c0028d2:	02800593          	li	a1,40
}
1c0028d6:	0141                	addi	sp,sp,16
    pi_l2_free((void *) table, sizeof(flash_partition_table_t));
1c0028d8:	6d00106f          	j	1c003fa8 <pi_l2_free>

1c0028dc <flash_partition_find_first>:


const flash_partition_info_t *flash_partition_find_first(const flash_partition_table_t *table, pi_partition_type_t type,
                                                         pi_partition_subtype_t subtype, const char *label)
{
1c0028dc:	7179                	addi	sp,sp,-48
1c0028de:	d226                	sw	s1,36(sp)
1c0028e0:	d04a                	sw	s2,32(sp)
1c0028e2:	cc52                	sw	s4,24(sp)
1c0028e4:	ca56                	sw	s5,20(sp)
1c0028e6:	d606                	sw	ra,44(sp)
1c0028e8:	d422                	sw	s0,40(sp)
1c0028ea:	ce4e                	sw	s3,28(sp)
    const flash_partition_info_t *part = NULL;

    for (uint8_t i = 0; i < table->header.nbr_of_entries; i++)
1c0028ec:	00754983          	lbu	s3,7(a0)
{
1c0028f0:	892a                	mv	s2,a0
1c0028f2:	8a2e                	mv	s4,a1
1c0028f4:	8ab2                	mv	s5,a2
    for (uint8_t i = 0; i < table->header.nbr_of_entries; i++)
1c0028f6:	4481                	li	s1,0
1c0028f8:	0ff4f793          	andi	a5,s1,255
1c0028fc:	0137ed63          	bltu	a5,s3,1c002916 <flash_partition_find_first+0x3a>
        if(label == NULL)
            return part;
        if(strncmp(label, (char *) &part->label, PI_PARTITION_LABEL_LENGTH) == 0)
            return part;
    }
    return NULL;
1c002900:	4401                	li	s0,0
}
1c002902:	8522                	mv	a0,s0
1c002904:	50b2                	lw	ra,44(sp)
1c002906:	5422                	lw	s0,40(sp)
1c002908:	5492                	lw	s1,36(sp)
1c00290a:	5902                	lw	s2,32(sp)
1c00290c:	49f2                	lw	s3,28(sp)
1c00290e:	4a62                	lw	s4,24(sp)
1c002910:	4ad2                	lw	s5,20(sp)
1c002912:	6145                	addi	sp,sp,48
1c002914:	8082                	ret
        part = table->partitions + i;
1c002916:	02492783          	lw	a5,36(s2)
1c00291a:	00549413          	slli	s0,s1,0x5
1c00291e:	943e                	add	s0,s0,a5
        if(part->type != type || part->subtype != subtype)
1c002920:	00244783          	lbu	a5,2(s0)
1c002924:	03479063          	bne	a5,s4,1c002944 <flash_partition_find_first+0x68>
1c002928:	00344783          	lbu	a5,3(s0)
1c00292c:	01579c63          	bne	a5,s5,1c002944 <flash_partition_find_first+0x68>
        if(label == NULL)
1c002930:	dae9                	beqz	a3,1c002902 <flash_partition_find_first+0x26>
        if(strncmp(label, (char *) &part->label, PI_PARTITION_LABEL_LENGTH) == 0)
1c002932:	8536                	mv	a0,a3
1c002934:	4641                	li	a2,16
1c002936:	00c40593          	addi	a1,s0,12
1c00293a:	c636                	sw	a3,12(sp)
1c00293c:	608030ef          	jal	ra,1c005f44 <strncmp>
1c002940:	46b2                	lw	a3,12(sp)
1c002942:	d161                	beqz	a0,1c002902 <flash_partition_find_first+0x26>
1c002944:	0485                	addi	s1,s1,1
1c002946:	bf4d                	j	1c0028f8 <flash_partition_find_first+0x1c>

1c002948 <body>:
/*
 * This processes one or more 64-byte data blocks, but does NOT update the bit
 * counters.  There are no alignment requirements.
 */
static const void *body(MD5_CTX *ctx, const void *data, unsigned long size)
{
1c002948:	715d                	addi	sp,sp,-80
	MD5_u32plus a, b, c, d;
	MD5_u32plus saved_a, saved_b, saved_c, saved_d;

	ptr = (const unsigned char *)data;

	a = ctx->a;
1c00294a:	00852283          	lw	t0,8(a0)
1c00294e:	fc060613          	addi	a2,a2,-64
{
1c002952:	de52                	sw	s4,60(sp)
1c002954:	dc56                	sw	s5,56(sp)
1c002956:	8219                	srli	a2,a2,0x6
	b = ctx->b;
1c002958:	00c52803          	lw	a6,12(a0)
	c = ctx->c;
1c00295c:	01052a03          	lw	s4,16(a0)
	d = ctx->d;
1c002960:	01452a83          	lw	s5,20(a0)
1c002964:	0605                	addi	a2,a2,1
{
1c002966:	c6a2                	sw	s0,76(sp)
1c002968:	c4a6                	sw	s1,72(sp)
1c00296a:	c2ca                	sw	s2,68(sp)
1c00296c:	c0ce                	sw	s3,64(sp)
1c00296e:	da5a                	sw	s6,52(sp)
1c002970:	d85e                	sw	s7,48(sp)
1c002972:	d662                	sw	s8,44(sp)
1c002974:	d466                	sw	s9,40(sp)
1c002976:	d26a                	sw	s10,36(sp)
1c002978:	d06e                	sw	s11,32(sp)
1c00297a:	87aa                	mv	a5,a0
	a = ctx->a;
1c00297c:	cc16                	sw	t0,24(sp)
1c00297e:	ce32                	sw	a2,28(sp)
1c002980:	4362                	lw	t1,24(sp)
		saved_b = b;
		saved_c = c;
		saved_d = d;

/* Round 1 */
		STEP(F, a, b, c, d, SET(0), 0xd76aa478, 7)
1c002982:	0005a983          	lw	s3,0(a1)
1c002986:	d76aa537          	lui	a0,0xd76aa
1c00298a:	47850513          	addi	a0,a0,1144 # d76aa478 <pulp__FC+0xd76aa479>
1c00298e:	00a30733          	add	a4,t1,a0
1c002992:	013706b3          	add	a3,a4,s3
1c002996:	015a4733          	xor	a4,s4,s5
1c00299a:	01077733          	and	a4,a4,a6
1c00299e:	0537ac23          	sw	s3,88(a5)
1c0029a2:	01574733          	xor	a4,a4,s5
		STEP(F, d, a, b, c, SET(1), 0xe8c7b756, 12)
1c0029a6:	41d0                	lw	a2,4(a1)
		STEP(F, a, b, c, d, SET(0), 0xd76aa478, 7)
1c0029a8:	9736                	add	a4,a4,a3
1c0029aa:	e8c7b6b7          	lui	a3,0xe8c7b
1c0029ae:	4365                	li	t1,25
1c0029b0:	75668693          	addi	a3,a3,1878 # e8c7b756 <pulp__FC+0xe8c7b757>
1c0029b4:	00da8e33          	add	t3,s5,a3
1c0029b8:	08675733          	p.ror	a4,a4,t1
1c0029bc:	9742                	add	a4,a4,a6
1c0029be:	00ce06b3          	add	a3,t3,a2
		STEP(F, d, a, b, c, SET(1), 0xe8c7b756, 12)
1c0029c2:	01484e33          	xor	t3,a6,s4
1c0029c6:	cff0                	sw	a2,92(a5)
1c0029c8:	00ee7e33          	and	t3,t3,a4
		STEP(F, c, d, a, b, SET(2), 0x242070db, 17)
1c0029cc:	0085a883          	lw	a7,8(a1)
		STEP(F, d, a, b, c, SET(1), 0xe8c7b756, 12)
1c0029d0:	014e4e33          	xor	t3,t3,s4
1c0029d4:	24207bb7          	lui	s7,0x24207
1c0029d8:	4d51                	li	s10,20
1c0029da:	9e36                	add	t3,t3,a3
1c0029dc:	0dbb8b93          	addi	s7,s7,219 # 242070db <__l2_end+0x81ff0c3>
1c0029e0:	017a0533          	add	a0,s4,s7
1c0029e4:	09ae5e33          	p.ror	t3,t3,s10
1c0029e8:	9e3a                	add	t3,t3,a4
1c0029ea:	011506b3          	add	a3,a0,a7
		STEP(F, c, d, a, b, SET(2), 0x242070db, 17)
1c0029ee:	00e84533          	xor	a0,a6,a4
1c0029f2:	0717a023          	sw	a7,96(a5)
1c0029f6:	01c57533          	and	a0,a0,t3
		STEP(F, b, c, d, a, SET(3), 0xc1bdceee, 22)
1c0029fa:	00c5a283          	lw	t0,12(a1)
		STEP(F, c, d, a, b, SET(2), 0x242070db, 17)
1c0029fe:	01054533          	xor	a0,a0,a6
1c002a02:	c1bddc37          	lui	s8,0xc1bdd
1c002a06:	4cbd                	li	s9,15
1c002a08:	9536                	add	a0,a0,a3
1c002a0a:	eeec0c13          	addi	s8,s8,-274 # c1bdceee <pulp__FC+0xc1bdceef>
		STEP(F, d, a, b, c, SET(1), 0xe8c7b756, 12)
1c002a0e:	c432                	sw	a2,8(sp)
		STEP(F, c, d, a, b, SET(2), 0x242070db, 17)
1c002a10:	09955533          	p.ror	a0,a0,s9
1c002a14:	01880633          	add	a2,a6,s8
		STEP(F, b, c, d, a, SET(3), 0xc1bdceee, 22)
1c002a18:	0657a223          	sw	t0,100(a5)
		STEP(F, c, d, a, b, SET(2), 0x242070db, 17)
1c002a1c:	9572                	add	a0,a0,t3
1c002a1e:	005606b3          	add	a3,a2,t0
		STEP(F, b, c, d, a, SET(3), 0xc1bdceee, 22)
1c002a22:	01c74633          	xor	a2,a4,t3
		STEP(F, a, b, c, d, SET(4), 0xf57c0faf, 7)
1c002a26:	0105ad83          	lw	s11,16(a1)
		STEP(F, b, c, d, a, SET(3), 0xc1bdceee, 22)
1c002a2a:	8e69                	and	a2,a2,a0
1c002a2c:	8e39                	xor	a2,a2,a4
1c002a2e:	f57c1eb7          	lui	t4,0xf57c1
1c002a32:	4c29                	li	s8,10
1c002a34:	9636                	add	a2,a2,a3
1c002a36:	fafe8e93          	addi	t4,t4,-81 # f57c0faf <pulp__FC+0xf57c0fb0>
1c002a3a:	01dd86b3          	add	a3,s11,t4
1c002a3e:	09865633          	p.ror	a2,a2,s8
1c002a42:	962a                	add	a2,a2,a0
1c002a44:	9736                	add	a4,a4,a3
		STEP(F, a, b, c, d, SET(4), 0xf57c0faf, 7)
1c002a46:	00ae46b3          	xor	a3,t3,a0
1c002a4a:	07b7a423          	sw	s11,104(a5)
1c002a4e:	8ef1                	and	a3,a3,a2
		STEP(F, d, a, b, c, SET(5), 0x4787c62a, 12)
1c002a50:	49c0                	lw	s0,20(a1)
		STEP(F, a, b, c, d, SET(4), 0xf57c0faf, 7)
1c002a52:	01c6c6b3          	xor	a3,a3,t3
1c002a56:	9736                	add	a4,a4,a3
1c002a58:	4787c6b7          	lui	a3,0x4787c
1c002a5c:	62a68693          	addi	a3,a3,1578 # 4787c62a <__l2_end+0x2b874612>
1c002a60:	00d40fb3          	add	t6,s0,a3
1c002a64:	08675733          	p.ror	a4,a4,t1
1c002a68:	9732                	add	a4,a4,a2
1c002a6a:	9e7e                	add	t3,t3,t6
		STEP(F, d, a, b, c, SET(5), 0x4787c62a, 12)
1c002a6c:	00c54fb3          	xor	t6,a0,a2
1c002a70:	00efffb3          	and	t6,t6,a4
1c002a74:	d7e0                	sw	s0,108(a5)
1c002a76:	00afcfb3          	xor	t6,t6,a0
1c002a7a:	9ff2                	add	t6,t6,t3
		STEP(F, c, d, a, b, SET(6), 0xa8304613, 17)
1c002a7c:	0185ae03          	lw	t3,24(a1)
1c002a80:	a8304bb7          	lui	s7,0xa8304
1c002a84:	613b8b93          	addi	s7,s7,1555 # a8304613 <pulp__FC+0xa8304614>
		STEP(F, c, d, a, b, SET(2), 0x242070db, 17)
1c002a88:	c646                	sw	a7,12(sp)
		STEP(F, d, a, b, c, SET(5), 0x4787c62a, 12)
1c002a8a:	09afdfb3          	p.ror	t6,t6,s10
1c002a8e:	017e08b3          	add	a7,t3,s7
		STEP(F, c, d, a, b, SET(6), 0xa8304613, 17)
1c002a92:	07c7a823          	sw	t3,112(a5)
		STEP(F, d, a, b, c, SET(5), 0x4787c62a, 12)
1c002a96:	9fba                	add	t6,t6,a4
1c002a98:	9546                	add	a0,a0,a7
		STEP(F, c, d, a, b, SET(6), 0xa8304613, 17)
1c002a9a:	00e648b3          	xor	a7,a2,a4
		STEP(F, b, c, d, a, SET(7), 0xfd469501, 22)
1c002a9e:	01c5a903          	lw	s2,28(a1)
		STEP(F, c, d, a, b, SET(6), 0xa8304613, 17)
1c002aa2:	01f8f8b3          	and	a7,a7,t6
		STEP(F, a, b, c, d, SET(4), 0xf57c0faf, 7)
1c002aa6:	c86e                	sw	s11,16(sp)
		STEP(F, c, d, a, b, SET(6), 0xa8304613, 17)
1c002aa8:	00c8c8b3          	xor	a7,a7,a2
1c002aac:	fd469db7          	lui	s11,0xfd469
1c002ab0:	98aa                	add	a7,a7,a0
1c002ab2:	501d8d93          	addi	s11,s11,1281 # fd469501 <pulp__FC+0xfd469502>
1c002ab6:	01b906b3          	add	a3,s2,s11
1c002aba:	0998d8b3          	p.ror	a7,a7,s9
		STEP(F, b, c, d, a, SET(7), 0xfd469501, 22)
1c002abe:	0727aa23          	sw	s2,116(a5)
		STEP(F, c, d, a, b, SET(6), 0xa8304613, 17)
1c002ac2:	98fe                	add	a7,a7,t6
1c002ac4:	9636                	add	a2,a2,a3
		STEP(F, b, c, d, a, SET(7), 0xfd469501, 22)
1c002ac6:	01f746b3          	xor	a3,a4,t6
		STEP(F, a, b, c, d, SET(8), 0x698098d8, 7)
1c002aca:	0205af03          	lw	t5,32(a1)
		STEP(F, b, c, d, a, SET(7), 0xfd469501, 22)
1c002ace:	0116f6b3          	and	a3,a3,a7
1c002ad2:	8eb9                	xor	a3,a3,a4
1c002ad4:	6980aeb7          	lui	t4,0x6980a
1c002ad8:	9636                	add	a2,a2,a3
1c002ada:	8d8e8e93          	addi	t4,t4,-1832 # 698098d8 <__l2_end+0x4d8018c0>
1c002ade:	01df06b3          	add	a3,t5,t4
1c002ae2:	09865633          	p.ror	a2,a2,s8
1c002ae6:	9646                	add	a2,a2,a7
1c002ae8:	9736                	add	a4,a4,a3
		STEP(F, a, b, c, d, SET(8), 0x698098d8, 7)
1c002aea:	011fc6b3          	xor	a3,t6,a7
1c002aee:	07e7ac23          	sw	t5,120(a5)
1c002af2:	8ef1                	and	a3,a3,a2
		STEP(F, d, a, b, c, SET(9), 0x8b44f7af, 12)
1c002af4:	51c8                	lw	a0,36(a1)
		STEP(F, a, b, c, d, SET(8), 0x698098d8, 7)
1c002af6:	01f6c6b3          	xor	a3,a3,t6
1c002afa:	96ba                	add	a3,a3,a4
1c002afc:	8b44f737          	lui	a4,0x8b44f
1c002b00:	7af70713          	addi	a4,a4,1967 # 8b44f7af <pulp__FC+0x8b44f7b0>
1c002b04:	00e504b3          	add	s1,a0,a4
1c002b08:	0866d6b3          	p.ror	a3,a3,t1
1c002b0c:	96b2                	add	a3,a3,a2
1c002b0e:	9fa6                	add	t6,t6,s1
		STEP(F, d, a, b, c, SET(9), 0x8b44f7af, 12)
1c002b10:	00c8c4b3          	xor	s1,a7,a2
1c002b14:	8cf5                	and	s1,s1,a3
1c002b16:	dfe8                	sw	a0,124(a5)
1c002b18:	0114c4b3          	xor	s1,s1,a7
1c002b1c:	94fe                	add	s1,s1,t6
		STEP(F, c, d, a, b, SET(10), 0xffff5bb1, 17)
1c002b1e:	0285af83          	lw	t6,40(a1)
1c002b22:	7bd9                	lui	s7,0xffff6
1c002b24:	bb1b8b93          	addi	s7,s7,-1103 # ffff5bb1 <pulp__FC+0xffff5bb2>
1c002b28:	017f8eb3          	add	t4,t6,s7
		STEP(F, d, a, b, c, SET(9), 0x8b44f7af, 12)
1c002b2c:	09a4d4b3          	p.ror	s1,s1,s10
1c002b30:	94b6                	add	s1,s1,a3
1c002b32:	98f6                	add	a7,a7,t4
		STEP(F, c, d, a, b, SET(10), 0xffff5bb1, 17)
1c002b34:	00d64eb3          	xor	t4,a2,a3
1c002b38:	009efeb3          	and	t4,t4,s1
1c002b3c:	09f7a023          	sw	t6,128(a5)
1c002b40:	00ceceb3          	xor	t4,t4,a2
1c002b44:	9ec6                	add	t4,t4,a7
		STEP(F, b, c, d, a, SET(11), 0x895cd7be, 22)
1c002b46:	02c5a883          	lw	a7,44(a1)
1c002b4a:	895cddb7          	lui	s11,0x895cd
1c002b4e:	7bed8d93          	addi	s11,s11,1982 # 895cd7be <pulp__FC+0x895cd7bf>
		STEP(F, d, a, b, c, SET(9), 0x8b44f7af, 12)
1c002b52:	ca2a                	sw	a0,20(sp)
		STEP(F, c, d, a, b, SET(10), 0xffff5bb1, 17)
1c002b54:	099edeb3          	p.ror	t4,t4,s9
1c002b58:	01b88533          	add	a0,a7,s11
1c002b5c:	9ea6                	add	t4,t4,s1
		STEP(F, b, c, d, a, SET(11), 0x895cd7be, 22)
1c002b5e:	0917a223          	sw	a7,132(a5)
1c002b62:	962a                	add	a2,a2,a0
1c002b64:	0096c533          	xor	a0,a3,s1
		STEP(F, a, b, c, d, SET(12), 0x6b901122, 7)
1c002b68:	0305a383          	lw	t2,48(a1)
		STEP(F, b, c, d, a, SET(11), 0x895cd7be, 22)
1c002b6c:	01d57533          	and	a0,a0,t4
1c002b70:	8d35                	xor	a0,a0,a3
1c002b72:	6b901737          	lui	a4,0x6b901
1c002b76:	9532                	add	a0,a0,a2
1c002b78:	12270713          	addi	a4,a4,290 # 6b901122 <__l2_end+0x4f8f910a>
1c002b7c:	00e38633          	add	a2,t2,a4
1c002b80:	09855533          	p.ror	a0,a0,s8
1c002b84:	9576                	add	a0,a0,t4
1c002b86:	96b2                	add	a3,a3,a2
		STEP(F, a, b, c, d, SET(12), 0x6b901122, 7)
1c002b88:	01d4c633          	xor	a2,s1,t4
1c002b8c:	8e69                	and	a2,a2,a0
1c002b8e:	8e25                	xor	a2,a2,s1
1c002b90:	0877a423          	sw	t2,136(a5)
1c002b94:	96b2                	add	a3,a3,a2
1c002b96:	0866d6b3          	p.ror	a3,a3,t1
		STEP(F, d, a, b, c, SET(13), 0xfd987193, 12)
1c002b9a:	0345a303          	lw	t1,52(a1)
1c002b9e:	fd987db7          	lui	s11,0xfd987
1c002ba2:	193d8d93          	addi	s11,s11,403 # fd987193 <pulp__FC+0xfd987194>
1c002ba6:	01b30bb3          	add	s7,t1,s11
		STEP(F, a, b, c, d, SET(12), 0x6b901122, 7)
1c002baa:	00d50733          	add	a4,a0,a3
1c002bae:	94de                	add	s1,s1,s7
		STEP(F, d, a, b, c, SET(13), 0xfd987193, 12)
1c002bb0:	00aecbb3          	xor	s7,t4,a0
1c002bb4:	00ebfbb3          	and	s7,s7,a4
1c002bb8:	01dbcbb3          	xor	s7,s7,t4
1c002bbc:	94de                	add	s1,s1,s7
1c002bbe:	0867a623          	sw	t1,140(a5)
1c002bc2:	09a4dbb3          	p.ror	s7,s1,s10
		STEP(F, c, d, a, b, SET(14), 0xa679438e, 17)
1c002bc6:	5d84                	lw	s1,56(a1)
1c002bc8:	a6794637          	lui	a2,0xa6794
1c002bcc:	38e60613          	addi	a2,a2,910 # a679438e <pulp__FC+0xa679438f>
1c002bd0:	00c48b33          	add	s6,s1,a2
		STEP(F, d, a, b, c, SET(13), 0xfd987193, 12)
1c002bd4:	9bba                	add	s7,s7,a4
1c002bd6:	9eda                	add	t4,t4,s6
		STEP(F, c, d, a, b, SET(14), 0xa679438e, 17)
1c002bd8:	00e54b33          	xor	s6,a0,a4
1c002bdc:	017b7b33          	and	s6,s6,s7
1c002be0:	00ab4b33          	xor	s6,s6,a0
1c002be4:	0897a823          	sw	s1,144(a5)
1c002be8:	9eda                	add	t4,t4,s6
1c002bea:	099edb33          	p.ror	s6,t4,s9
		STEP(F, b, c, d, a, SET(15), 0x49b40821, 22)
1c002bee:	03c5ae83          	lw	t4,60(a1)
1c002bf2:	49b416b7          	lui	a3,0x49b41
1c002bf6:	82168693          	addi	a3,a3,-2015 # 49b40821 <__l2_end+0x2db38809>
1c002bfa:	00de8633          	add	a2,t4,a3
		STEP(F, c, d, a, b, SET(14), 0xa679438e, 17)
1c002bfe:	9b5e                	add	s6,s6,s7
1c002c00:	9532                	add	a0,a0,a2
		STEP(F, b, c, d, a, SET(15), 0x49b40821, 22)
1c002c02:	01774633          	xor	a2,a4,s7
1c002c06:	01667633          	and	a2,a2,s6
1c002c0a:	8e39                	xor	a2,a2,a4
1c002c0c:	9532                	add	a0,a0,a2
1c002c0e:	09855633          	p.ror	a2,a0,s8
1c002c12:	4c22                	lw	s8,8(sp)
1c002c14:	f61e2d37          	lui	s10,0xf61e2
1c002c18:	562d0d13          	addi	s10,s10,1378 # f61e2562 <pulp__FC+0xf61e2563>
1c002c1c:	965a                	add	a2,a2,s6
1c002c1e:	01ac06b3          	add	a3,s8,s10
1c002c22:	9736                	add	a4,a4,a3

/* Round 2 */
		STEP(G, a, b, c, d, GET(1), 0xf61e2562, 5)
1c002c24:	00cb46b3          	xor	a3,s6,a2
1c002c28:	0176f6b3          	and	a3,a3,s7
1c002c2c:	0166c6b3          	xor	a3,a3,s6
1c002c30:	4ded                	li	s11,27
1c002c32:	96ba                	add	a3,a3,a4
1c002c34:	c040b537          	lui	a0,0xc040b
1c002c38:	09b6d6b3          	p.ror	a3,a3,s11
1c002c3c:	34050513          	addi	a0,a0,832 # c040b340 <pulp__FC+0xc040b341>
1c002c40:	96b2                	add	a3,a3,a2
1c002c42:	00ae0733          	add	a4,t3,a0
1c002c46:	9bba                	add	s7,s7,a4
		STEP(G, d, a, b, c, GET(6), 0xc040b340, 9)
1c002c48:	00d64733          	xor	a4,a2,a3
1c002c4c:	01677733          	and	a4,a4,s6
1c002c50:	8f31                	xor	a4,a4,a2
1c002c52:	4d5d                	li	s10,23
1c002c54:	975e                	add	a4,a4,s7
1c002c56:	265e6bb7          	lui	s7,0x265e6
1c002c5a:	09a75733          	p.ror	a4,a4,s10
1c002c5e:	a51b8b93          	addi	s7,s7,-1455 # 265e5a51 <__l2_end+0xa5dda39>
1c002c62:	9736                	add	a4,a4,a3
1c002c64:	01788533          	add	a0,a7,s7
1c002c68:	955a                	add	a0,a0,s6
		STEP(G, c, d, a, b, GET(11), 0x265e5a51, 14)
1c002c6a:	00e6cb33          	xor	s6,a3,a4
1c002c6e:	00cb7b33          	and	s6,s6,a2
1c002c72:	00db4b33          	xor	s6,s6,a3
1c002c76:	4cc9                	li	s9,18
1c002c78:	9b2a                	add	s6,s6,a0
1c002c7a:	e9b6cc37          	lui	s8,0xe9b6c
1c002c7e:	099b5b33          	p.ror	s6,s6,s9
1c002c82:	7aac0c13          	addi	s8,s8,1962 # e9b6c7aa <pulp__FC+0xe9b6c7ab>
1c002c86:	9b3a                	add	s6,s6,a4
1c002c88:	01898533          	add	a0,s3,s8
1c002c8c:	962a                	add	a2,a2,a0
		STEP(G, b, c, d, a, GET(0), 0xe9b6c7aa, 20)
1c002c8e:	01674533          	xor	a0,a4,s6
1c002c92:	8d75                	and	a0,a0,a3
1c002c94:	8d39                	xor	a0,a0,a4
1c002c96:	4c31                	li	s8,12
1c002c98:	9532                	add	a0,a0,a2
1c002c9a:	d62f1bb7          	lui	s7,0xd62f1
1c002c9e:	09855533          	p.ror	a0,a0,s8
1c002ca2:	05db8b93          	addi	s7,s7,93 # d62f105d <pulp__FC+0xd62f105e>
1c002ca6:	955a                	add	a0,a0,s6
1c002ca8:	01740633          	add	a2,s0,s7
1c002cac:	96b2                	add	a3,a3,a2
		STEP(G, a, b, c, d, GET(5), 0xd62f105d, 5)
1c002cae:	00ab4633          	xor	a2,s6,a0
1c002cb2:	8e79                	and	a2,a2,a4
1c002cb4:	01664633          	xor	a2,a2,s6
1c002cb8:	96b2                	add	a3,a3,a2
1c002cba:	02441bb7          	lui	s7,0x2441
1c002cbe:	09b6d6b3          	p.ror	a3,a3,s11
1c002cc2:	453b8b93          	addi	s7,s7,1107 # 2441453 <__L2+0x23c1453>
1c002cc6:	96aa                	add	a3,a3,a0
1c002cc8:	017f8633          	add	a2,t6,s7
1c002ccc:	9732                	add	a4,a4,a2
		STEP(G, d, a, b, c, GET(10), 0x02441453, 9)
1c002cce:	00d54633          	xor	a2,a0,a3
1c002cd2:	01667633          	and	a2,a2,s6
1c002cd6:	8e29                	xor	a2,a2,a0
1c002cd8:	9732                	add	a4,a4,a2
1c002cda:	d8a1ebb7          	lui	s7,0xd8a1e
1c002cde:	09a75733          	p.ror	a4,a4,s10
1c002ce2:	681b8b93          	addi	s7,s7,1665 # d8a1e681 <pulp__FC+0xd8a1e682>
1c002ce6:	9736                	add	a4,a4,a3
1c002ce8:	017e8633          	add	a2,t4,s7
1c002cec:	9b32                	add	s6,s6,a2
		STEP(G, c, d, a, b, GET(15), 0xd8a1e681, 14)
1c002cee:	00e6c633          	xor	a2,a3,a4
1c002cf2:	8e69                	and	a2,a2,a0
1c002cf4:	8e35                	xor	a2,a2,a3
1c002cf6:	4bc2                	lw	s7,16(sp)
1c002cf8:	9b32                	add	s6,s6,a2
1c002cfa:	e7d40637          	lui	a2,0xe7d40
1c002cfe:	099b5b33          	p.ror	s6,s6,s9
1c002d02:	bc860613          	addi	a2,a2,-1080 # e7d3fbc8 <pulp__FC+0xe7d3fbc9>
1c002d06:	9b3a                	add	s6,s6,a4
1c002d08:	965e                	add	a2,a2,s7
1c002d0a:	9532                	add	a0,a0,a2
		STEP(G, b, c, d, a, GET(4), 0xe7d3fbc8, 20)
1c002d0c:	01674633          	xor	a2,a4,s6
1c002d10:	8e75                	and	a2,a2,a3
1c002d12:	8e39                	xor	a2,a2,a4
1c002d14:	9532                	add	a0,a0,a2
1c002d16:	4652                	lw	a2,20(sp)
1c002d18:	21e1dbb7          	lui	s7,0x21e1d
1c002d1c:	09855533          	p.ror	a0,a0,s8
1c002d20:	de6b8b93          	addi	s7,s7,-538 # 21e1cde6 <__l2_end+0x5e14dce>
1c002d24:	955a                	add	a0,a0,s6
1c002d26:	9bb2                	add	s7,s7,a2
1c002d28:	96de                	add	a3,a3,s7
		STEP(G, a, b, c, d, GET(9), 0x21e1cde6, 5)
1c002d2a:	00ab4bb3          	xor	s7,s6,a0
1c002d2e:	00ebfbb3          	and	s7,s7,a4
1c002d32:	016bcbb3          	xor	s7,s7,s6
1c002d36:	9bb6                	add	s7,s7,a3
1c002d38:	c3370637          	lui	a2,0xc3370
1c002d3c:	09bbdbb3          	p.ror	s7,s7,s11
1c002d40:	7d660613          	addi	a2,a2,2006 # c33707d6 <pulp__FC+0xc33707d7>
1c002d44:	9baa                	add	s7,s7,a0
1c002d46:	9626                	add	a2,a2,s1
1c002d48:	9732                	add	a4,a4,a2
		STEP(G, d, a, b, c, GET(14), 0xc33707d6, 9)
1c002d4a:	01754633          	xor	a2,a0,s7
1c002d4e:	01667633          	and	a2,a2,s6
1c002d52:	8e29                	xor	a2,a2,a0
1c002d54:	963a                	add	a2,a2,a4
1c002d56:	f4d51737          	lui	a4,0xf4d51
1c002d5a:	09a65633          	p.ror	a2,a2,s10
1c002d5e:	d8770713          	addi	a4,a4,-633 # f4d50d87 <pulp__FC+0xf4d50d88>
1c002d62:	965e                	add	a2,a2,s7
1c002d64:	9716                	add	a4,a4,t0
1c002d66:	9b3a                	add	s6,s6,a4
		STEP(G, c, d, a, b, GET(3), 0xf4d50d87, 14)
1c002d68:	00cbc733          	xor	a4,s7,a2
1c002d6c:	8f69                	and	a4,a4,a0
1c002d6e:	01774733          	xor	a4,a4,s7
1c002d72:	9b3a                	add	s6,s6,a4
1c002d74:	455a1737          	lui	a4,0x455a1
1c002d78:	099b5b33          	p.ror	s6,s6,s9
1c002d7c:	4ed70713          	addi	a4,a4,1261 # 455a14ed <__l2_end+0x295994d5>
1c002d80:	9b32                	add	s6,s6,a2
1c002d82:	977a                	add	a4,a4,t5
1c002d84:	953a                	add	a0,a0,a4
		STEP(G, b, c, d, a, GET(8), 0x455a14ed, 20)
1c002d86:	01664733          	xor	a4,a2,s6
1c002d8a:	01777733          	and	a4,a4,s7
1c002d8e:	8f31                	xor	a4,a4,a2
1c002d90:	953a                	add	a0,a0,a4
1c002d92:	a9e3f6b7          	lui	a3,0xa9e3f
1c002d96:	09855533          	p.ror	a0,a0,s8
1c002d9a:	90568693          	addi	a3,a3,-1787 # a9e3e905 <pulp__FC+0xa9e3e906>
1c002d9e:	955a                	add	a0,a0,s6
1c002da0:	969a                	add	a3,a3,t1
1c002da2:	9bb6                	add	s7,s7,a3
		STEP(G, a, b, c, d, GET(13), 0xa9e3e905, 5)
1c002da4:	00ab46b3          	xor	a3,s6,a0
1c002da8:	8ef1                	and	a3,a3,a2
1c002daa:	0166c6b3          	xor	a3,a3,s6
1c002dae:	9bb6                	add	s7,s7,a3
1c002db0:	09bbd6b3          	p.ror	a3,s7,s11
1c002db4:	4bb2                	lw	s7,12(sp)
1c002db6:	fcefa737          	lui	a4,0xfcefa
1c002dba:	3f870713          	addi	a4,a4,1016 # fcefa3f8 <pulp__FC+0xfcefa3f9>
1c002dbe:	96aa                	add	a3,a3,a0
1c002dc0:	975e                	add	a4,a4,s7
1c002dc2:	963a                	add	a2,a2,a4
		STEP(G, d, a, b, c, GET(2), 0xfcefa3f8, 9)
1c002dc4:	00d54733          	xor	a4,a0,a3
1c002dc8:	01677733          	and	a4,a4,s6
1c002dcc:	8f29                	xor	a4,a4,a0
1c002dce:	963a                	add	a2,a2,a4
1c002dd0:	09a65733          	p.ror	a4,a2,s10
1c002dd4:	676f0637          	lui	a2,0x676f0
1c002dd8:	2d960613          	addi	a2,a2,729 # 676f02d9 <__l2_end+0x4b6e82c1>
1c002ddc:	9736                	add	a4,a4,a3
1c002dde:	964a                	add	a2,a2,s2
1c002de0:	9b32                	add	s6,s6,a2
		STEP(G, c, d, a, b, GET(7), 0x676f02d9, 14)
1c002de2:	00e6c633          	xor	a2,a3,a4
1c002de6:	8e69                	and	a2,a2,a0
1c002de8:	8e35                	xor	a2,a2,a3
1c002dea:	9b32                	add	s6,s6,a2
1c002dec:	8d2a5637          	lui	a2,0x8d2a5
1c002df0:	099b5b33          	p.ror	s6,s6,s9
1c002df4:	c8a60613          	addi	a2,a2,-886 # 8d2a4c8a <pulp__FC+0x8d2a4c8b>
1c002df8:	9b3a                	add	s6,s6,a4
1c002dfa:	961e                	add	a2,a2,t2
1c002dfc:	9532                	add	a0,a0,a2
		STEP(G, b, c, d, a, GET(12), 0x8d2a4c8a, 20)
1c002dfe:	01674633          	xor	a2,a4,s6
1c002e02:	8e75                	and	a2,a2,a3
1c002e04:	8e39                	xor	a2,a2,a4
1c002e06:	9532                	add	a0,a0,a2
1c002e08:	09855533          	p.ror	a0,a0,s8
1c002e0c:	fffa4637          	lui	a2,0xfffa4
1c002e10:	955a                	add	a0,a0,s6
1c002e12:	94260613          	addi	a2,a2,-1726 # fffa3942 <pulp__FC+0xfffa3943>

/* Round 3 */
		STEP(H, a, b, c, d, GET(5), 0xfffa3942, 4)
1c002e16:	00ab4bb3          	xor	s7,s6,a0
1c002e1a:	9622                	add	a2,a2,s0
1c002e1c:	96b2                	add	a3,a3,a2
1c002e1e:	00ebc633          	xor	a2,s7,a4
1c002e22:	4cf1                	li	s9,28
1c002e24:	96b2                	add	a3,a3,a2
1c002e26:	8771f637          	lui	a2,0x8771f
1c002e2a:	0996d6b3          	p.ror	a3,a3,s9
1c002e2e:	68160613          	addi	a2,a2,1665 # 8771f681 <pulp__FC+0x8771f682>
1c002e32:	96aa                	add	a3,a3,a0
1c002e34:	967a                	add	a2,a2,t5
1c002e36:	9732                	add	a4,a4,a2
		STEP(H2, d, a, b, c, GET(8), 0x8771f681, 11)
1c002e38:	00dbc633          	xor	a2,s7,a3
1c002e3c:	4c55                	li	s8,21
1c002e3e:	963a                	add	a2,a2,a4
1c002e40:	09865633          	p.ror	a2,a2,s8
1c002e44:	6d9d6737          	lui	a4,0x6d9d6
1c002e48:	9636                	add	a2,a2,a3
1c002e4a:	12270713          	addi	a4,a4,290 # 6d9d6122 <__l2_end+0x519ce10a>
		STEP(H, c, d, a, b, GET(11), 0x6d9d6122, 16)
1c002e4e:	00c6cd33          	xor	s10,a3,a2
1c002e52:	9746                	add	a4,a4,a7
1c002e54:	975a                	add	a4,a4,s6
1c002e56:	00ad4b33          	xor	s6,s10,a0
1c002e5a:	4bc1                	li	s7,16
1c002e5c:	975a                	add	a4,a4,s6
1c002e5e:	fde54b37          	lui	s6,0xfde54
1c002e62:	09775733          	p.ror	a4,a4,s7
1c002e66:	80cb0b13          	addi	s6,s6,-2036 # fde5380c <pulp__FC+0xfde5380d>
1c002e6a:	9732                	add	a4,a4,a2
1c002e6c:	9b26                	add	s6,s6,s1
		STEP(H2, b, c, d, a, GET(14), 0xfde5380c, 23)
1c002e6e:	00ed4d33          	xor	s10,s10,a4
1c002e72:	955a                	add	a0,a0,s6
1c002e74:	956a                	add	a0,a0,s10
1c002e76:	4b25                	li	s6,9
1c002e78:	09655533          	p.ror	a0,a0,s6
1c002e7c:	953a                	add	a0,a0,a4
		STEP(H, a, b, c, d, GET(1), 0xa4beea44, 4)
1c002e7e:	00a74d33          	xor	s10,a4,a0
1c002e82:	4da2                	lw	s11,8(sp)
1c002e84:	c06a                	sw	s10,0(sp)
1c002e86:	a4befd37          	lui	s10,0xa4bef
1c002e8a:	a44d0d13          	addi	s10,s10,-1468 # a4beea44 <pulp__FC+0xa4beea45>
1c002e8e:	9dea                	add	s11,s11,s10
1c002e90:	96ee                	add	a3,a3,s11
1c002e92:	4d82                	lw	s11,0(sp)
		STEP(F, b, c, d, a, SET(15), 0x49b40821, 22)
1c002e94:	09d7aa23          	sw	t4,148(a5)
		a += saved_a;
		b += saved_b;
		c += saved_c;
		d += saved_d;

		ptr += 64;
1c002e98:	04058593          	addi	a1,a1,64
		STEP(H, a, b, c, d, GET(1), 0xa4beea44, 4)
1c002e9c:	00cdcd33          	xor	s10,s11,a2
1c002ea0:	96ea                	add	a3,a3,s10
1c002ea2:	4d42                	lw	s10,16(sp)
1c002ea4:	4bdeddb7          	lui	s11,0x4bded
1c002ea8:	fa9d8d93          	addi	s11,s11,-87 # 4bdecfa9 <__l2_end+0x2fde4f91>
1c002eac:	9d6e                	add	s10,s10,s11
1c002eae:	966a                	add	a2,a2,s10
		STEP(H2, d, a, b, c, GET(4), 0x4bdecfa9, 11)
1c002eb0:	4d02                	lw	s10,0(sp)
		STEP(H, a, b, c, d, GET(1), 0xa4beea44, 4)
1c002eb2:	0996d6b3          	p.ror	a3,a3,s9
1c002eb6:	96aa                	add	a3,a3,a0
		STEP(H2, d, a, b, c, GET(4), 0x4bdecfa9, 11)
1c002eb8:	00dd4db3          	xor	s11,s10,a3
1c002ebc:	966e                	add	a2,a2,s11
1c002ebe:	09865633          	p.ror	a2,a2,s8
1c002ec2:	f6bb5db7          	lui	s11,0xf6bb5
1c002ec6:	9636                	add	a2,a2,a3
1c002ec8:	b60d8d93          	addi	s11,s11,-1184 # f6bb4b60 <pulp__FC+0xf6bb4b61>
		STEP(H, c, d, a, b, GET(7), 0xf6bb4b60, 16)
1c002ecc:	00c6cd33          	xor	s10,a3,a2
1c002ed0:	9dca                	add	s11,s11,s2
1c002ed2:	976e                	add	a4,a4,s11
1c002ed4:	00ad4db3          	xor	s11,s10,a0
1c002ed8:	976e                	add	a4,a4,s11
1c002eda:	bebfcdb7          	lui	s11,0xbebfc
1c002ede:	09775733          	p.ror	a4,a4,s7
1c002ee2:	c70d8d93          	addi	s11,s11,-912 # bebfbc70 <pulp__FC+0xbebfbc71>
1c002ee6:	9732                	add	a4,a4,a2
1c002ee8:	9dfe                	add	s11,s11,t6
		STEP(H2, b, c, d, a, GET(10), 0xbebfbc70, 23)
1c002eea:	00ed4d33          	xor	s10,s10,a4
1c002eee:	956e                	add	a0,a0,s11
1c002ef0:	956a                	add	a0,a0,s10
1c002ef2:	09655533          	p.ror	a0,a0,s6
1c002ef6:	289b8d37          	lui	s10,0x289b8
1c002efa:	953a                	add	a0,a0,a4
1c002efc:	ec6d0d13          	addi	s10,s10,-314 # 289b7ec6 <__l2_end+0xc9afeae>
		STEP(H, a, b, c, d, GET(13), 0x289b7ec6, 4)
1c002f00:	00a74db3          	xor	s11,a4,a0
1c002f04:	9d1a                	add	s10,s10,t1
1c002f06:	96ea                	add	a3,a3,s10
1c002f08:	00cdcd33          	xor	s10,s11,a2
1c002f0c:	9d36                	add	s10,s10,a3
1c002f0e:	eaa126b7          	lui	a3,0xeaa12
1c002f12:	099d5d33          	p.ror	s10,s10,s9
1c002f16:	7fa68693          	addi	a3,a3,2042 # eaa127fa <pulp__FC+0xeaa127fb>
1c002f1a:	9d2a                	add	s10,s10,a0
1c002f1c:	96ce                	add	a3,a3,s3
		STEP(H2, d, a, b, c, GET(0), 0xeaa127fa, 11)
1c002f1e:	01adcdb3          	xor	s11,s11,s10
1c002f22:	9636                	add	a2,a2,a3
1c002f24:	966e                	add	a2,a2,s11
1c002f26:	09865633          	p.ror	a2,a2,s8
1c002f2a:	d4ef3db7          	lui	s11,0xd4ef3
1c002f2e:	966a                	add	a2,a2,s10
1c002f30:	085d8d93          	addi	s11,s11,133 # d4ef3085 <pulp__FC+0xd4ef3086>
		STEP(H, c, d, a, b, GET(3), 0xd4ef3085, 16)
1c002f34:	00cd46b3          	xor	a3,s10,a2
1c002f38:	9d96                	add	s11,s11,t0
1c002f3a:	976e                	add	a4,a4,s11
1c002f3c:	00a6cdb3          	xor	s11,a3,a0
1c002f40:	9dba                	add	s11,s11,a4
1c002f42:	04882737          	lui	a4,0x4882
1c002f46:	097dddb3          	p.ror	s11,s11,s7
1c002f4a:	d0570713          	addi	a4,a4,-763 # 4881d05 <__L2+0x4801d05>
1c002f4e:	9db2                	add	s11,s11,a2
1c002f50:	9772                	add	a4,a4,t3
1c002f52:	953a                	add	a0,a0,a4
		STEP(H2, b, c, d, a, GET(6), 0x04881d05, 23)
1c002f54:	01b6c6b3          	xor	a3,a3,s11
1c002f58:	96aa                	add	a3,a3,a0
1c002f5a:	0966d6b3          	p.ror	a3,a3,s6
1c002f5e:	96ee                	add	a3,a3,s11
		STEP(H, a, b, c, d, GET(9), 0xd9d4d039, 4)
1c002f60:	00ddc533          	xor	a0,s11,a3
1c002f64:	4752                	lw	a4,20(sp)
1c002f66:	c02a                	sw	a0,0(sp)
1c002f68:	d9d4d537          	lui	a0,0xd9d4d
1c002f6c:	03950513          	addi	a0,a0,57 # d9d4d039 <pulp__FC+0xd9d4d03a>
1c002f70:	972a                	add	a4,a4,a0
1c002f72:	9d3a                	add	s10,s10,a4
1c002f74:	4702                	lw	a4,0(sp)
1c002f76:	00c74533          	xor	a0,a4,a2
1c002f7a:	9d2a                	add	s10,s10,a0
1c002f7c:	e6dba537          	lui	a0,0xe6dba
1c002f80:	099d5cb3          	p.ror	s9,s10,s9
1c002f84:	9e550513          	addi	a0,a0,-1563 # e6db99e5 <pulp__FC+0xe6db99e6>
1c002f88:	9cb6                	add	s9,s9,a3
1c002f8a:	951e                	add	a0,a0,t2
		STEP(H2, d, a, b, c, GET(12), 0xe6db99e5, 11)
1c002f8c:	01974733          	xor	a4,a4,s9
1c002f90:	962a                	add	a2,a2,a0
1c002f92:	963a                	add	a2,a2,a4
1c002f94:	09865c33          	p.ror	s8,a2,s8
1c002f98:	1fa28737          	lui	a4,0x1fa28
1c002f9c:	9c66                	add	s8,s8,s9
1c002f9e:	cf870713          	addi	a4,a4,-776 # 1fa27cf8 <__l2_end+0x3a1fce0>
		STEP(H, c, d, a, b, GET(15), 0x1fa27cf8, 16)
1c002fa2:	018ccd33          	xor	s10,s9,s8
1c002fa6:	9776                	add	a4,a4,t4
1c002fa8:	9dba                	add	s11,s11,a4
1c002faa:	00dd4733          	xor	a4,s10,a3
1c002fae:	9dba                	add	s11,s11,a4
1c002fb0:	097ddbb3          	p.ror	s7,s11,s7
1c002fb4:	4db2                	lw	s11,12(sp)
1c002fb6:	c4ac5737          	lui	a4,0xc4ac5
1c002fba:	66570713          	addi	a4,a4,1637 # c4ac5665 <pulp__FC+0xc4ac5666>
1c002fbe:	9be2                	add	s7,s7,s8
1c002fc0:	976e                	add	a4,a4,s11
		STEP(H2, b, c, d, a, GET(2), 0xc4ac5665, 23)
1c002fc2:	017d4d33          	xor	s10,s10,s7
1c002fc6:	96ba                	add	a3,a3,a4
1c002fc8:	f4292737          	lui	a4,0xf4292
1c002fcc:	96ea                	add	a3,a3,s10
1c002fce:	24470713          	addi	a4,a4,580 # f4292244 <pulp__FC+0xf4292245>
1c002fd2:	0966db33          	p.ror	s6,a3,s6
1c002fd6:	99ba                	add	s3,s3,a4
1c002fd8:	9b5e                	add	s6,s6,s7
1c002fda:	99e6                	add	s3,s3,s9
		STEP(I, a, b, c, d, GET(0), 0xf4292244, 6)
1c002fdc:	fffc4c93          	not	s9,s8
1c002fe0:	016cecb3          	or	s9,s9,s6
1c002fe4:	017cccb3          	xor	s9,s9,s7
1c002fe8:	432b0737          	lui	a4,0x432b0
1c002fec:	4669                	li	a2,26
1c002fee:	f9770713          	addi	a4,a4,-105 # 432aff97 <__l2_end+0x272a7f7f>
1c002ff2:	9cce                	add	s9,s9,s3
1c002ff4:	08ccdcb3          	p.ror	s9,s9,a2
1c002ff8:	993a                	add	s2,s2,a4
1c002ffa:	9cda                	add	s9,s9,s6
1c002ffc:	9962                	add	s2,s2,s8
		STEP(I, d, a, b, c, GET(7), 0x432aff97, 10)
1c002ffe:	fffbcc13          	not	s8,s7
1c003002:	019c6c33          	or	s8,s8,s9
1c003006:	016c4c33          	xor	s8,s8,s6
1c00300a:	ab942737          	lui	a4,0xab942
1c00300e:	4559                	li	a0,22
1c003010:	9c4a                	add	s8,s8,s2
1c003012:	3a770713          	addi	a4,a4,935 # ab9423a7 <pulp__FC+0xab9423a8>
1c003016:	08ac5c33          	p.ror	s8,s8,a0
1c00301a:	94ba                	add	s1,s1,a4
1c00301c:	9c66                	add	s8,s8,s9
1c00301e:	94de                	add	s1,s1,s7
		STEP(I, c, d, a, b, GET(14), 0xab9423a7, 15)
1c003020:	fffb4b93          	not	s7,s6
1c003024:	018bebb3          	or	s7,s7,s8
1c003028:	019bcbb3          	xor	s7,s7,s9
1c00302c:	fc93a737          	lui	a4,0xfc93a
1c003030:	4945                	li	s2,17
1c003032:	9ba6                	add	s7,s7,s1
1c003034:	03970713          	addi	a4,a4,57 # fc93a039 <pulp__FC+0xfc93a03a>
1c003038:	9722                	add	a4,a4,s0
1c00303a:	092bdbb3          	p.ror	s7,s7,s2
1c00303e:	9be2                	add	s7,s7,s8
1c003040:	9b3a                	add	s6,s6,a4
		STEP(I, b, c, d, a, GET(5), 0xfc93a039, 21)
1c003042:	fffcc713          	not	a4,s9
1c003046:	01776733          	or	a4,a4,s7
1c00304a:	01874733          	xor	a4,a4,s8
1c00304e:	46ad                	li	a3,11
1c003050:	975a                	add	a4,a4,s6
1c003052:	08d75733          	p.ror	a4,a4,a3
1c003056:	655b6437          	lui	s0,0x655b6
1c00305a:	975e                	add	a4,a4,s7
1c00305c:	9c340413          	addi	s0,s0,-1597 # 655b59c3 <__l2_end+0x495ad9ab>
		STEP(I, a, b, c, d, GET(12), 0x655b59c3, 6)
1c003060:	fffc4493          	not	s1,s8
1c003064:	93a2                	add	t2,t2,s0
1c003066:	8cd9                	or	s1,s1,a4
1c003068:	9c9e                	add	s9,s9,t2
1c00306a:	0174c4b3          	xor	s1,s1,s7
1c00306e:	9ca6                	add	s9,s9,s1
1c003070:	08ccdcb3          	p.ror	s9,s9,a2
1c003074:	8f0cd3b7          	lui	t2,0x8f0cd
1c003078:	9cba                	add	s9,s9,a4
1c00307a:	c9238393          	addi	t2,t2,-878 # 8f0ccc92 <pulp__FC+0x8f0ccc93>
		STEP(I, d, a, b, c, GET(3), 0x8f0ccc92, 10)
1c00307e:	fffbc413          	not	s0,s7
1c003082:	929e                	add	t0,t0,t2
1c003084:	01946433          	or	s0,s0,s9
1c003088:	9c16                	add	s8,s8,t0
1c00308a:	8c39                	xor	s0,s0,a4
1c00308c:	9c22                	add	s8,s8,s0
1c00308e:	08ac5c33          	p.ror	s8,s8,a0
1c003092:	ffeff2b7          	lui	t0,0xffeff
1c003096:	9c66                	add	s8,s8,s9
1c003098:	47d28293          	addi	t0,t0,1149 # ffeff47d <pulp__FC+0xffeff47e>
		STEP(I, c, d, a, b, GET(10), 0xffeff47d, 15)
1c00309c:	fff74393          	not	t2,a4
1c0030a0:	9f96                	add	t6,t6,t0
1c0030a2:	0183e3b3          	or	t2,t2,s8
1c0030a6:	9bfe                	add	s7,s7,t6
1c0030a8:	0193c3b3          	xor	t2,t2,s9
1c0030ac:	42a2                	lw	t0,8(sp)
1c0030ae:	9b9e                	add	s7,s7,t2
1c0030b0:	85846fb7          	lui	t6,0x85846
1c0030b4:	092bdbb3          	p.ror	s7,s7,s2
1c0030b8:	dd1f8f93          	addi	t6,t6,-559 # 85845dd1 <pulp__FC+0x85845dd2>
1c0030bc:	9be2                	add	s7,s7,s8
1c0030be:	9f96                	add	t6,t6,t0
		STEP(I, b, c, d, a, GET(1), 0x85845dd1, 21)
1c0030c0:	fffcc293          	not	t0,s9
1c0030c4:	0172e2b3          	or	t0,t0,s7
1c0030c8:	0182c2b3          	xor	t0,t0,s8
1c0030cc:	977e                	add	a4,a4,t6
1c0030ce:	9716                	add	a4,a4,t0
1c0030d0:	08d75733          	p.ror	a4,a4,a3
1c0030d4:	6fa88fb7          	lui	t6,0x6fa88
1c0030d8:	975e                	add	a4,a4,s7
1c0030da:	e4ff8f93          	addi	t6,t6,-433 # 6fa87e4f <__l2_end+0x53a7fe37>
		STEP(I, a, b, c, d, GET(8), 0x6fa87e4f, 6)
1c0030de:	fffc4293          	not	t0,s8
1c0030e2:	9f7e                	add	t5,t5,t6
1c0030e4:	00e2e2b3          	or	t0,t0,a4
1c0030e8:	9cfa                	add	s9,s9,t5
1c0030ea:	0172c2b3          	xor	t0,t0,s7
1c0030ee:	9c96                	add	s9,s9,t0
1c0030f0:	08ccdcb3          	p.ror	s9,s9,a2
1c0030f4:	fe2cef37          	lui	t5,0xfe2ce
1c0030f8:	9cba                	add	s9,s9,a4
1c0030fa:	6e0f0f13          	addi	t5,t5,1760 # fe2ce6e0 <pulp__FC+0xfe2ce6e1>
		STEP(I, d, a, b, c, GET(15), 0xfe2ce6e0, 10)
1c0030fe:	fffbcf93          	not	t6,s7
1c003102:	9efa                	add	t4,t4,t5
1c003104:	019fefb3          	or	t6,t6,s9
1c003108:	9c76                	add	s8,s8,t4
1c00310a:	00efcfb3          	xor	t6,t6,a4
1c00310e:	9c7e                	add	s8,s8,t6
1c003110:	08ac5c33          	p.ror	s8,s8,a0
1c003114:	a3014eb7          	lui	t4,0xa3014
1c003118:	9c66                	add	s8,s8,s9
1c00311a:	314e8e93          	addi	t4,t4,788 # a3014314 <pulp__FC+0xa3014315>
		STEP(I, c, d, a, b, GET(6), 0xa3014314, 15)
1c00311e:	fff74f13          	not	t5,a4
1c003122:	9e76                	add	t3,t3,t4
1c003124:	018f6f33          	or	t5,t5,s8
1c003128:	9bf2                	add	s7,s7,t3
1c00312a:	019f4f33          	xor	t5,t5,s9
1c00312e:	9bfa                	add	s7,s7,t5
1c003130:	092bdbb3          	p.ror	s7,s7,s2
1c003134:	4e081e37          	lui	t3,0x4e081
1c003138:	9be2                	add	s7,s7,s8
1c00313a:	1a1e0e13          	addi	t3,t3,417 # 4e0811a1 <__l2_end+0x32079189>
		STEP(I, b, c, d, a, GET(13), 0x4e0811a1, 21)
1c00313e:	fffcce93          	not	t4,s9
1c003142:	9372                	add	t1,t1,t3
1c003144:	017eeeb3          	or	t4,t4,s7
1c003148:	018eceb3          	xor	t4,t4,s8
1c00314c:	971a                	add	a4,a4,t1
1c00314e:	9776                	add	a4,a4,t4
1c003150:	4d42                	lw	s10,16(sp)
1c003152:	08d75733          	p.ror	a4,a4,a3
1c003156:	f7538337          	lui	t1,0xf7538
1c00315a:	975e                	add	a4,a4,s7
		STEP(I, a, b, c, d, GET(4), 0xf7537e82, 6)
1c00315c:	fffc4e13          	not	t3,s8
1c003160:	e8230313          	addi	t1,t1,-382 # f7537e82 <pulp__FC+0xf7537e83>
1c003164:	936a                	add	t1,t1,s10
1c003166:	00ee6e33          	or	t3,t3,a4
1c00316a:	017e4e33          	xor	t3,t3,s7
1c00316e:	9c9a                	add	s9,s9,t1
1c003170:	9cf2                	add	s9,s9,t3
1c003172:	08ccd633          	p.ror	a2,s9,a2
1c003176:	bd3af337          	lui	t1,0xbd3af
1c00317a:	963a                	add	a2,a2,a4
1c00317c:	23530313          	addi	t1,t1,565 # bd3af235 <pulp__FC+0xbd3af236>
		STEP(I, d, a, b, c, GET(11), 0xbd3af235, 10)
1c003180:	fffbce13          	not	t3,s7
1c003184:	989a                	add	a7,a7,t1
1c003186:	00ce6e33          	or	t3,t3,a2
1c00318a:	00ee4e33          	xor	t3,t3,a4
1c00318e:	9c46                	add	s8,s8,a7
1c003190:	9c72                	add	s8,s8,t3
1c003192:	08ac5533          	p.ror	a0,s8,a0
1c003196:	2ad7d8b7          	lui	a7,0x2ad7d
1c00319a:	9532                	add	a0,a0,a2
		STEP(I, c, d, a, b, GET(2), 0x2ad7d2bb, 15)
1c00319c:	fff74313          	not	t1,a4
1c0031a0:	2bb88893          	addi	a7,a7,699 # 2ad7d2bb <__l2_end+0xed752a3>
1c0031a4:	98ee                	add	a7,a7,s11
1c0031a6:	00a36333          	or	t1,t1,a0
1c0031aa:	9bc6                	add	s7,s7,a7
1c0031ac:	00c34333          	xor	t1,t1,a2
1c0031b0:	9b9a                	add	s7,s7,t1
1c0031b2:	4dd2                	lw	s11,20(sp)
1c0031b4:	092bd933          	p.ror	s2,s7,s2
1c0031b8:	eb86d8b7          	lui	a7,0xeb86d
1c0031bc:	992a                	add	s2,s2,a0
1c0031be:	39188893          	addi	a7,a7,913 # eb86d391 <pulp__FC+0xeb86d392>
		STEP(I, b, c, d, a, GET(9), 0xeb86d391, 21)
1c0031c2:	fff64313          	not	t1,a2
		a += saved_a;
1c0031c6:	4e62                	lw	t3,24(sp)
	} while (size -= 64);
1c0031c8:	4ef2                	lw	t4,28(sp)
1c0031ca:	98ee                	add	a7,a7,s11
		STEP(I, b, c, d, a, GET(9), 0xeb86d391, 21)
1c0031cc:	01236333          	or	t1,t1,s2
1c0031d0:	9746                	add	a4,a4,a7
1c0031d2:	00a34333          	xor	t1,t1,a0
1c0031d6:	971a                	add	a4,a4,t1
1c0031d8:	08d75733          	p.ror	a4,a4,a3
		a += saved_a;
1c0031dc:	9e32                	add	t3,t3,a2
	} while (size -= 64);
1c0031de:	1efd                	addi	t4,t4,-1
		STEP(I, b, c, d, a, GET(9), 0xeb86d391, 21)
1c0031e0:	974a                	add	a4,a4,s2
		a += saved_a;
1c0031e2:	cc72                	sw	t3,24(sp)
	} while (size -= 64);
1c0031e4:	ce76                	sw	t4,28(sp)
		b += saved_b;
1c0031e6:	983a                	add	a6,a6,a4
		c += saved_c;
1c0031e8:	9a4a                	add	s4,s4,s2
		d += saved_d;
1c0031ea:	9aaa                	add	s5,s5,a0
	} while (size -= 64);
1c0031ec:	f80e9a63          	bnez	t4,1c002980 <body+0x38>
	ctx->b = b;
	ctx->c = c;
	ctx->d = d;

	return ptr;
}
1c0031f0:	4436                	lw	s0,76(sp)
	ctx->c = c;
1c0031f2:	0147a823          	sw	s4,16(a5)
	ctx->d = d;
1c0031f6:	0157aa23          	sw	s5,20(a5)
	ctx->a = a;
1c0031fa:	01c7a423          	sw	t3,8(a5)
	ctx->b = b;
1c0031fe:	0107a623          	sw	a6,12(a5)
}
1c003202:	44a6                	lw	s1,72(sp)
1c003204:	4916                	lw	s2,68(sp)
1c003206:	4986                	lw	s3,64(sp)
1c003208:	5a72                	lw	s4,60(sp)
1c00320a:	5ae2                	lw	s5,56(sp)
1c00320c:	5b52                	lw	s6,52(sp)
1c00320e:	5bc2                	lw	s7,48(sp)
1c003210:	5c32                	lw	s8,44(sp)
1c003212:	5ca2                	lw	s9,40(sp)
1c003214:	5d12                	lw	s10,36(sp)
1c003216:	5d82                	lw	s11,32(sp)
1c003218:	852e                	mv	a0,a1
1c00321a:	6161                	addi	sp,sp,80
1c00321c:	8082                	ret

1c00321e <MD5_Init>:

void MD5_Init(MD5_CTX *ctx)
{
	ctx->a = 0x67452301;
1c00321e:	674527b7          	lui	a5,0x67452
1c003222:	30178793          	addi	a5,a5,769 # 67452301 <__l2_end+0x4b44a2e9>
1c003226:	c51c                	sw	a5,8(a0)
	ctx->b = 0xefcdab89;
1c003228:	efcdb7b7          	lui	a5,0xefcdb
1c00322c:	b8978793          	addi	a5,a5,-1143 # efcdab89 <pulp__FC+0xefcdab8a>
1c003230:	c55c                	sw	a5,12(a0)
	ctx->c = 0x98badcfe;
1c003232:	98bae7b7          	lui	a5,0x98bae
1c003236:	cfe78793          	addi	a5,a5,-770 # 98badcfe <pulp__FC+0x98badcff>
1c00323a:	c91c                	sw	a5,16(a0)
	ctx->d = 0x10325476;
1c00323c:	103257b7          	lui	a5,0x10325
1c003240:	47678793          	addi	a5,a5,1142 # 10325476 <__l1_end+0x325456>
1c003244:	c95c                	sw	a5,20(a0)

	ctx->lo = 0;
1c003246:	00052023          	sw	zero,0(a0)
	ctx->hi = 0;
1c00324a:	00052223          	sw	zero,4(a0)
}
1c00324e:	8082                	ret

1c003250 <MD5_Update>:

void MD5_Update(MD5_CTX *ctx, const void *data, unsigned long size)
{
1c003250:	1101                	addi	sp,sp,-32
1c003252:	cc22                	sw	s0,24(sp)
1c003254:	842a                	mv	s0,a0
	MD5_u32plus saved_lo;
	unsigned long used, available;

	saved_lo = ctx->lo;
1c003256:	4108                	lw	a0,0(a0)
{
1c003258:	ca26                	sw	s1,20(sp)
1c00325a:	c84a                	sw	s2,16(sp)
	if ((ctx->lo = (saved_lo + size) & 0x1fffffff) < saved_lo)
1c00325c:	00c507b3          	add	a5,a0,a2
{
1c003260:	ce06                	sw	ra,28(sp)
1c003262:	c64e                	sw	s3,12(sp)
	if ((ctx->lo = (saved_lo + size) & 0x1fffffff) < saved_lo)
1c003264:	c5d7b7b3          	p.bclr	a5,a5,2,29
1c003268:	c01c                	sw	a5,0(s0)
{
1c00326a:	892e                	mv	s2,a1
1c00326c:	84b2                	mv	s1,a2
	if ((ctx->lo = (saved_lo + size) & 0x1fffffff) < saved_lo)
1c00326e:	00a7f563          	bleu	a0,a5,1c003278 <MD5_Update+0x28>
		ctx->hi++;
1c003272:	405c                	lw	a5,4(s0)
1c003274:	0785                	addi	a5,a5,1
1c003276:	c05c                	sw	a5,4(s0)
	ctx->hi += size >> 29;
1c003278:	4058                	lw	a4,4(s0)
1c00327a:	01d4d793          	srli	a5,s1,0x1d

	used = saved_lo & 0x3f;
1c00327e:	f2653533          	p.bclr	a0,a0,25,6
	ctx->hi += size >> 29;
1c003282:	97ba                	add	a5,a5,a4
1c003284:	c05c                	sw	a5,4(s0)

	if (used) {
1c003286:	c129                	beqz	a0,1c0032c8 <MD5_Update+0x78>
		available = 64 - used;
1c003288:	04000993          	li	s3,64
1c00328c:	40a989b3          	sub	s3,s3,a0
1c003290:	0561                	addi	a0,a0,24
1c003292:	9522                	add	a0,a0,s0

		if (size < available) {
1c003294:	0134fc63          	bleu	s3,s1,1c0032ac <MD5_Update+0x5c>
			memcpy(&ctx->buffer[used], data, size);
1c003298:	8626                	mv	a2,s1
1c00329a:	85ca                	mv	a1,s2
		data = body(ctx, data, size & ~(unsigned long)0x3f);
		size &= 0x3f;
	}

	memcpy(ctx->buffer, data, size);
}
1c00329c:	4462                	lw	s0,24(sp)
1c00329e:	40f2                	lw	ra,28(sp)
1c0032a0:	44d2                	lw	s1,20(sp)
1c0032a2:	4942                	lw	s2,16(sp)
1c0032a4:	49b2                	lw	s3,12(sp)
1c0032a6:	6105                	addi	sp,sp,32
	memcpy(ctx->buffer, data, size);
1c0032a8:	4e30206f          	j	1c005f8a <memcpy>
		memcpy(&ctx->buffer[used], data, available);
1c0032ac:	85ca                	mv	a1,s2
1c0032ae:	864e                	mv	a2,s3
1c0032b0:	4db020ef          	jal	ra,1c005f8a <memcpy>
		body(ctx, ctx->buffer, 64);
1c0032b4:	04000613          	li	a2,64
1c0032b8:	01840593          	addi	a1,s0,24
1c0032bc:	8522                	mv	a0,s0
		data = (const unsigned char *)data + available;
1c0032be:	994e                	add	s2,s2,s3
		size -= available;
1c0032c0:	413484b3          	sub	s1,s1,s3
		body(ctx, ctx->buffer, 64);
1c0032c4:	e84ff0ef          	jal	ra,1c002948 <body>
	if (size >= 64) {
1c0032c8:	03f00793          	li	a5,63
1c0032cc:	0097fb63          	bleu	s1,a5,1c0032e2 <MD5_Update+0x92>
		data = body(ctx, data, size & ~(unsigned long)0x3f);
1c0032d0:	ca04b633          	p.bclr	a2,s1,5,0
1c0032d4:	85ca                	mv	a1,s2
1c0032d6:	8522                	mv	a0,s0
1c0032d8:	e70ff0ef          	jal	ra,1c002948 <body>
1c0032dc:	892a                	mv	s2,a0
		size &= 0x3f;
1c0032de:	f264b4b3          	p.bclr	s1,s1,25,6
	memcpy(ctx->buffer, data, size);
1c0032e2:	8626                	mv	a2,s1
1c0032e4:	85ca                	mv	a1,s2
1c0032e6:	01840513          	addi	a0,s0,24
1c0032ea:	bf4d                	j	1c00329c <MD5_Update+0x4c>

1c0032ec <MD5_Final>:
	(dst)[1] = (unsigned char)((src) >> 8); \
	(dst)[2] = (unsigned char)((src) >> 16); \
	(dst)[3] = (unsigned char)((src) >> 24);

void MD5_Final(unsigned char *result, MD5_CTX *ctx)
{
1c0032ec:	1141                	addi	sp,sp,-16
1c0032ee:	c226                	sw	s1,4(sp)
1c0032f0:	84aa                	mv	s1,a0
	unsigned long used, available;

	used = ctx->lo & 0x3f;
1c0032f2:	4188                	lw	a0,0(a1)
{
1c0032f4:	c422                	sw	s0,8(sp)
1c0032f6:	c04a                	sw	s2,0(sp)
	used = ctx->lo & 0x3f;
1c0032f8:	f2653533          	p.bclr	a0,a0,25,6

	ctx->buffer[used++] = 0x80;
1c0032fc:	00a58733          	add	a4,a1,a0
{
1c003300:	c606                	sw	ra,12(sp)
	ctx->buffer[used++] = 0x80;
1c003302:	00150793          	addi	a5,a0,1
1c003306:	f8000693          	li	a3,-128

	available = 64 - used;
1c00330a:	04000613          	li	a2,64
	ctx->buffer[used++] = 0x80;
1c00330e:	00d70c23          	sb	a3,24(a4)
	available = 64 - used;
1c003312:	8e1d                	sub	a2,a2,a5

	if (available < 8) {
1c003314:	471d                	li	a4,7
{
1c003316:	842e                	mv	s0,a1
1c003318:	01858913          	addi	s2,a1,24
	if (available < 8) {
1c00331c:	02c76063          	bltu	a4,a2,1c00333c <MD5_Final+0x50>
		memset(&ctx->buffer[used], 0, available);
1c003320:	0565                	addi	a0,a0,25
1c003322:	4581                	li	a1,0
1c003324:	9522                	add	a0,a0,s0
1c003326:	455020ef          	jal	ra,1c005f7a <memset>
		body(ctx, ctx->buffer, 64);
1c00332a:	04000613          	li	a2,64
1c00332e:	85ca                	mv	a1,s2
1c003330:	8522                	mv	a0,s0
1c003332:	e16ff0ef          	jal	ra,1c002948 <body>
		used = 0;
		available = 64;
1c003336:	04000613          	li	a2,64
		used = 0;
1c00333a:	4781                	li	a5,0
	}

	memset(&ctx->buffer[used], 0, available - 8);
1c00333c:	01878513          	addi	a0,a5,24
1c003340:	1661                	addi	a2,a2,-8
1c003342:	4581                	li	a1,0
1c003344:	9522                	add	a0,a0,s0
1c003346:	435020ef          	jal	ra,1c005f7a <memset>

	ctx->lo <<= 3;
1c00334a:	401c                	lw	a5,0(s0)
	OUT(&ctx->buffer[56], ctx->lo)
	OUT(&ctx->buffer[60], ctx->hi)

	body(ctx, ctx->buffer, 64);
1c00334c:	85ca                	mv	a1,s2
1c00334e:	04000613          	li	a2,64
	ctx->lo <<= 3;
1c003352:	078e                	slli	a5,a5,0x3
	OUT(&ctx->buffer[56], ctx->lo)
1c003354:	873e                	mv	a4,a5
1c003356:	04e40823          	sb	a4,80(s0)
1c00335a:	0087d713          	srli	a4,a5,0x8
	ctx->lo <<= 3;
1c00335e:	c01c                	sw	a5,0(s0)
	OUT(&ctx->buffer[56], ctx->lo)
1c003360:	04e408a3          	sb	a4,81(s0)
1c003364:	0107d713          	srli	a4,a5,0x10
1c003368:	83e1                	srli	a5,a5,0x18
1c00336a:	04f409a3          	sb	a5,83(s0)
	OUT(&ctx->buffer[60], ctx->hi)
1c00336e:	405c                	lw	a5,4(s0)
	OUT(&ctx->buffer[56], ctx->lo)
1c003370:	04e40923          	sb	a4,82(s0)
	OUT(&ctx->buffer[60], ctx->hi)
1c003374:	873e                	mv	a4,a5
1c003376:	04e40a23          	sb	a4,84(s0)
1c00337a:	0087d713          	srli	a4,a5,0x8
1c00337e:	04e40aa3          	sb	a4,85(s0)
1c003382:	0107d713          	srli	a4,a5,0x10
1c003386:	83e1                	srli	a5,a5,0x18
1c003388:	04f40ba3          	sb	a5,87(s0)
1c00338c:	04e40b23          	sb	a4,86(s0)
	body(ctx, ctx->buffer, 64);
1c003390:	8522                	mv	a0,s0
1c003392:	db6ff0ef          	jal	ra,1c002948 <body>

	OUT(&result[0], ctx->a)
1c003396:	441c                	lw	a5,8(s0)
	OUT(&result[4], ctx->b)
	OUT(&result[8], ctx->c)
	OUT(&result[12], ctx->d)

	memset(ctx, 0, sizeof(*ctx));
1c003398:	8522                	mv	a0,s0
1c00339a:	09800613          	li	a2,152
	OUT(&result[0], ctx->a)
1c00339e:	00f48023          	sb	a5,0(s1)
1c0033a2:	441c                	lw	a5,8(s0)
	memset(ctx, 0, sizeof(*ctx));
1c0033a4:	4581                	li	a1,0
	OUT(&result[0], ctx->a)
1c0033a6:	83a1                	srli	a5,a5,0x8
1c0033a8:	00f480a3          	sb	a5,1(s1)
1c0033ac:	00a45783          	lhu	a5,10(s0)
1c0033b0:	00f48123          	sb	a5,2(s1)
1c0033b4:	00b44783          	lbu	a5,11(s0)
1c0033b8:	00f481a3          	sb	a5,3(s1)
	OUT(&result[4], ctx->b)
1c0033bc:	445c                	lw	a5,12(s0)
1c0033be:	00f48223          	sb	a5,4(s1)
1c0033c2:	445c                	lw	a5,12(s0)
1c0033c4:	83a1                	srli	a5,a5,0x8
1c0033c6:	00f482a3          	sb	a5,5(s1)
1c0033ca:	00e45783          	lhu	a5,14(s0)
1c0033ce:	00f48323          	sb	a5,6(s1)
1c0033d2:	00f44783          	lbu	a5,15(s0)
1c0033d6:	00f483a3          	sb	a5,7(s1)
	OUT(&result[8], ctx->c)
1c0033da:	481c                	lw	a5,16(s0)
1c0033dc:	00f48423          	sb	a5,8(s1)
1c0033e0:	481c                	lw	a5,16(s0)
1c0033e2:	83a1                	srli	a5,a5,0x8
1c0033e4:	00f484a3          	sb	a5,9(s1)
1c0033e8:	01245783          	lhu	a5,18(s0)
1c0033ec:	00f48523          	sb	a5,10(s1)
1c0033f0:	01344783          	lbu	a5,19(s0)
1c0033f4:	00f485a3          	sb	a5,11(s1)
	OUT(&result[12], ctx->d)
1c0033f8:	485c                	lw	a5,20(s0)
1c0033fa:	00f48623          	sb	a5,12(s1)
1c0033fe:	485c                	lw	a5,20(s0)
1c003400:	83a1                	srli	a5,a5,0x8
1c003402:	00f486a3          	sb	a5,13(s1)
1c003406:	01645783          	lhu	a5,22(s0)
1c00340a:	00f48723          	sb	a5,14(s1)
1c00340e:	01744783          	lbu	a5,23(s0)
1c003412:	00f487a3          	sb	a5,15(s1)
}
1c003416:	40b2                	lw	ra,12(sp)
1c003418:	4422                	lw	s0,8(sp)
1c00341a:	4492                	lw	s1,4(sp)
1c00341c:	4902                	lw	s2,0(sp)
1c00341e:	0141                	addi	sp,sp,16
	memset(ctx, 0, sizeof(*ctx));
1c003420:	35b0206f          	j	1c005f7a <memset>

1c003424 <__internal_semihost>:
    return __internal_semihost(SEMIHOSTING_SYS_SEEK, (long) args);
}

int semihost_flen(int fd)
{
    return __internal_semihost(SEMIHOSTING_SYS_FLEN, (long) fd);
1c003424:	01f01013          	slli	zero,zero,0x1f
1c003428:	00100073          	ebreak
1c00342c:	40705013          	srai	zero,zero,0x7
1c003430:	8082                	ret

1c003432 <semihost_write0>:
1c003432:	85aa                	mv	a1,a0
1c003434:	4511                	li	a0,4
1c003436:	b7fd                	j	1c003424 <__internal_semihost>

1c003438 <semihost_open>:
1c003438:	7139                	addi	sp,sp,-64
1c00343a:	de06                	sw	ra,60(sp)
1c00343c:	dc22                	sw	s0,56(sp)
1c00343e:	c62e                	sw	a1,12(sp)
1c003440:	842a                	mv	s0,a0
1c003442:	323020ef          	jal	ra,1c005f64 <strlen>
1c003446:	45b2                	lw	a1,12(sp)
1c003448:	083c                	addi	a5,sp,24
1c00344a:	c380                	sw	s0,0(a5)
1c00344c:	087c                	addi	a5,sp,28
1c00344e:	c38c                	sw	a1,0(a5)
1c003450:	101c                	addi	a5,sp,32
1c003452:	c388                	sw	a0,0(a5)
1c003454:	082c                	addi	a1,sp,24
1c003456:	4505                	li	a0,1
1c003458:	37f1                	jal	1c003424 <__internal_semihost>
1c00345a:	50f2                	lw	ra,60(sp)
1c00345c:	5462                	lw	s0,56(sp)
1c00345e:	6121                	addi	sp,sp,64
1c003460:	8082                	ret

1c003462 <semihost_close>:
1c003462:	85aa                	mv	a1,a0
1c003464:	4509                	li	a0,2
1c003466:	bf7d                	j	1c003424 <__internal_semihost>

1c003468 <semihost_read>:
1c003468:	7179                	addi	sp,sp,-48
1c00346a:	d606                	sw	ra,44(sp)
1c00346c:	003c                	addi	a5,sp,8
1c00346e:	c388                	sw	a0,0(a5)
1c003470:	007c                	addi	a5,sp,12
1c003472:	c38c                	sw	a1,0(a5)
1c003474:	4519                	li	a0,6
1c003476:	081c                	addi	a5,sp,16
1c003478:	002c                	addi	a1,sp,8
1c00347a:	c390                	sw	a2,0(a5)
1c00347c:	3765                	jal	1c003424 <__internal_semihost>
1c00347e:	50b2                	lw	ra,44(sp)
1c003480:	6145                	addi	sp,sp,48
1c003482:	8082                	ret

1c003484 <semihost_write>:
1c003484:	7179                	addi	sp,sp,-48
1c003486:	d606                	sw	ra,44(sp)
1c003488:	003c                	addi	a5,sp,8
1c00348a:	c388                	sw	a0,0(a5)
1c00348c:	007c                	addi	a5,sp,12
1c00348e:	c38c                	sw	a1,0(a5)
1c003490:	4515                	li	a0,5
1c003492:	081c                	addi	a5,sp,16
1c003494:	002c                	addi	a1,sp,8
1c003496:	c390                	sw	a2,0(a5)
1c003498:	3771                	jal	1c003424 <__internal_semihost>
1c00349a:	50b2                	lw	ra,44(sp)
1c00349c:	6145                	addi	sp,sp,48
1c00349e:	8082                	ret

1c0034a0 <semihost_seek>:
1c0034a0:	1101                	addi	sp,sp,-32
1c0034a2:	c42a                	sw	a0,8(sp)
1c0034a4:	c62e                	sw	a1,12(sp)
1c0034a6:	4529                	li	a0,10
1c0034a8:	002c                	addi	a1,sp,8
1c0034aa:	ce06                	sw	ra,28(sp)
1c0034ac:	3fa5                	jal	1c003424 <__internal_semihost>
1c0034ae:	40f2                	lw	ra,28(sp)
1c0034b0:	6105                	addi	sp,sp,32
1c0034b2:	8082                	ret

1c0034b4 <semihost_exit>:
}

int semihost_exit(int code)
{
    return __internal_semihost(SEMIHOSTING_SYS_EXIT, (long) code);
1c0034b4:	85aa                	mv	a1,a0
1c0034b6:	4561                	li	a0,24
1c0034b8:	b7b5                	j	1c003424 <__internal_semihost>

1c0034ba <__bsp_init_pads>:
  conf->ram_start = CONFIG_HYPERRAM_START;
  conf->ram_size = CONFIG_HYPERRAM_SIZE;
  conf->skip_pads_config = 0;
  conf->hyper_itf = CONFIG_HYPERRAM_HYPER_ITF;
  conf->hyper_cs = CONFIG_HYPERRAM_HYPER_CS;
}
1c0034ba:	1c0087b7          	lui	a5,0x1c008
1c0034be:	ecc78793          	addi	a5,a5,-308 # 1c007ecc <__bsp_init_pads_done>
1c0034c2:	4398                	lw	a4,0(a5)
1c0034c4:	eb05                	bnez	a4,1c0034f4 <__bsp_init_pads+0x3a>
1c0034c6:	1101                	addi	sp,sp,-32
1c0034c8:	ce06                	sw	ra,28(sp)
1c0034ca:	4705                	li	a4,1
1c0034cc:	c398                	sw	a4,0(a5)
1c0034ce:	000557b7          	lui	a5,0x55
1c0034d2:	50078793          	addi	a5,a5,1280 # 55500 <__L1Cl+0x45500>
1c0034d6:	c03e                	sw	a5,0(sp)
1c0034d8:	0f0007b7          	lui	a5,0xf000
1c0034dc:	c23e                	sw	a5,4(sp)
1c0034de:	004007b7          	lui	a5,0x400
1c0034e2:	17fd                	addi	a5,a5,-1
1c0034e4:	850a                	mv	a0,sp
1c0034e6:	c43e                	sw	a5,8(sp)
1c0034e8:	c602                	sw	zero,12(sp)
1c0034ea:	1d5010ef          	jal	ra,1c004ebe <pi_pad_init>
1c0034ee:	40f2                	lw	ra,28(sp)
1c0034f0:	6105                	addi	sp,sp,32
1c0034f2:	8082                	ret
1c0034f4:	8082                	ret

1c0034f6 <bsp_hyperflash_conf_init>:


void bsp_hyperflash_conf_init(struct pi_hyperflash_conf *conf)
{
  conf->hyper_itf = CONFIG_HYPERFLASH_HYPER_ITF;
  conf->hyper_cs = CONFIG_HYPERFLASH_HYPER_CS;
1c0034f6:	4785                	li	a5,1
  conf->hyper_itf = CONFIG_HYPERFLASH_HYPER_ITF;
1c0034f8:	00052223          	sw	zero,4(a0)
  conf->hyper_cs = CONFIG_HYPERFLASH_HYPER_CS;
1c0034fc:	c51c                	sw	a5,8(a0)
}
1c0034fe:	8082                	ret

1c003500 <bsp_hyperflash_open>:
1c003500:	1141                	addi	sp,sp,-16
1c003502:	c606                	sw	ra,12(sp)
1c003504:	3f5d                	jal	1c0034ba <__bsp_init_pads>
1c003506:	40b2                	lw	ra,12(sp)
1c003508:	4501                	li	a0,0
1c00350a:	0141                	addi	sp,sp,16
1c00350c:	8082                	ret

1c00350e <cluster_start>:
  This is useful when the mask must be updated before waiting for a specific event without modifying the other events (this saves a few instructions)
  \param evtMask Bit mask used to update the event mask. There is 1 bit per event, 1 means the corresponding bit is set in the event mask.
  */
static inline void eu_evt_maskSet(unsigned int evtMask)
{
  ARCHI_WRITE(ARCHI_EU_DEMUX_ADDR, EU_CORE_MASK_OR, evtMask);
1c00350e:	002047b7          	lui	a5,0x204
1c003512:	00070737          	lui	a4,0x70
1c003516:	00e7a423          	sw	a4,8(a5) # 204008 <__L2+0x184008>
  IP_WRITE_PTR(base, EU_DISPATCH_FIFO_ACCESS, value);
}

static inline void eu_dispatch_team_config(unsigned value)
{
  IP_WRITE(ARCHI_EU_DEMUX_ADDR, EU_DISPATCH_DEMUX_OFFSET + EU_DISPATCH_TEAM_CONFIG, value);
1c00351a:	0ff00713          	li	a4,255
1c00351e:	002046b7          	lui	a3,0x204
1c003522:	08e6a223          	sw	a4,132(a3) # 204084 <__L2+0x184084>
  IP_WRITE(barAddr, EU_HW_BARR_TRIGGER_MASK, coreMask);
1c003526:	20078793          	addi	a5,a5,512
1c00352a:	00e7a023          	sw	a4,0(a5)
  IP_WRITE(barAddr, EU_HW_BARR_TARGET_MASK, targetMask);
1c00352e:	00e7a623          	sw	a4,12(a5)
    __rt_team_config(rt_nb_active_pe());
  }

#endif

}
1c003532:	8082                	ret

1c003534 <__rt_init>:
{
1c003534:	1101                	addi	sp,sp,-32
static inline void hal_pmu_bypass_set(unsigned int Value) {
  IP_WRITE(ARCHI_APB_SOC_CTRL_ADDR, APB_SOC_CL_BYPASS_OFFSET, Value);
}

static inline unsigned int hal_pmu_bypass_get() {
  return IP_READ(ARCHI_APB_SOC_CTRL_ADDR, APB_SOC_CL_BYPASS_OFFSET);
1c003536:	1a104737          	lui	a4,0x1a104
1c00353a:	ce06                	sw	ra,28(sp)
1c00353c:	cc22                	sw	s0,24(sp)
1c00353e:	ca26                	sw	s1,20(sp)
1c003540:	07072783          	lw	a5,112(a4) # 1a104070 <__l1_end+0xa104050>
  hal_pmu_bypass_set (ARCHI_REG_FIELD_SET (hal_pmu_bypass_get (), 1, 11, 1) );
1c003544:	c0b7c7b3          	p.bset	a5,a5,0,11
  IP_WRITE(ARCHI_APB_SOC_CTRL_ADDR, APB_SOC_CL_BYPASS_OFFSET, Value);
1c003548:	06f72823          	sw	a5,112(a4)
  __rt_bridge_set_available();
1c00354c:	2361                	jal	1c003ad4 <__rt_bridge_set_available>
  cpu_stack_check_enable((int)__rt_fc_stack, (int)__rt_fc_stack + __rt_fc_stack_size);
1c00354e:	1b0007b7          	lui	a5,0x1b000
1c003552:	3e878793          	addi	a5,a5,1000 # 1b0003e8 <__rt_fc_stack>
 * Stack checking
 */

static inline void cpu_stack_check_enable(unsigned int base, unsigned int end)
{
  asm volatile ("csrwi 0x7D0, 0" :: );
1c003556:	7d005073          	csrwi	0x7d0,0
  asm volatile ("csrw  0x7D1, %0" :: "r" (base));
1c00355a:	7d179073          	csrw	0x7d1,a5
1c00355e:	1c008737          	lui	a4,0x1c008
1c003562:	a8072703          	lw	a4,-1408(a4) # 1c007a80 <__rt_fc_stack_size>
1c003566:	97ba                	add	a5,a5,a4
  asm volatile ("csrw  0x7D2, %0" :: "r" (end));
1c003568:	7d279073          	csrw	0x7d2,a5
  asm volatile ("csrwi 0x7D0, 1" :: );
1c00356c:	7d00d073          	csrwi	0x7d0,1
  __rt_irq_init();
1c003570:	2ad5                	jal	1c003764 <__rt_irq_init>

#include "archi/pulp.h"
#include "archi/soc_eu/soc_eu_v1.h"

static inline void soc_eu_eventMask_set(unsigned int reg, unsigned int value) {
  ARCHI_WRITE(ARCHI_SOC_EU_ADDR, reg, value);
1c003572:	54fd                	li	s1,-1
1c003574:	1a1067b7          	lui	a5,0x1a106
1c003578:	0097a223          	sw	s1,4(a5) # 1a106004 <__l1_end+0xa105fe4>
1c00357c:	0097a423          	sw	s1,8(a5)
  rt_irq_set_handler(ARCHI_FC_EVT_SOC_EVT, __rt_fc_socevents_handler);
1c003580:	1c0005b7          	lui	a1,0x1c000
1c003584:	3f458593          	addi	a1,a1,1012 # 1c0003f4 <__rt_fc_socevents_handler>
1c003588:	456d                	li	a0,27
1c00358a:	2a35                	jal	1c0036c6 <rt_irq_set_handler>
  ARCHI_WRITE(base, EU_CORE_MASK_IRQ_OR, irqMask);
1c00358c:	080007b7          	lui	a5,0x8000
1c003590:	00204737          	lui	a4,0x204
1c003594:	00f72a23          	sw	a5,20(a4) # 204014 <__L2+0x184014>
  ARCHI_WRITE(ARCHI_EU_DEMUX_ADDR, EU_CORE_MASK_OR, evtMask);
1c003598:	00f72423          	sw	a5,8(a4)
  __rt_pmu_init();
1c00359c:	24a010ef          	jal	ra,1c0047e6 <__rt_pmu_init>
  __rt_freq_init();
1c0035a0:	695000ef          	jal	ra,1c004434 <__rt_freq_init>
1c0035a4:	002017b7          	lui	a5,0x201
1c0035a8:	40078793          	addi	a5,a5,1024 # 201400 <__L2+0x181400>
  pulp_write32(ARCHI_CLUSTER_PERIPHERALS_GLOBAL_ADDR(cid) + ARCHI_ICACHE_CTRL_OFFSET, 0xFFFFFFFF);
}

static inline void icache_enable(unsigned int base)
{
  pulp_write32(base, 0xFFFFFFFF);
1c0035ac:	c384                	sw	s1,0(a5)
  asm("csrr %0, 0x014" : "=r" (hart_id) : );
1c0035ae:	01402473          	csrr	s0,uhartid
1c0035b2:	1c0074b7          	lui	s1,0x1c007
  return (hart_id >> 5) & 0x3f;
1c0035b6:	8415                	srai	s0,s0,0x5
  __rt_utils_init();
1c0035b8:	24e5                	jal	1c0038a0 <__rt_utils_init>
1c0035ba:	f2643433          	p.bclr	s0,s0,25,6
  __rt_allocs_init();
1c0035be:	175000ef          	jal	ra,1c003f32 <__rt_allocs_init>
1c0035c2:	3f048493          	addi	s1,s1,1008 # 1c0073f0 <ctor_list+0x4>
  __rt_event_sched_init();
1c0035c6:	001000ef          	jal	ra,1c003dc6 <__rt_event_sched_init>
  __rt_padframe_init();
1c0035ca:	3d8020ef          	jal	ra,1c0059a2 <__rt_padframe_init>
  for(fpp = ctor_list+1;  *fpp != 0;  ++fpp) {
1c0035ce:	0044a78b          	p.lw	a5,4(s1!)
1c0035d2:	ebad                	bnez	a5,1c003644 <__rt_init+0x110>
  return __builtin_pulp_read_then_spr_bit_set(reg, val);
1c0035d4:	300467f3          	csrrsi	a5,mstatus,8
  if (__rt_cbsys_exec(RT_CBSYS_START)) goto error;
1c0035d8:	4501                	li	a0,0
1c0035da:	2c59                	jal	1c003870 <__rt_cbsys_exec>
1c0035dc:	e539                	bnez	a0,1c00362a <__rt_init+0xf6>
  asm("csrr %0, 0x014" : "=r" (hart_id) : );
1c0035de:	014027f3          	csrr	a5,uhartid
  return (hart_id >> 5) & 0x3f;
1c0035e2:	8795                	srai	a5,a5,0x5
1c0035e4:	f267b7b3          	p.bclr	a5,a5,25,6
        exit(retval);
      }
    }
    else
      return cluster_master_start(NULL);
  } else if (!rt_is_fc()) {
1c0035e8:	02000713          	li	a4,32
1c0035ec:	0ae78263          	beq	a5,a4,1c003690 <__rt_init+0x15c>
    rt_cluster_mount(1, cid, 0, NULL);
1c0035f0:	4681                	li	a3,0
1c0035f2:	4601                	li	a2,0
1c0035f4:	4581                	li	a1,0
1c0035f6:	4505                	li	a0,1
  if (rt_cluster_id() != cid)
1c0035f8:	cba1                	beqz	a5,1c003648 <__rt_init+0x114>
    rt_cluster_mount(1, cid, 0, NULL);
1c0035fa:	73a010ef          	jal	ra,1c004d34 <rt_cluster_mount>
    void *stacks = rt_alloc(RT_ALLOC_CL_DATA+cid, 0x800*rt_nb_active_pe());
1c0035fe:	6591                	lui	a1,0x4
1c003600:	4509                	li	a0,2
1c003602:	08d000ef          	jal	ra,1c003e8e <rt_alloc>
1c003606:	872a                	mv	a4,a0
    if (stacks == NULL) return -1;
1c003608:	c10d                	beqz	a0,1c00362a <__rt_init+0xf6>
    if (rt_cluster_call(NULL, cid, cluster_start, NULL, stacks, 0x800, 0x800, rt_nb_active_pe(), event)) return -1;
1c00360a:	6805                	lui	a6,0x1
1c00360c:	80080813          	addi	a6,a6,-2048 # 800 <__rt_stack_size>
1c003610:	1c003637          	lui	a2,0x1c003
1c003614:	c002                	sw	zero,0(sp)
1c003616:	48a1                	li	a7,8
1c003618:	87c2                	mv	a5,a6
1c00361a:	4681                	li	a3,0
1c00361c:	50e60613          	addi	a2,a2,1294 # 1c00350e <cluster_start>
1c003620:	4581                	li	a1,0
1c003622:	4501                	li	a0,0
1c003624:	680010ef          	jal	ra,1c004ca4 <rt_cluster_call>
1c003628:	c525                	beqz	a0,1c003690 <__rt_init+0x15c>
  rt_fatal("There was an error during runtime initialization\n");
1c00362a:	1c007537          	lui	a0,0x1c007
  asm("csrr %0, 0x014" : "=r" (hart_id) : );
1c00362e:	01402673          	csrr	a2,uhartid
1c003632:	85a2                	mv	a1,s0
1c003634:	f4563633          	p.bclr	a2,a2,26,5
1c003638:	64850513          	addi	a0,a0,1608 # 1c007648 <__clz_tab+0x20c>
1c00363c:	47b020ef          	jal	ra,1c0062b6 <printf>
1c003640:	3fb020ef          	jal	ra,1c00623a <abort>
    (**fpp)();
1c003644:	9782                	jalr	a5
1c003646:	b761                	j	1c0035ce <__rt_init+0x9a>
    rt_cluster_mount(1, cid, 0, NULL);
1c003648:	6ec010ef          	jal	ra,1c004d34 <rt_cluster_mount>
    void *stacks = rt_alloc(RT_ALLOC_CL_DATA+cid, 0x800*(rt_nb_active_pe()-1));
1c00364c:	6591                	lui	a1,0x4
1c00364e:	80058593          	addi	a1,a1,-2048 # 3800 <__rt_stack_size+0x3000>
1c003652:	4509                	li	a0,2
1c003654:	03b000ef          	jal	ra,1c003e8e <rt_alloc>
    if (stacks == NULL) return -1;
1c003658:	d969                	beqz	a0,1c00362a <__rt_init+0xf6>
  IP_WRITE(ARCHI_EU_DEMUX_ADDR, EU_DISPATCH_DEMUX_OFFSET + EU_DISPATCH_TEAM_CONFIG, value);
1c00365a:	00204737          	lui	a4,0x204
1c00365e:	0ff00793          	li	a5,255
1c003662:	08f72223          	sw	a5,132(a4) # 204084 <__L2+0x184084>
    eu_dispatch_push((unsigned int)__rt_set_slave_stack | 1);
1c003666:	1c0077b7          	lui	a5,0x1c007
1c00366a:	33478793          	addi	a5,a5,820 # 1c007334 <__rt_set_slave_stack>
1c00366e:	c007c7b3          	p.bset	a5,a5,0,0
  IP_WRITE_PTR(ARCHI_EU_DEMUX_ADDR, EU_DISPATCH_DEMUX_OFFSET + EU_DISPATCH_FIFO_ACCESS, value);
1c003672:	08f72023          	sw	a5,128(a4)
1c003676:	6785                	lui	a5,0x1
1c003678:	80078793          	addi	a5,a5,-2048 # 800 <__rt_stack_size>
1c00367c:	08f72023          	sw	a5,128(a4)
1c003680:	08a72023          	sw	a0,128(a4)
}
1c003684:	4462                	lw	s0,24(sp)
1c003686:	40f2                	lw	ra,28(sp)
1c003688:	44d2                	lw	s1,20(sp)
    cluster_start(NULL);
1c00368a:	4501                	li	a0,0
}
1c00368c:	6105                	addi	sp,sp,32
    cluster_start(NULL);
1c00368e:	b541                	j	1c00350e <cluster_start>
}
1c003690:	40f2                	lw	ra,28(sp)
1c003692:	4462                	lw	s0,24(sp)
1c003694:	44d2                	lw	s1,20(sp)
1c003696:	6105                	addi	sp,sp,32
1c003698:	8082                	ret

1c00369a <__rt_deinit>:
{
1c00369a:	1141                	addi	sp,sp,-16
1c00369c:	c606                	sw	ra,12(sp)
1c00369e:	c422                	sw	s0,8(sp)
}

static inline void cpu_stack_check_disable()
{
  asm volatile ("csrwi 0x7D0, 0" :: );
1c0036a0:	7d005073          	csrwi	0x7d0,0
  __rt_cbsys_exec(RT_CBSYS_STOP);
1c0036a4:	4505                	li	a0,1
1c0036a6:	1c007437          	lui	s0,0x1c007
1c0036aa:	22d9                	jal	1c003870 <__rt_cbsys_exec>
1c0036ac:	43840413          	addi	s0,s0,1080 # 1c007438 <dtor_list+0x4>
  for(fpp = dtor_list + 1;  *fpp != 0;  ++fpp) (**fpp)();
1c0036b0:	0044278b          	p.lw	a5,4(s0!)
1c0036b4:	e789                	bnez	a5,1c0036be <__rt_deinit+0x24>
}
1c0036b6:	40b2                	lw	ra,12(sp)
1c0036b8:	4422                	lw	s0,8(sp)
1c0036ba:	0141                	addi	sp,sp,16
1c0036bc:	8082                	ret
  for(fpp = dtor_list + 1;  *fpp != 0;  ++fpp) (**fpp)();
1c0036be:	9782                	jalr	a5
1c0036c0:	bfc5                	j	1c0036b0 <__rt_deinit+0x16>

1c0036c2 <pi_open_from_conf>:
#endif


void pi_open_from_conf(struct pi_device *device, void *conf)
{
  device->config = conf;
1c0036c2:	c14c                	sw	a1,4(a0)
}
1c0036c4:	8082                	ret

1c0036c6 <rt_irq_set_handler>:
  asm("csrr %0, 0x014" : "=r" (hart_id) : );
1c0036c6:	014027f3          	csrr	a5,uhartid
  return hal_spr_read(0x305) & ~1;
#else
#if defined(APB_SOC_VERSION) && APB_SOC_VERSION == 1
  return ARCHI_L2_ADDR;
#else
  if (rt_is_fc()) {
1c0036ca:	02000713          	li	a4,32
  return (hart_id >> 5) & 0x3f;
1c0036ce:	ca5797b3          	p.extractu	a5,a5,5,5
1c0036d2:	02e79c63          	bne	a5,a4,1c00370a <rt_irq_set_handler+0x44>
#if defined(ARCHI_CORE_HAS_SECURITY) && !defined(ARCHI_CORE_HAS_1_10)
    return __builtin_pulp_spr_read(SR_MTVEC);
1c0036d6:	30502773          	csrr	a4,mtvec
  irq -= 16;
#endif

  unsigned int base = __rt_get_fc_vector_base();

  unsigned int jmpAddr = base + 0x4 * irq;
1c0036da:	050a                	slli	a0,a0,0x2
  unsigned int S = ((unsigned int) ItHandler - (ItBaseAddr+ItIndex*4));
1c0036dc:	8d89                	sub	a1,a1,a0
1c0036de:	8d99                	sub	a1,a1,a4
  R = __BITINSERT(R, __BITEXTRACT(S,  1, 20),  1, 31);
1c0036e0:	c14586b3          	p.extract	a3,a1,0,20
1c0036e4:	06f00793          	li	a5,111
1c0036e8:	c1f6a7b3          	p.insert	a5,a3,0,31
  R = __BITINSERT(R, __BITEXTRACT(S, 10,  1), 10, 21);
1c0036ec:	d21586b3          	p.extract	a3,a1,9,1
1c0036f0:	d356a7b3          	p.insert	a5,a3,9,21
  R = __BITINSERT(R, __BITEXTRACT(S,  1, 11),  1, 20);
1c0036f4:	c0b586b3          	p.extract	a3,a1,0,11
1c0036f8:	c146a7b3          	p.insert	a5,a3,0,20
  R = __BITINSERT(R, __BITEXTRACT(S,  8, 12),  8, 12);
1c0036fc:	cec585b3          	p.extract	a1,a1,7,12
1c003700:	cec5a7b3          	p.insert	a5,a1,7,12

  *(volatile unsigned int *)jmpAddr = __rt_get_itvec(base, irq, (unsigned int)handler);
1c003704:	00f56723          	p.sw	a5,a4(a0)

#if defined(PLP_FC_HAS_ICACHE)
  flush_all_icache_banks_common(plp_icache_fc_base());
#endif

}
1c003708:	8082                	ret
static inline void plp_ctrl_core_bootaddr_set_remote(int cid, int core, unsigned int bootAddr) {
  pulp_write32(ARCHI_CLUSTER_PERIPHERALS_GLOBAL_ADDR(cid) + ARCHI_CLUSTER_CTRL_OFFSET + 0x40 + core*4, bootAddr);
}

static inline unsigned int plp_ctrl_bootaddr_get() {
  return pulp_read32(ARCHI_CLUSTER_CTRL_ADDR + 0x40);
1c00370a:	002007b7          	lui	a5,0x200
1c00370e:	43b8                	lw	a4,64(a5)
1c003710:	b7e9                	j	1c0036da <rt_irq_set_handler+0x14>

1c003712 <illegal_insn_handler_c>:
#include <stdlib.h>

void __attribute__((weak)) illegal_insn_handler_c()
{

}
1c003712:	8082                	ret

1c003714 <__rt_handle_illegal_instr>:


extern RT_FC_GLOBAL_DATA unsigned int __rt_debug_config;
extern RT_FC_GLOBAL_DATA unsigned int __rt_debug_config_trace;

static inline unsigned int rt_debug_config() { return __rt_debug_config; }
1c003714:	1b0017b7          	lui	a5,0x1b001

static inline unsigned int rt_debug_config_trace() { return __rt_debug_config_trace; }

static inline int rt_debug_config_warnings() {
  return ARCHI_REG_FIELD_GET(rt_debug_config(), RT_DEBUG_WARNING_BIT, 1);
1c003718:	bec7a703          	lw	a4,-1044(a5) # 1b000bec <__rt_debug_config>

void __rt_handle_illegal_instr()
{
1c00371c:	1141                	addi	sp,sp,-16
1c00371e:	c422                	sw	s0,8(sp)
1c003720:	c606                	sw	ra,12(sp)
1c003722:	fc173733          	p.bclr	a4,a4,30,1
1c003726:	843e                	mv	s0,a5
#ifdef __riscv__
  unsigned int mepc = hal_mepc_read();
  rt_warning("Reached illegal instruction (PC: 0x%x, opcode: 0x%x\n", mepc, *(int *)mepc);
1c003728:	c315                	beqz	a4,1c00374c <__rt_handle_illegal_instr+0x38>
1c00372a:	341026f3          	csrr	a3,mepc
  asm("csrr %0, 0x014" : "=r" (hart_id) : );
1c00372e:	01402673          	csrr	a2,uhartid
1c003732:	1c007537          	lui	a0,0x1c007
1c003736:	4298                	lw	a4,0(a3)
  return (hart_id >> 5) & 0x3f;
1c003738:	40565593          	srai	a1,a2,0x5
1c00373c:	f265b5b3          	p.bclr	a1,a1,25,6
1c003740:	f4563633          	p.bclr	a2,a2,26,5
1c003744:	6a050513          	addi	a0,a0,1696 # 1c0076a0 <__clz_tab+0x264>
1c003748:	36f020ef          	jal	ra,1c0062b6 <printf>
}

static inline int rt_debug_config_werror() {
  return ARCHI_REG_FIELD_GET(rt_debug_config(), RT_DEBUG_WERROR_BIT, 1);
1c00374c:	bec42783          	lw	a5,-1044(s0)
1c003750:	c01797b3          	p.extractu	a5,a5,0,1
1c003754:	c399                	beqz	a5,1c00375a <__rt_handle_illegal_instr+0x46>
1c003756:	2e5020ef          	jal	ra,1c00623a <abort>
  illegal_insn_handler_c();
#endif
}
1c00375a:	4422                	lw	s0,8(sp)
1c00375c:	40b2                	lw	ra,12(sp)
1c00375e:	0141                	addi	sp,sp,16
  illegal_insn_handler_c();
1c003760:	fb3ff06f          	j	1c003712 <illegal_insn_handler_c>

1c003764 <__rt_irq_init>:
  ARCHI_WRITE(ARCHI_EU_DEMUX_ADDR, EU_CORE_MASK_IRQ_AND, irqMask);
1c003764:	57fd                	li	a5,-1
1c003766:	00204737          	lui	a4,0x204
1c00376a:	00f72823          	sw	a5,16(a4) # 204010 <__L2+0x184010>
  else eu_irq_maskClr(mask);
#elif defined(ITC_VERSION)
  hal_itc_enable_clr(mask);
#elif defined(EU_VERSION)
  eu_irq_maskClr(mask);
  if (hal_is_fc()) eu_evt_maskClr(mask);
1c00376e:	02000713          	li	a4,32
  asm("csrr %0, 0x014" : "=r" (hart_id) : );
1c003772:	014027f3          	csrr	a5,uhartid
  return (hart_id >> 5) & 0x3f;
1c003776:	ca5797b3          	p.extractu	a5,a5,5,5
1c00377a:	00e79763          	bne	a5,a4,1c003788 <__rt_irq_init+0x24>
  ARCHI_WRITE(ARCHI_EU_DEMUX_ADDR, EU_CORE_MASK_AND, evtMask);
1c00377e:	57fd                	li	a5,-1
1c003780:	00204737          	lui	a4,0x204
1c003784:	00f72223          	sw	a5,4(a4) # 204004 <__L2+0x184004>
  asm("csrr %0, 0x014" : "=r" (hart_id) : );
1c003788:	014027f3          	csrr	a5,uhartid
#if defined(ARCHI_CORE_RISCV_ITC)
  hal_spr_write(0x305, base);
#else
#if defined(APB_SOC_VERSION) && APB_SOC_VERSION == 1
#else
  if (rt_is_fc()) {
1c00378c:	02000713          	li	a4,32
  return (hart_id >> 5) & 0x3f;
1c003790:	ca5797b3          	p.extractu	a5,a5,5,5
1c003794:	00e79963          	bne	a5,a4,1c0037a6 <__rt_irq_init+0x42>
#if defined(ARCHI_CORE_HAS_SECURITY)
    __builtin_pulp_spr_write(SR_MTVEC, base);
1c003798:	1c0007b7          	lui	a5,0x1c000
1c00379c:	00078793          	mv	a5,a5
1c0037a0:	30579073          	csrw	mtvec,a5
1c0037a4:	8082                	ret
  pulp_write32(ARCHI_CLUSTER_CTRL_ADDR + 0x40, bootAddr);
1c0037a6:	1c0007b7          	lui	a5,0x1c000
1c0037aa:	00200737          	lui	a4,0x200
1c0037ae:	00078793          	mv	a5,a5
1c0037b2:	c33c                	sw	a5,64(a4)
  rt_irq_mask_clr(-1);

  // As the FC code may not be at the beginning of the L2, set the
  // vector base to get proper interrupt handlers
  __rt_set_fc_vector_base((int)rt_irq_vector_base());
}
1c0037b4:	8082                	ret

1c0037b6 <__rt_fc_cluster_lock_req>:
      rt_free(RT_ALLOC_FC_RET_DATA, (void *)cbsys, sizeof(rt_cbsys_t));     
      return;
    }

    prev = cbsys;
    cbsys = cbsys->next;
1c0037b6:	300476f3          	csrrci	a3,mstatus,8
1c0037ba:	08a54703          	lbu	a4,138(a0)
1c0037be:	411c                	lw	a5,0(a0)
1c0037c0:	c321                	beqz	a4,1c003800 <__rt_fc_cluster_lock_req+0x4a>
1c0037c2:	4398                	lw	a4,0(a5)
1c0037c4:	cf09                	beqz	a4,1c0037de <__rt_fc_cluster_lock_req+0x28>
1c0037c6:	43d8                	lw	a4,4(a5)
1c0037c8:	cb09                	beqz	a4,1c0037da <__rt_fc_cluster_lock_req+0x24>
1c0037ca:	4798                	lw	a4,8(a5)
1c0037cc:	c348                	sw	a0,4(a4)
1c0037ce:	c788                	sw	a0,8(a5)
1c0037d0:	00052223          	sw	zero,4(a0)
1c0037d4:	30069073          	csrw	mstatus,a3
1c0037d8:	8082                	ret
1c0037da:	c3c8                	sw	a0,4(a5)
1c0037dc:	bfcd                	j	1c0037ce <__rt_fc_cluster_lock_req+0x18>
1c0037de:	4705                	li	a4,1
1c0037e0:	08e50423          	sb	a4,136(a0)
1c0037e4:	4705                	li	a4,1
1c0037e6:	c398                	sw	a4,0(a5)
1c0037e8:	08954783          	lbu	a5,137(a0)
1c0037ec:	00201737          	lui	a4,0x201
1c0037f0:	e0470713          	addi	a4,a4,-508 # 200e04 <__L2+0x180e04>
1c0037f4:	04078793          	addi	a5,a5,64 # 1c000040 <__irq_vector_base+0x40>
1c0037f8:	07da                	slli	a5,a5,0x16
1c0037fa:	0007e723          	p.sw	zero,a4(a5)
1c0037fe:	bfd9                	j	1c0037d4 <__rt_fc_cluster_lock_req+0x1e>
1c003800:	43d8                	lw	a4,4(a5)
1c003802:	e719                	bnez	a4,1c003810 <__rt_fc_cluster_lock_req+0x5a>
1c003804:	0007a023          	sw	zero,0(a5)
1c003808:	4785                	li	a5,1
1c00380a:	08f50423          	sb	a5,136(a0)
1c00380e:	bfe9                	j	1c0037e8 <__rt_fc_cluster_lock_req+0x32>
1c003810:	4350                	lw	a2,4(a4)
1c003812:	c3d0                	sw	a2,4(a5)
1c003814:	4785                	li	a5,1
1c003816:	08f70423          	sb	a5,136(a4)
1c00381a:	08974783          	lbu	a5,137(a4)
1c00381e:	00201737          	lui	a4,0x201
1c003822:	e0470713          	addi	a4,a4,-508 # 200e04 <__L2+0x180e04>
1c003826:	04078793          	addi	a5,a5,64
1c00382a:	07da                	slli	a5,a5,0x16
1c00382c:	0007e723          	p.sw	zero,a4(a5)
1c003830:	bfe1                	j	1c003808 <__rt_fc_cluster_lock_req+0x52>

1c003832 <__rt_cbsys_add>:
  }
}

int __rt_cbsys_add(__rt_cbsys_e cbsys_id, int (*cb)(void *), void *cb_arg)
{
1c003832:	1101                	addi	sp,sp,-32
1c003834:	cc22                	sw	s0,24(sp)
1c003836:	ca26                	sw	s1,20(sp)
1c003838:	842a                	mv	s0,a0
1c00383a:	84ae                	mv	s1,a1
  rt_cbsys_t *cbsys = (rt_cbsys_t *)rt_alloc(RT_ALLOC_FC_RET_DATA, sizeof(rt_cbsys_t));
1c00383c:	4501                	li	a0,0
1c00383e:	45b1                	li	a1,12
1c003840:	c632                	sw	a2,12(sp)
{
1c003842:	ce06                	sw	ra,28(sp)
  rt_cbsys_t *cbsys = (rt_cbsys_t *)rt_alloc(RT_ALLOC_FC_RET_DATA, sizeof(rt_cbsys_t));
1c003844:	25a9                	jal	1c003e8e <rt_alloc>
  if (cbsys == NULL) return -1;
1c003846:	4632                	lw	a2,12(sp)
1c003848:	c115                	beqz	a0,1c00386c <__rt_cbsys_add+0x3a>

  cbsys->callback = cb;
  cbsys->arg = cb_arg;
  cbsys->next = cbsys_first[cbsys_id];
1c00384a:	1b0017b7          	lui	a5,0x1b001
1c00384e:	040a                	slli	s0,s0,0x2
1c003850:	bf078793          	addi	a5,a5,-1040 # 1b000bf0 <cbsys_first>
1c003854:	97a2                	add	a5,a5,s0
1c003856:	4398                	lw	a4,0(a5)
  cbsys->callback = cb;
1c003858:	c104                	sw	s1,0(a0)
  cbsys->arg = cb_arg;
1c00385a:	c150                	sw	a2,4(a0)
  cbsys->next = cbsys_first[cbsys_id];
1c00385c:	c518                	sw	a4,8(a0)
  cbsys_first[cbsys_id] = cbsys;
1c00385e:	c388                	sw	a0,0(a5)

  return 0;
1c003860:	4501                	li	a0,0
}
1c003862:	40f2                	lw	ra,28(sp)
1c003864:	4462                	lw	s0,24(sp)
1c003866:	44d2                	lw	s1,20(sp)
1c003868:	6105                	addi	sp,sp,32
1c00386a:	8082                	ret
  if (cbsys == NULL) return -1;
1c00386c:	557d                	li	a0,-1
1c00386e:	bfd5                	j	1c003862 <__rt_cbsys_add+0x30>

1c003870 <__rt_cbsys_exec>:


int __rt_cbsys_exec(__rt_cbsys_e cbsys_id)
{
1c003870:	1141                	addi	sp,sp,-16
1c003872:	c422                	sw	s0,8(sp)
  rt_cbsys_t *cbsys = cbsys_first[cbsys_id];
1c003874:	1b001437          	lui	s0,0x1b001
1c003878:	050a                	slli	a0,a0,0x2
1c00387a:	bf040413          	addi	s0,s0,-1040 # 1b000bf0 <cbsys_first>
1c00387e:	20a47403          	p.lw	s0,a0(s0)
{
1c003882:	c606                	sw	ra,12(sp)
  while (cbsys)
1c003884:	e411                	bnez	s0,1c003890 <__rt_cbsys_exec+0x20>
  {
    if (cbsys->callback(cbsys->arg)) return -1;
    cbsys = cbsys->next;
  }

  return 0;
1c003886:	4501                	li	a0,0
}
1c003888:	40b2                	lw	ra,12(sp)
1c00388a:	4422                	lw	s0,8(sp)
1c00388c:	0141                	addi	sp,sp,16
1c00388e:	8082                	ret
    if (cbsys->callback(cbsys->arg)) return -1;
1c003890:	401c                	lw	a5,0(s0)
1c003892:	4048                	lw	a0,4(s0)
1c003894:	9782                	jalr	a5
1c003896:	e119                	bnez	a0,1c00389c <__rt_cbsys_exec+0x2c>
    cbsys = cbsys->next;
1c003898:	4400                	lw	s0,8(s0)
1c00389a:	b7ed                	j	1c003884 <__rt_cbsys_exec+0x14>
    if (cbsys->callback(cbsys->arg)) return -1;
1c00389c:	557d                	li	a0,-1
1c00389e:	b7ed                	j	1c003888 <__rt_cbsys_exec+0x18>

1c0038a0 <__rt_utils_init>:

RT_FC_BOOT_CODE void __rt_utils_init()
{
  for (int i=0; i<RT_CBSYS_NB; i++)
  {
    cbsys_first[i] = NULL;
1c0038a0:	1b0017b7          	lui	a5,0x1b001
1c0038a4:	bf078793          	addi	a5,a5,-1040 # 1b000bf0 <cbsys_first>
1c0038a8:	0007a023          	sw	zero,0(a5)
1c0038ac:	0007a223          	sw	zero,4(a5)
1c0038b0:	0007a423          	sw	zero,8(a5)
1c0038b4:	0007a623          	sw	zero,12(a5)
1c0038b8:	0007a823          	sw	zero,16(a5)
1c0038bc:	0007aa23          	sw	zero,20(a5)
  }
}
1c0038c0:	8082                	ret

1c0038c2 <__rt_fc_lock>:

void __rt_fc_lock(rt_fc_lock_t *lock)
{
1c0038c2:	1141                	addi	sp,sp,-16
1c0038c4:	c422                	sw	s0,8(sp)
1c0038c6:	842a                	mv	s0,a0
1c0038c8:	c606                	sw	ra,12(sp)
1c0038ca:	c226                	sw	s1,4(sp)
1c0038cc:	c04a                	sw	s2,0(sp)
  return __builtin_pulp_read_then_spr_bit_clr(reg, val);
1c0038ce:	300474f3          	csrrci	s1,mstatus,8
#if defined(ARCHI_HAS_FC)
  int irq = rt_irq_disable();
  while(lock->locked)
1c0038d2:	401c                	lw	a5,0(s0)
1c0038d4:	eb99                	bnez	a5,1c0038ea <__rt_fc_lock+0x28>
  {
    //lock->fc_wait = __rt_thread_current;
    __rt_event_execute(rt_event_internal_sched(), 1);
  }
  lock->locked = 1;
1c0038d6:	4785                	li	a5,1
1c0038d8:	c01c                	sw	a5,0(s0)
  __builtin_pulp_spr_write(reg, val);
1c0038da:	30049073          	csrw	mstatus,s1
  while (rt_tas_lock_32((uint32_t)&lock->lock) == -1)
  {

  }
#endif
}
1c0038de:	40b2                	lw	ra,12(sp)
1c0038e0:	4422                	lw	s0,8(sp)
1c0038e2:	4492                	lw	s1,4(sp)
1c0038e4:	4902                	lw	s2,0(sp)
1c0038e6:	0141                	addi	sp,sp,16
1c0038e8:	8082                	ret
    __rt_event_execute(rt_event_internal_sched(), 1);
1c0038ea:	4585                	li	a1,1
1c0038ec:	01c00513          	li	a0,28
1c0038f0:	2905                	jal	1c003d20 <__rt_event_execute>
1c0038f2:	b7c5                	j	1c0038d2 <__rt_fc_lock+0x10>

1c0038f4 <__rt_fc_unlock>:
  return __builtin_pulp_read_then_spr_bit_clr(reg, val);
1c0038f4:	300476f3          	csrrci	a3,mstatus,8

static int __rt_fc_unlock_to_cluster(rt_fc_lock_t *lock)
{
#if defined(ARCHI_HAS_CLUSTER)
  if (lock->waiting) {
1c0038f8:	415c                	lw	a5,4(a0)
1c0038fa:	e791                	bnez	a5,1c003906 <__rt_fc_unlock+0x12>
{
#if defined(ARCHI_HAS_FC)
  int irq = rt_irq_disable();
  if (!__rt_fc_unlock_to_cluster(lock))
  {
    lock->locked = 0;    
1c0038fc:	00052023          	sw	zero,0(a0)
  __builtin_pulp_spr_write(reg, val);
1c003900:	30069073          	csrw	mstatus,a3
  }
  rt_irq_restore(irq);
#else
  rt_tas_unlock_32((uint32_t)&lock->lock, 0);
#endif
}
1c003904:	8082                	ret
    lock->waiting = req->next;
1c003906:	43d8                	lw	a4,4(a5)
1c003908:	c158                	sw	a4,4(a0)
    req->done = 1;
1c00390a:	4705                	li	a4,1
1c00390c:	08e78423          	sb	a4,136(a5)
    __rt_cluster_notif_req_done(req->cid);
1c003910:	0897c783          	lbu	a5,137(a5)
  pulp_write32(evtAddr, coreSet);
1c003914:	00201737          	lui	a4,0x201
1c003918:	e0470713          	addi	a4,a4,-508 # 200e04 <__L2+0x180e04>
  return ARCHI_CLUSTER_PERIPHERALS_GLOBAL_ADDR(cluster) + ARCHI_EU_OFFSET + EU_SW_EVENTS_AREA_BASE + EU_CORE_TRIGG_SW_EVENT + (event << 2);
1c00391c:	04078793          	addi	a5,a5,64
1c003920:	07da                	slli	a5,a5,0x16
  pulp_write32(evtAddr, coreSet);
1c003922:	0007e723          	p.sw	zero,a4(a5)
1c003926:	bfe9                	j	1c003900 <__rt_fc_unlock+0xc>

1c003928 <__rt_fc_cluster_lock>:
  asm("csrr %0, 0x014" : "=r" (hart_id) : );
1c003928:	014027f3          	csrr	a5,uhartid
  return (hart_id >> 5) & 0x3f;
1c00392c:	8795                	srai	a5,a5,0x5
1c00392e:	f267b7b3          	p.bclr	a5,a5,25,6
#if defined(ARCHI_HAS_FC)

void __rt_fc_cluster_lock(rt_fc_lock_t *lock, rt_fc_lock_req_t *req)
{
  req->lock = lock;
  req->cid = rt_cluster_id();
1c003932:	08f584a3          	sb	a5,137(a1)
  req->done = 0;
  req->req_lock = 1;
1c003936:	4785                	li	a5,1
1c003938:	08f58523          	sb	a5,138(a1)
  event->arg[0] = (uintptr_t)callback;
1c00393c:	1c0037b7          	lui	a5,0x1c003
1c003940:	7b678793          	addi	a5,a5,1974 # 1c0037b6 <__rt_fc_cluster_lock_req>
  req->lock = lock;
1c003944:	c188                	sw	a0,0(a1)
  req->done = 0;
1c003946:	08058423          	sb	zero,136(a1)
  event->implem.pending = 0;
1c00394a:	0205a623          	sw	zero,44(a1)
  event->implem.keep = 0;
1c00394e:	0205a823          	sw	zero,48(a1)
  event->arg[0] = (uintptr_t)callback;
1c003952:	c5dc                	sw	a5,12(a1)
  event->arg[1] = (uintptr_t)arg;
1c003954:	c98c                	sw	a1,16(a1)
  __rt_init_event(&req->event, __rt_cluster_sched_get(), __rt_fc_cluster_lock_req, (void *)req);
1c003956:	05a1                	addi	a1,a1,8

// This function will push an event from cluster to FC and the event callback
// will be executed directly from within the interrupt handler
static inline void __rt_cluster_push_fc_irq_event(rt_event_t *event)
{
  __rt_cluster_push_fc_event((rt_event_t *)(((unsigned int)event) | 0x1));
1c003958:	c005c533          	p.bset	a0,a1,0,0
1c00395c:	2600106f          	j	1c004bbc <__rt_cluster_push_fc_event>

1c003960 <__rt_fc_cluster_unlock>:
  asm("csrr %0, 0x014" : "=r" (hart_id) : );
1c003960:	014027f3          	csrr	a5,uhartid
  return (hart_id >> 5) & 0x3f;
1c003964:	8795                	srai	a5,a5,0x5
1c003966:	f267b7b3          	p.bclr	a5,a5,25,6
}

void __rt_fc_cluster_unlock(rt_fc_lock_t *lock, rt_fc_lock_req_t *req)
{
  req->lock = lock;
  req->cid = rt_cluster_id();
1c00396a:	08f584a3          	sb	a5,137(a1)
  event->arg[0] = (uintptr_t)callback;
1c00396e:	1c0037b7          	lui	a5,0x1c003
1c003972:	7b678793          	addi	a5,a5,1974 # 1c0037b6 <__rt_fc_cluster_lock_req>
  req->lock = lock;
1c003976:	c188                	sw	a0,0(a1)
  req->done = 0;
1c003978:	08058423          	sb	zero,136(a1)
  req->req_lock = 0;
1c00397c:	08058523          	sb	zero,138(a1)
  event->implem.pending = 0;
1c003980:	0205a623          	sw	zero,44(a1)
  event->implem.keep = 0;
1c003984:	0205a823          	sw	zero,48(a1)
  event->arg[0] = (uintptr_t)callback;
1c003988:	c5dc                	sw	a5,12(a1)
  event->arg[1] = (uintptr_t)arg;
1c00398a:	c98c                	sw	a1,16(a1)
  __rt_init_event(&req->event, __rt_cluster_sched_get(), __rt_fc_cluster_lock_req, (void *)req);
1c00398c:	05a1                	addi	a1,a1,8
1c00398e:	c005c533          	p.bset	a0,a1,0,0
1c003992:	22a0106f          	j	1c004bbc <__rt_cluster_push_fc_event>

1c003996 <__rt_event_enqueue>:

    __rt_wait_event_check(event, call_event);
  }

  rt_irq_restore(irq);
}
1c003996:	01c02683          	lw	a3,28(zero) # 1c <_l1_preload_size>
1c00399a:	00052023          	sw	zero,0(a0)
1c00399e:	01c00713          	li	a4,28
1c0039a2:	c689                	beqz	a3,1c0039ac <__rt_event_enqueue+0x16>
1c0039a4:	435c                	lw	a5,4(a4)
1c0039a6:	c388                	sw	a0,0(a5)
1c0039a8:	c348                	sw	a0,4(a4)
1c0039aa:	8082                	ret
1c0039ac:	00a02e23          	sw	a0,28(zero) # 1c <_l1_preload_size>
1c0039b0:	bfe5                	j	1c0039a8 <__rt_event_enqueue+0x12>

1c0039b2 <__rt_bridge_check_bridge_req.part.5>:
1c0039b2:	1c008737          	lui	a4,0x1c008
1c0039b6:	9c070793          	addi	a5,a4,-1600 # 1c0079c0 <__hal_debug_struct>
1c0039ba:	0a47a783          	lw	a5,164(a5)
1c0039be:	9c070713          	addi	a4,a4,-1600
1c0039c2:	c789                	beqz	a5,1c0039cc <__rt_bridge_check_bridge_req.part.5+0x1a>
1c0039c4:	4f94                	lw	a3,24(a5)
1c0039c6:	e681                	bnez	a3,1c0039ce <__rt_bridge_check_bridge_req.part.5+0x1c>
1c0039c8:	0af72623          	sw	a5,172(a4)
1c0039cc:	8082                	ret
1c0039ce:	479c                	lw	a5,8(a5)
1c0039d0:	bfcd                	j	1c0039c2 <__rt_bridge_check_bridge_req.part.5+0x10>

1c0039d2 <__rt_bridge_wait>:
1c0039d2:	014027f3          	csrr	a5,uhartid
1c0039d6:	02000713          	li	a4,32
1c0039da:	ca5797b3          	p.extractu	a5,a5,5,5
1c0039de:	02e79c63          	bne	a5,a4,1c003a16 <__rt_bridge_wait+0x44>
1c0039e2:	1141                	addi	sp,sp,-16
1c0039e4:	c422                	sw	s0,8(sp)
1c0039e6:	1a106437          	lui	s0,0x1a106
1c0039ea:	c606                	sw	ra,12(sp)
1c0039ec:	00442783          	lw	a5,4(s0) # 1a106004 <__l1_end+0xa105fe4>
1c0039f0:	c187b7b3          	p.bclr	a5,a5,0,24
1c0039f4:	00f42223          	sw	a5,4(s0)
1c0039f8:	4585                	li	a1,1
1c0039fa:	03800513          	li	a0,56
1c0039fe:	139000ef          	jal	ra,1c004336 <__rt_periph_wait_event>
1c003a02:	00442783          	lw	a5,4(s0)
1c003a06:	c187c7b3          	p.bset	a5,a5,0,24
1c003a0a:	00f42223          	sw	a5,4(s0)
1c003a0e:	40b2                	lw	ra,12(sp)
1c003a10:	4422                	lw	s0,8(sp)
1c003a12:	0141                	addi	sp,sp,16
1c003a14:	8082                	ret
1c003a16:	8082                	ret

1c003a18 <__rt_bridge_handle_notif>:
1c003a18:	1141                	addi	sp,sp,-16
1c003a1a:	c422                	sw	s0,8(sp)
1c003a1c:	1c008437          	lui	s0,0x1c008
1c003a20:	9c040793          	addi	a5,s0,-1600 # 1c0079c0 <__hal_debug_struct>
1c003a24:	0a47a783          	lw	a5,164(a5)
1c003a28:	c606                	sw	ra,12(sp)
1c003a2a:	c226                	sw	s1,4(sp)
1c003a2c:	c04a                	sw	s2,0(sp)
1c003a2e:	9c040413          	addi	s0,s0,-1600
1c003a32:	c399                	beqz	a5,1c003a38 <__rt_bridge_handle_notif+0x20>
1c003a34:	4bd8                	lw	a4,20(a5)
1c003a36:	e30d                	bnez	a4,1c003a58 <__rt_bridge_handle_notif+0x40>
1c003a38:	0b442783          	lw	a5,180(s0)
1c003a3c:	c789                	beqz	a5,1c003a46 <__rt_bridge_handle_notif+0x2e>
1c003a3e:	43a8                	lw	a0,64(a5)
1c003a40:	0a042a23          	sw	zero,180(s0)
1c003a44:	3f89                	jal	1c003996 <__rt_event_enqueue>
1c003a46:	0ac42783          	lw	a5,172(s0)
1c003a4a:	eb95                	bnez	a5,1c003a7e <__rt_bridge_handle_notif+0x66>
1c003a4c:	4422                	lw	s0,8(sp)
1c003a4e:	40b2                	lw	ra,12(sp)
1c003a50:	4492                	lw	s1,4(sp)
1c003a52:	4902                	lw	s2,0(sp)
1c003a54:	0141                	addi	sp,sp,16
1c003a56:	bfb1                	j	1c0039b2 <__rt_bridge_check_bridge_req.part.5>
1c003a58:	4784                	lw	s1,8(a5)
1c003a5a:	4fd8                	lw	a4,28(a5)
1c003a5c:	0a942223          	sw	s1,164(s0)
1c003a60:	cb01                	beqz	a4,1c003a70 <__rt_bridge_handle_notif+0x58>
1c003a62:	0b042703          	lw	a4,176(s0)
1c003a66:	c798                	sw	a4,8(a5)
1c003a68:	0af42823          	sw	a5,176(s0)
1c003a6c:	87a6                	mv	a5,s1
1c003a6e:	b7d1                	j	1c003a32 <__rt_bridge_handle_notif+0x1a>
1c003a70:	43a8                	lw	a0,64(a5)
1c003a72:	30047973          	csrrci	s2,mstatus,8
1c003a76:	3705                	jal	1c003996 <__rt_event_enqueue>
1c003a78:	30091073          	csrw	mstatus,s2
1c003a7c:	bfc5                	j	1c003a6c <__rt_bridge_handle_notif+0x54>
1c003a7e:	40b2                	lw	ra,12(sp)
1c003a80:	4422                	lw	s0,8(sp)
1c003a82:	4492                	lw	s1,4(sp)
1c003a84:	4902                	lw	s2,0(sp)
1c003a86:	0141                	addi	sp,sp,16
1c003a88:	8082                	ret

1c003a8a <__rt_bridge_check_connection>:
1c003a8a:	1c0086b7          	lui	a3,0x1c008
1c003a8e:	9c068693          	addi	a3,a3,-1600 # 1c0079c0 <__hal_debug_struct>
1c003a92:	469c                	lw	a5,8(a3)
1c003a94:	ef9d                	bnez	a5,1c003ad2 <__rt_bridge_check_connection+0x48>
1c003a96:	1a1047b7          	lui	a5,0x1a104
1c003a9a:	07478793          	addi	a5,a5,116 # 1a104074 <__l1_end+0xa104054>
1c003a9e:	4398                	lw	a4,0(a5)
1c003aa0:	8325                	srli	a4,a4,0x9
1c003aa2:	f8373733          	p.bclr	a4,a4,28,3
1c003aa6:	02773663          	p.bneimm	a4,7,1c003ad2 <__rt_bridge_check_connection+0x48>
1c003aaa:	1141                	addi	sp,sp,-16
1c003aac:	c422                	sw	s0,8(sp)
1c003aae:	c606                	sw	ra,12(sp)
1c003ab0:	4705                	li	a4,1
1c003ab2:	c698                	sw	a4,8(a3)
1c003ab4:	4709                	li	a4,2
1c003ab6:	c398                	sw	a4,0(a5)
1c003ab8:	843e                	mv	s0,a5
1c003aba:	401c                	lw	a5,0(s0)
1c003abc:	83a5                	srli	a5,a5,0x9
1c003abe:	f837b7b3          	p.bclr	a5,a5,28,3
1c003ac2:	0077a663          	p.beqimm	a5,7,1c003ace <__rt_bridge_check_connection+0x44>
1c003ac6:	40b2                	lw	ra,12(sp)
1c003ac8:	4422                	lw	s0,8(sp)
1c003aca:	0141                	addi	sp,sp,16
1c003acc:	8082                	ret
1c003ace:	3711                	jal	1c0039d2 <__rt_bridge_wait>
1c003ad0:	b7ed                	j	1c003aba <__rt_bridge_check_connection+0x30>
1c003ad2:	8082                	ret

1c003ad4 <__rt_bridge_set_available>:
1c003ad4:	1c0087b7          	lui	a5,0x1c008
1c003ad8:	9c078793          	addi	a5,a5,-1600 # 1c0079c0 <__hal_debug_struct>
1c003adc:	4798                	lw	a4,8(a5)
1c003ade:	1a1047b7          	lui	a5,0x1a104
1c003ae2:	07478793          	addi	a5,a5,116 # 1a104074 <__l1_end+0xa104054>
1c003ae6:	e701                	bnez	a4,1c003aee <__rt_bridge_set_available+0x1a>
1c003ae8:	4721                	li	a4,8
1c003aea:	c398                	sw	a4,0(a5)
1c003aec:	8082                	ret
1c003aee:	4709                	li	a4,2
1c003af0:	bfed                	j	1c003aea <__rt_bridge_set_available+0x16>

1c003af2 <__rt_bridge_send_notif>:
1c003af2:	1141                	addi	sp,sp,-16
1c003af4:	c606                	sw	ra,12(sp)
1c003af6:	3f51                	jal	1c003a8a <__rt_bridge_check_connection>
1c003af8:	1c0087b7          	lui	a5,0x1c008
1c003afc:	9c078793          	addi	a5,a5,-1600 # 1c0079c0 <__hal_debug_struct>
1c003b00:	479c                	lw	a5,8(a5)
1c003b02:	c789                	beqz	a5,1c003b0c <__rt_bridge_send_notif+0x1a>
1c003b04:	1a1047b7          	lui	a5,0x1a104
1c003b08:	4719                	li	a4,6
1c003b0a:	dbf8                	sw	a4,116(a5)
1c003b0c:	40b2                	lw	ra,12(sp)
1c003b0e:	0141                	addi	sp,sp,16
1c003b10:	8082                	ret

1c003b12 <__rt_bridge_clear_notif>:
  #endif
  }
}

void __rt_bridge_clear_notif()
{
1c003b12:	1141                	addi	sp,sp,-16
1c003b14:	c606                	sw	ra,12(sp)
  hal_debug_struct_t *debug_struct = hal_debug_struct_get();

  __rt_bridge_check_connection();
1c003b16:	3f95                	jal	1c003a8a <__rt_bridge_check_connection>

  if (debug_struct->bridge.connected)
1c003b18:	1c0087b7          	lui	a5,0x1c008
1c003b1c:	9c078793          	addi	a5,a5,-1600 # 1c0079c0 <__hal_debug_struct>
1c003b20:	479c                	lw	a5,8(a5)
1c003b22:	c781                	beqz	a5,1c003b2a <__rt_bridge_clear_notif+0x18>
  {
    __rt_bridge_set_available();
  }
}
1c003b24:	40b2                	lw	ra,12(sp)
1c003b26:	0141                	addi	sp,sp,16
    __rt_bridge_set_available();
1c003b28:	b775                	j	1c003ad4 <__rt_bridge_set_available>
}
1c003b2a:	40b2                	lw	ra,12(sp)
1c003b2c:	0141                	addi	sp,sp,16
1c003b2e:	8082                	ret

1c003b30 <__rt_bridge_printf_flush>:
{
1c003b30:	1141                	addi	sp,sp,-16
1c003b32:	c422                	sw	s0,8(sp)
1c003b34:	c606                	sw	ra,12(sp)
  if (debug_struct->bridge.connected)
1c003b36:	1c008437          	lui	s0,0x1c008
  __rt_bridge_check_connection();
1c003b3a:	3f81                	jal	1c003a8a <__rt_bridge_check_connection>
  if (debug_struct->bridge.connected)
1c003b3c:	9c040793          	addi	a5,s0,-1600 # 1c0079c0 <__hal_debug_struct>
1c003b40:	479c                	lw	a5,8(a5)
1c003b42:	c385                	beqz	a5,1c003b62 <__rt_bridge_printf_flush+0x32>
1c003b44:	9c040413          	addi	s0,s0,-1600
  return *(volatile uint32_t *)&debug_struct->putc_current == 0;
}

static inline int hal_debug_is_busy(hal_debug_struct_t *debug_struct)
{
  return *(volatile uint32_t *)&debug_struct->pending_putchar;
1c003b48:	485c                	lw	a5,20(s0)
    if (hal_debug_is_busy(hal_debug_struct_get()) || !hal_debug_is_empty(hal_debug_struct_get()))
1c003b4a:	e399                	bnez	a5,1c003b50 <__rt_bridge_printf_flush+0x20>
  return *(volatile uint32_t *)&debug_struct->putc_current == 0;
1c003b4c:	4c1c                	lw	a5,24(s0)
1c003b4e:	cb91                	beqz	a5,1c003b62 <__rt_bridge_printf_flush+0x32>
      __rt_bridge_send_notif();
1c003b50:	374d                	jal	1c003af2 <__rt_bridge_send_notif>
  return *(volatile uint32_t *)&debug_struct->pending_putchar;
1c003b52:	485c                	lw	a5,20(s0)
      while(hal_debug_is_busy(hal_debug_struct_get()))
1c003b54:	e789                	bnez	a5,1c003b5e <__rt_bridge_printf_flush+0x2e>
}
1c003b56:	4422                	lw	s0,8(sp)
1c003b58:	40b2                	lw	ra,12(sp)
1c003b5a:	0141                	addi	sp,sp,16
      __rt_bridge_clear_notif();
1c003b5c:	bf5d                	j	1c003b12 <__rt_bridge_clear_notif>
        __rt_bridge_wait();
1c003b5e:	3d95                	jal	1c0039d2 <__rt_bridge_wait>
1c003b60:	bfcd                	j	1c003b52 <__rt_bridge_printf_flush+0x22>
}
1c003b62:	40b2                	lw	ra,12(sp)
1c003b64:	4422                	lw	s0,8(sp)
1c003b66:	0141                	addi	sp,sp,16
1c003b68:	8082                	ret

1c003b6a <__rt_bridge_req_shutdown>:
{
1c003b6a:	1141                	addi	sp,sp,-16
1c003b6c:	c606                	sw	ra,12(sp)
1c003b6e:	c422                	sw	s0,8(sp)
  __rt_bridge_check_connection();
1c003b70:	3f29                	jal	1c003a8a <__rt_bridge_check_connection>
  if (debug_struct->bridge.connected)
1c003b72:	1c0087b7          	lui	a5,0x1c008
1c003b76:	9c078793          	addi	a5,a5,-1600 # 1c0079c0 <__hal_debug_struct>
1c003b7a:	479c                	lw	a5,8(a5)
1c003b7c:	c7a1                	beqz	a5,1c003bc4 <__rt_bridge_req_shutdown+0x5a>




static inline unsigned int apb_soc_jtag_reg_read() {
  return pulp_read32(ARCHI_APB_SOC_CTRL_ADDR + APB_SOC_JTAGREG_OFFSET);
1c003b7e:	1a104437          	lui	s0,0x1a104
    __rt_bridge_printf_flush();
1c003b82:	377d                	jal	1c003b30 <__rt_bridge_printf_flush>
1c003b84:	07440413          	addi	s0,s0,116 # 1a104074 <__l1_end+0xa104054>
1c003b88:	401c                	lw	a5,0(s0)
    while((apb_soc_jtag_reg_ext(apb_soc_jtag_reg_read()) >> 1) == 7)
1c003b8a:	83a5                	srli	a5,a5,0x9
1c003b8c:	f837b7b3          	p.bclr	a5,a5,28,3
1c003b90:	0277ae63          	p.beqimm	a5,7,1c003bcc <__rt_bridge_req_shutdown+0x62>
}

static inline void apb_soc_jtag_reg_write(unsigned int value) {
  pulp_write32(ARCHI_APB_SOC_CTRL_ADDR + APB_SOC_JTAGREG_OFFSET, value);
1c003b94:	4791                	li	a5,4
1c003b96:	c01c                	sw	a5,0(s0)
  return pulp_read32(ARCHI_APB_SOC_CTRL_ADDR + APB_SOC_JTAGREG_OFFSET);
1c003b98:	1a104437          	lui	s0,0x1a104
1c003b9c:	07440413          	addi	s0,s0,116 # 1a104074 <__l1_end+0xa104054>
1c003ba0:	401c                	lw	a5,0(s0)
    while((apb_soc_jtag_reg_ext(apb_soc_jtag_reg_read()) >> 1) != 7)
1c003ba2:	83a5                	srli	a5,a5,0x9
1c003ba4:	f837b7b3          	p.bclr	a5,a5,28,3
1c003ba8:	0277b463          	p.bneimm	a5,7,1c003bd0 <__rt_bridge_req_shutdown+0x66>
  pulp_write32(ARCHI_APB_SOC_CTRL_ADDR + APB_SOC_JTAGREG_OFFSET, value);
1c003bac:	00042023          	sw	zero,0(s0)
  return pulp_read32(ARCHI_APB_SOC_CTRL_ADDR + APB_SOC_JTAGREG_OFFSET);
1c003bb0:	1a104437          	lui	s0,0x1a104
1c003bb4:	07440413          	addi	s0,s0,116 # 1a104074 <__l1_end+0xa104054>
1c003bb8:	401c                	lw	a5,0(s0)
    while((apb_soc_jtag_reg_ext(apb_soc_jtag_reg_read()) >> 1) == 7)
1c003bba:	83a5                	srli	a5,a5,0x9
1c003bbc:	f837b7b3          	p.bclr	a5,a5,28,3
1c003bc0:	0077aa63          	p.beqimm	a5,7,1c003bd4 <__rt_bridge_req_shutdown+0x6a>
}
1c003bc4:	40b2                	lw	ra,12(sp)
1c003bc6:	4422                	lw	s0,8(sp)
1c003bc8:	0141                	addi	sp,sp,16
1c003bca:	8082                	ret
      __rt_bridge_wait();
1c003bcc:	3519                	jal	1c0039d2 <__rt_bridge_wait>
1c003bce:	bf6d                	j	1c003b88 <__rt_bridge_req_shutdown+0x1e>
      __rt_bridge_wait();
1c003bd0:	3509                	jal	1c0039d2 <__rt_bridge_wait>
1c003bd2:	b7f9                	j	1c003ba0 <__rt_bridge_req_shutdown+0x36>
      __rt_bridge_wait();
1c003bd4:	3bfd                	jal	1c0039d2 <__rt_bridge_wait>
1c003bd6:	b7cd                	j	1c003bb8 <__rt_bridge_req_shutdown+0x4e>

1c003bd8 <__rt_bridge_init>:

RT_FC_BOOT_CODE void __attribute__((constructor)) __rt_bridge_init()
{
  hal_bridge_t *bridge = hal_bridge_get();
  
  bridge->first_req = 0;
1c003bd8:	1c0087b7          	lui	a5,0x1c008
  bridge->notif_req_addr = ARCHI_FC_ITC_ADDR + ITC_STATUS_SET_OFFSET;
  bridge->notif_req_value = 1<<RT_BRIDGE_ENQUEUE_EVENT;
#else
#if defined(EU_VERSION) && EU_VERSION >= 3
#if defined(ARCHI_HAS_FC)
  bridge->notif_req_addr = ARCHI_FC_GLOBAL_ADDR + ARCHI_FC_PERIPHERALS_OFFSET + ARCHI_FC_EU_OFFSET + EU_SW_EVENTS_AREA_BASE + EU_CORE_TRIGG_SW_EVENT + (RT_BRIDGE_ENQUEUE_EVENT << 2);
1c003bdc:	1b201737          	lui	a4,0x1b201
  bridge->first_req = 0;
1c003be0:	9c078793          	addi	a5,a5,-1600 # 1c0079c0 <__hal_debug_struct>
  bridge->notif_req_addr = ARCHI_FC_GLOBAL_ADDR + ARCHI_FC_PERIPHERALS_OFFSET + ARCHI_FC_EU_OFFSET + EU_SW_EVENTS_AREA_BASE + EU_CORE_TRIGG_SW_EVENT + (RT_BRIDGE_ENQUEUE_EVENT << 2);
1c003be4:	e1070713          	addi	a4,a4,-496 # 1b200e10 <__fc_tcdm_end+0x1ff9f0>
1c003be8:	0ae7ac23          	sw	a4,184(a5)
  bridge->notif_req_value = 1;
1c003bec:	4705                	li	a4,1
  bridge->first_req = 0;
1c003bee:	0a07a223          	sw	zero,164(a5)
  bridge->first_bridge_req = 0;
1c003bf2:	0a07a623          	sw	zero,172(a5)
  bridge->target_req = 0;
1c003bf6:	0a07aa23          	sw	zero,180(a5)
  bridge->notif_req_value = 1;
1c003bfa:	0ae7ae23          	sw	a4,188(a5)
#endif
#endif
#endif

  __rt_bridge_eeprom_handle = NULL;
1c003bfe:	00400793          	li	a5,4
1c003c02:	0007a823          	sw	zero,16(a5)
  __rt_bridge_flash_handle = NULL;
1c003c06:	0007a023          	sw	zero,0(a5)
}
1c003c0a:	8082                	ret

1c003c0c <__rt_event_init>:
{
  __rt_event_execute(sched, 0);
  rt_wait_for_interrupt();
  rt_irq_enable();
  rt_irq_disable();
}
1c003c0c:	1141                	addi	sp,sp,-16
1c003c0e:	c422                	sw	s0,8(sp)
1c003c10:	c606                	sw	ra,12(sp)
1c003c12:	842a                	mv	s0,a0
1c003c14:	02052223          	sw	zero,36(a0)
1c003c18:	02052423          	sw	zero,40(a0)
1c003c1c:	45c1                	li	a1,16
1c003c1e:	4501                	li	a0,0
1c003c20:	24bd                	jal	1c003e8e <rt_alloc>
1c003c22:	dc68                	sw	a0,124(s0)
1c003c24:	02042a23          	sw	zero,52(s0)
1c003c28:	00042223          	sw	zero,4(s0)
1c003c2c:	40b2                	lw	ra,12(sp)
1c003c2e:	4422                	lw	s0,8(sp)
1c003c30:	0141                	addi	sp,sp,16
1c003c32:	8082                	ret

1c003c34 <__rt_wait_event_prepare_blocking>:
1c003c34:	01800793          	li	a5,24
1c003c38:	4388                	lw	a0,0(a5)
1c003c3a:	4118                	lw	a4,0(a0)
1c003c3c:	02052423          	sw	zero,40(a0)
1c003c40:	00052223          	sw	zero,4(a0)
1c003c44:	c398                	sw	a4,0(a5)
1c003c46:	4785                	li	a5,1
1c003c48:	d15c                	sw	a5,36(a0)
1c003c4a:	8082                	ret

1c003c4c <rt_event_alloc>:
1c003c4c:	1101                	addi	sp,sp,-32
1c003c4e:	c64e                	sw	s3,12(sp)
1c003c50:	89ae                	mv	s3,a1
1c003c52:	ce06                	sw	ra,28(sp)
1c003c54:	cc22                	sw	s0,24(sp)
1c003c56:	ca26                	sw	s1,20(sp)
1c003c58:	c84a                	sw	s2,16(sp)
1c003c5a:	c452                	sw	s4,8(sp)
1c003c5c:	c256                	sw	s5,4(sp)
1c003c5e:	30047a73          	csrrci	s4,mstatus,8
1c003c62:	014027f3          	csrr	a5,uhartid
1c003c66:	8795                	srai	a5,a5,0x5
1c003c68:	f267b7b3          	p.bclr	a5,a5,25,6
1c003c6c:	02000713          	li	a4,32
1c003c70:	00278513          	addi	a0,a5,2
1c003c74:	00e79363          	bne	a5,a4,1c003c7a <rt_event_alloc+0x2e>
1c003c78:	4505                	li	a0,1
1c003c7a:	00799593          	slli	a1,s3,0x7
1c003c7e:	2c01                	jal	1c003e8e <rt_alloc>
1c003c80:	842a                	mv	s0,a0
1c003c82:	557d                	li	a0,-1
1c003c84:	c819                	beqz	s0,1c003c9a <rt_event_alloc+0x4e>
1c003c86:	01800493          	li	s1,24
1c003c8a:	4901                	li	s2,0
1c003c8c:	00448a93          	addi	s5,s1,4
1c003c90:	01394e63          	blt	s2,s3,1c003cac <rt_event_alloc+0x60>
1c003c94:	300a1073          	csrw	mstatus,s4
1c003c98:	4501                	li	a0,0
1c003c9a:	40f2                	lw	ra,28(sp)
1c003c9c:	4462                	lw	s0,24(sp)
1c003c9e:	44d2                	lw	s1,20(sp)
1c003ca0:	4942                	lw	s2,16(sp)
1c003ca2:	49b2                	lw	s3,12(sp)
1c003ca4:	4a22                	lw	s4,8(sp)
1c003ca6:	4a92                	lw	s5,4(sp)
1c003ca8:	6105                	addi	sp,sp,32
1c003caa:	8082                	ret
1c003cac:	8522                	mv	a0,s0
1c003cae:	85d6                	mv	a1,s5
1c003cb0:	3fb1                	jal	1c003c0c <__rt_event_init>
1c003cb2:	409c                	lw	a5,0(s1)
1c003cb4:	0905                	addi	s2,s2,1
1c003cb6:	c01c                	sw	a5,0(s0)
1c003cb8:	c080                	sw	s0,0(s1)
1c003cba:	08040413          	addi	s0,s0,128
1c003cbe:	bfc9                	j	1c003c90 <rt_event_alloc+0x44>

1c003cc0 <rt_event_get>:
1c003cc0:	30047773          	csrrci	a4,mstatus,8
1c003cc4:	01800793          	li	a5,24
1c003cc8:	4388                	lw	a0,0(a5)
1c003cca:	c509                	beqz	a0,1c003cd4 <rt_event_get+0x14>
1c003ccc:	4114                	lw	a3,0(a0)
1c003cce:	c14c                	sw	a1,4(a0)
1c003cd0:	c510                	sw	a2,8(a0)
1c003cd2:	c394                	sw	a3,0(a5)
1c003cd4:	30071073          	csrw	mstatus,a4
1c003cd8:	8082                	ret

1c003cda <rt_event_get_blocking>:
1c003cda:	30047773          	csrrci	a4,mstatus,8
1c003cde:	01800793          	li	a5,24
1c003ce2:	4388                	lw	a0,0(a5)
1c003ce4:	c909                	beqz	a0,1c003cf6 <rt_event_get_blocking+0x1c>
1c003ce6:	4114                	lw	a3,0(a0)
1c003ce8:	00052223          	sw	zero,4(a0)
1c003cec:	00052423          	sw	zero,8(a0)
1c003cf0:	c394                	sw	a3,0(a5)
1c003cf2:	4785                	li	a5,1
1c003cf4:	d15c                	sw	a5,36(a0)
1c003cf6:	30071073          	csrw	mstatus,a4
1c003cfa:	8082                	ret

1c003cfc <rt_event_push>:
1c003cfc:	30047773          	csrrci	a4,mstatus,8
1c003d00:	01800693          	li	a3,24
1c003d04:	42d4                	lw	a3,4(a3)
1c003d06:	00052023          	sw	zero,0(a0)
1c003d0a:	01800793          	li	a5,24
1c003d0e:	e691                	bnez	a3,1c003d1a <rt_event_push+0x1e>
1c003d10:	c3c8                	sw	a0,4(a5)
1c003d12:	c788                	sw	a0,8(a5)
1c003d14:	30071073          	csrw	mstatus,a4
1c003d18:	8082                	ret
1c003d1a:	4794                	lw	a3,8(a5)
1c003d1c:	c288                	sw	a0,0(a3)
1c003d1e:	bfd5                	j	1c003d12 <rt_event_push+0x16>

1c003d20 <__rt_event_execute>:
1c003d20:	1141                	addi	sp,sp,-16
1c003d22:	c422                	sw	s0,8(sp)
1c003d24:	01800793          	li	a5,24
1c003d28:	43dc                	lw	a5,4(a5)
1c003d2a:	c606                	sw	ra,12(sp)
1c003d2c:	c226                	sw	s1,4(sp)
1c003d2e:	01800413          	li	s0,24
1c003d32:	ef81                	bnez	a5,1c003d4a <__rt_event_execute+0x2a>
1c003d34:	c1b9                	beqz	a1,1c003d7a <__rt_event_execute+0x5a>
1c003d36:	002047b7          	lui	a5,0x204
1c003d3a:	0387e703          	p.elw	a4,56(a5) # 204038 <__L2+0x184038>
1c003d3e:	300467f3          	csrrsi	a5,mstatus,8
1c003d42:	300477f3          	csrrci	a5,mstatus,8
1c003d46:	405c                	lw	a5,4(s0)
1c003d48:	cb8d                	beqz	a5,1c003d7a <__rt_event_execute+0x5a>
1c003d4a:	4485                	li	s1,1
1c003d4c:	4398                	lw	a4,0(a5)
1c003d4e:	5794                	lw	a3,40(a5)
1c003d50:	00978a23          	sb	s1,20(a5)
1c003d54:	c058                	sw	a4,4(s0)
1c003d56:	4788                	lw	a0,8(a5)
1c003d58:	43d8                	lw	a4,4(a5)
1c003d5a:	e691                	bnez	a3,1c003d66 <__rt_event_execute+0x46>
1c003d5c:	53d4                	lw	a3,36(a5)
1c003d5e:	e681                	bnez	a3,1c003d66 <__rt_event_execute+0x46>
1c003d60:	4014                	lw	a3,0(s0)
1c003d62:	c394                	sw	a3,0(a5)
1c003d64:	c01c                	sw	a5,0(s0)
1c003d66:	0207a223          	sw	zero,36(a5)
1c003d6a:	c711                	beqz	a4,1c003d76 <__rt_event_execute+0x56>
1c003d6c:	300467f3          	csrrsi	a5,mstatus,8
1c003d70:	9702                	jalr	a4
1c003d72:	300477f3          	csrrci	a5,mstatus,8
1c003d76:	405c                	lw	a5,4(s0)
1c003d78:	fbf1                	bnez	a5,1c003d4c <__rt_event_execute+0x2c>
1c003d7a:	40b2                	lw	ra,12(sp)
1c003d7c:	4422                	lw	s0,8(sp)
1c003d7e:	4492                	lw	s1,4(sp)
1c003d80:	0141                	addi	sp,sp,16
1c003d82:	8082                	ret

1c003d84 <__rt_wait_event>:
  } while(event);

}

void __rt_wait_event(rt_event_t *event)
{
1c003d84:	1141                	addi	sp,sp,-16
1c003d86:	c422                	sw	s0,8(sp)
1c003d88:	c606                	sw	ra,12(sp)
1c003d8a:	842a                	mv	s0,a0
  while (event->implem.pending || event->implem.saved_pending) {
1c003d8c:	505c                	lw	a5,36(s0)
1c003d8e:	ef81                	bnez	a5,1c003da6 <__rt_wait_event+0x22>
1c003d90:	585c                	lw	a5,52(s0)
1c003d92:	eb91                	bnez	a5,1c003da6 <__rt_wait_event+0x22>
    __rt_event_execute(NULL, 1);
  }

  event->next = __rt_first_free;
1c003d94:	01800793          	li	a5,24
1c003d98:	4398                	lw	a4,0(a5)
  __rt_first_free = event;
}
1c003d9a:	40b2                	lw	ra,12(sp)
  event->next = __rt_first_free;
1c003d9c:	c018                	sw	a4,0(s0)
  __rt_first_free = event;
1c003d9e:	c380                	sw	s0,0(a5)
}
1c003da0:	4422                	lw	s0,8(sp)
1c003da2:	0141                	addi	sp,sp,16
1c003da4:	8082                	ret
    __rt_event_execute(NULL, 1);
1c003da6:	4585                	li	a1,1
1c003da8:	4501                	li	a0,0
1c003daa:	3f9d                	jal	1c003d20 <__rt_event_execute>
1c003dac:	b7c5                	j	1c003d8c <__rt_wait_event+0x8>

1c003dae <rt_event_wait>:

void rt_event_wait(rt_event_t *event)
{
1c003dae:	1141                	addi	sp,sp,-16
1c003db0:	c606                	sw	ra,12(sp)
1c003db2:	c422                	sw	s0,8(sp)
  return __builtin_pulp_read_then_spr_bit_clr(reg, val);
1c003db4:	30047473          	csrrci	s0,mstatus,8
  int irq = rt_irq_disable();
__rt_wait_event(event);
1c003db8:	37f1                	jal	1c003d84 <__rt_wait_event>
  __builtin_pulp_spr_write(reg, val);
1c003dba:	30041073          	csrw	mstatus,s0
  rt_irq_restore(irq);
}
1c003dbe:	40b2                	lw	ra,12(sp)
1c003dc0:	4422                	lw	s0,8(sp)
1c003dc2:	0141                	addi	sp,sp,16
1c003dc4:	8082                	ret

1c003dc6 <__rt_event_sched_init>:

void __rt_event_sched_init()
{
  __rt_first_free = NULL;
1c003dc6:	01800513          	li	a0,24
1c003dca:	00052023          	sw	zero,0(a0)
  sched->first = NULL;
1c003dce:	00052223          	sw	zero,4(a0)
  rt_event_sched_init(&__rt_sched);
  // Push one event ot the runtime scheduler as some runtime services need
  // one event.
  rt_event_alloc(&__rt_sched, 1);
1c003dd2:	4585                	li	a1,1
1c003dd4:	0511                	addi	a0,a0,4
1c003dd6:	bd9d                	j	1c003c4c <rt_event_alloc>

1c003dd8 <pi_task_push_delayed_us>:
}

void pi_task_push_delayed_us(pi_task_t *task, uint32_t delay)
{
  rt_event_push_delayed(task, delay);
1c003dd8:	a439                	j	1c003fe6 <rt_event_push_delayed>

1c003dda <rt_user_alloc_init>:


void rt_free(rt_alloc_e flags, void *_chunk, int size)
{
#if defined(ARCHI_HAS_L1)
  if (flags >= RT_ALLOC_CL_DATA) return rt_user_free(rt_alloc_l1(flags - RT_ALLOC_CL_DATA), _chunk, size);
1c003dda:	00758793          	addi	a5,a1,7
1c003dde:	c407b7b3          	p.bclr	a5,a5,2,0
1c003de2:	40b785b3          	sub	a1,a5,a1
1c003de6:	c11c                	sw	a5,0(a0)
1c003de8:	8e0d                	sub	a2,a2,a1
1c003dea:	00c05763          	blez	a2,1c003df8 <rt_user_alloc_init+0x1e>
1c003dee:	c4063633          	p.bclr	a2,a2,2,0
1c003df2:	c390                	sw	a2,0(a5)
1c003df4:	0007a223          	sw	zero,4(a5)
1c003df8:	8082                	ret

1c003dfa <rt_user_alloc>:
1c003dfa:	411c                	lw	a5,0(a0)
1c003dfc:	059d                	addi	a1,a1,7
1c003dfe:	c405b5b3          	p.bclr	a1,a1,2,0
1c003e02:	4701                	li	a4,0
1c003e04:	cb89                	beqz	a5,1c003e16 <rt_user_alloc+0x1c>
1c003e06:	4394                	lw	a3,0(a5)
1c003e08:	43d0                	lw	a2,4(a5)
1c003e0a:	00b6c863          	blt	a3,a1,1c003e1a <rt_user_alloc+0x20>
1c003e0e:	00b69b63          	bne	a3,a1,1c003e24 <rt_user_alloc+0x2a>
1c003e12:	c719                	beqz	a4,1c003e20 <rt_user_alloc+0x26>
1c003e14:	c350                	sw	a2,4(a4)
1c003e16:	853e                	mv	a0,a5
1c003e18:	8082                	ret
1c003e1a:	873e                	mv	a4,a5
1c003e1c:	87b2                	mv	a5,a2
1c003e1e:	b7dd                	j	1c003e04 <rt_user_alloc+0xa>
1c003e20:	c110                	sw	a2,0(a0)
1c003e22:	bfd5                	j	1c003e16 <rt_user_alloc+0x1c>
1c003e24:	00b78833          	add	a6,a5,a1
1c003e28:	40b685b3          	sub	a1,a3,a1
1c003e2c:	00b82023          	sw	a1,0(a6)
1c003e30:	00c82223          	sw	a2,4(a6)
1c003e34:	c701                	beqz	a4,1c003e3c <rt_user_alloc+0x42>
1c003e36:	01072223          	sw	a6,4(a4)
1c003e3a:	bff1                	j	1c003e16 <rt_user_alloc+0x1c>
1c003e3c:	01052023          	sw	a6,0(a0)
1c003e40:	bfd9                	j	1c003e16 <rt_user_alloc+0x1c>

1c003e42 <rt_user_free>:
1c003e42:	411c                	lw	a5,0(a0)
1c003e44:	061d                	addi	a2,a2,7
1c003e46:	c4063633          	p.bclr	a2,a2,2,0
1c003e4a:	4701                	li	a4,0
1c003e4c:	c399                	beqz	a5,1c003e52 <rt_user_free+0x10>
1c003e4e:	02b7e763          	bltu	a5,a1,1c003e7c <rt_user_free+0x3a>
1c003e52:	00c586b3          	add	a3,a1,a2
1c003e56:	02d79663          	bne	a5,a3,1c003e82 <rt_user_free+0x40>
1c003e5a:	4394                	lw	a3,0(a5)
1c003e5c:	43dc                	lw	a5,4(a5)
1c003e5e:	9636                	add	a2,a2,a3
1c003e60:	c190                	sw	a2,0(a1)
1c003e62:	c1dc                	sw	a5,4(a1)
1c003e64:	c31d                	beqz	a4,1c003e8a <rt_user_free+0x48>
1c003e66:	4314                	lw	a3,0(a4)
1c003e68:	00d707b3          	add	a5,a4,a3
1c003e6c:	00f59d63          	bne	a1,a5,1c003e86 <rt_user_free+0x44>
1c003e70:	419c                	lw	a5,0(a1)
1c003e72:	97b6                	add	a5,a5,a3
1c003e74:	c31c                	sw	a5,0(a4)
1c003e76:	41dc                	lw	a5,4(a1)
1c003e78:	c35c                	sw	a5,4(a4)
1c003e7a:	8082                	ret
1c003e7c:	873e                	mv	a4,a5
1c003e7e:	43dc                	lw	a5,4(a5)
1c003e80:	b7f1                	j	1c003e4c <rt_user_free+0xa>
1c003e82:	c190                	sw	a2,0(a1)
1c003e84:	bff9                	j	1c003e62 <rt_user_free+0x20>
1c003e86:	c34c                	sw	a1,4(a4)
1c003e88:	8082                	ret
1c003e8a:	c10c                	sw	a1,0(a0)
1c003e8c:	8082                	ret

1c003e8e <rt_alloc>:
1c003e8e:	4785                	li	a5,1
1c003e90:	00a7fa63          	bleu	a0,a5,1c003ea4 <rt_alloc+0x16>
1c003e94:	1c0087b7          	lui	a5,0x1c008
1c003e98:	fb47a783          	lw	a5,-76(a5) # 1c007fb4 <__rt_alloc_l1>
1c003e9c:	1579                	addi	a0,a0,-2
1c003e9e:	050a                	slli	a0,a0,0x2
1c003ea0:	953e                	add	a0,a0,a5
1c003ea2:	bfa1                	j	1c003dfa <rt_user_alloc>
1c003ea4:	00153763          	p.bneimm	a0,1,1c003eb2 <rt_alloc+0x24>
1c003ea8:	1c008537          	lui	a0,0x1c008
1c003eac:	fbc50513          	addi	a0,a0,-68 # 1c007fbc <__rt_alloc_fc_tcdm>
1c003eb0:	bfcd                	j	1c003ea2 <rt_alloc+0x14>
1c003eb2:	1c008537          	lui	a0,0x1c008
1c003eb6:	fb850513          	addi	a0,a0,-72 # 1c007fb8 <__rt_alloc_l2>
1c003eba:	b7e5                	j	1c003ea2 <rt_alloc+0x14>

1c003ebc <rt_free>:
1c003ebc:	4785                	li	a5,1
1c003ebe:	00a7fa63          	bleu	a0,a5,1c003ed2 <rt_free+0x16>
1c003ec2:	1c0087b7          	lui	a5,0x1c008
1c003ec6:	fb47a783          	lw	a5,-76(a5) # 1c007fb4 <__rt_alloc_l1>
1c003eca:	1579                	addi	a0,a0,-2
1c003ecc:	050a                	slli	a0,a0,0x2
1c003ece:	953e                	add	a0,a0,a5
1c003ed0:	bf8d                	j	1c003e42 <rt_user_free>
1c003ed2:	c511                	beqz	a0,1c003ede <rt_free+0x22>
1c003ed4:	1c008537          	lui	a0,0x1c008
1c003ed8:	fbc50513          	addi	a0,a0,-68 # 1c007fbc <__rt_alloc_fc_tcdm>
1c003edc:	bfd5                	j	1c003ed0 <rt_free+0x14>
1c003ede:	1c008537          	lui	a0,0x1c008
1c003ee2:	fb850513          	addi	a0,a0,-72 # 1c007fb8 <__rt_alloc_l2>
1c003ee6:	b7ed                	j	1c003ed0 <rt_free+0x14>

1c003ee8 <__rt_alloc_init_l1>:
1c003ee8:	1c0087b7          	lui	a5,0x1c008
1c003eec:	fb47a703          	lw	a4,-76(a5) # 1c007fb4 <__rt_alloc_l1>
1c003ef0:	100007b7          	lui	a5,0x10000
1c003ef4:	01651593          	slli	a1,a0,0x16
1c003ef8:	6641                	lui	a2,0x10
1c003efa:	050a                	slli	a0,a0,0x2
1c003efc:	02078793          	addi	a5,a5,32 # 10000020 <__l1_end>
1c003f00:	fe060613          	addi	a2,a2,-32 # ffe0 <__l1_heap_size>
1c003f04:	95be                	add	a1,a1,a5
1c003f06:	953a                	add	a0,a0,a4
1c003f08:	bdc9                	j	1c003dda <rt_user_alloc_init>

1c003f0a <__rt_alloc_init_l1_for_fc>:
1c003f0a:	100005b7          	lui	a1,0x10000
1c003f0e:	01651793          	slli	a5,a0,0x16
1c003f12:	02058593          	addi	a1,a1,32 # 10000020 <__l1_end>
1c003f16:	00b78733          	add	a4,a5,a1
1c003f1a:	050a                	slli	a0,a0,0x2
1c003f1c:	0791                	addi	a5,a5,4
1c003f1e:	6641                	lui	a2,0x10
1c003f20:	1c0086b7          	lui	a3,0x1c008
1c003f24:	fdc60613          	addi	a2,a2,-36 # ffdc <__rt_stack_size+0xf7dc>
1c003f28:	95be                	add	a1,a1,a5
1c003f2a:	953a                	add	a0,a0,a4
1c003f2c:	fae6aa23          	sw	a4,-76(a3) # 1c007fb4 <__rt_alloc_l1>
1c003f30:	b56d                	j	1c003dda <rt_user_alloc_init>

1c003f32 <__rt_allocs_init>:
1c003f32:	1c0085b7          	lui	a1,0x1c008
1c003f36:	01858793          	addi	a5,a1,24 # 1c008018 <__l2_end>
1c003f3a:	1c080637          	lui	a2,0x1c080
1c003f3e:	1c008537          	lui	a0,0x1c008
1c003f42:	1141                	addi	sp,sp,-16
1c003f44:	8e1d                	sub	a2,a2,a5
1c003f46:	01858593          	addi	a1,a1,24
1c003f4a:	fb850513          	addi	a0,a0,-72 # 1c007fb8 <__rt_alloc_l2>
1c003f4e:	c606                	sw	ra,12(sp)
1c003f50:	c422                	sw	s0,8(sp)
1c003f52:	3561                	jal	1c003dda <rt_user_alloc_init>
1c003f54:	1b0015b7          	lui	a1,0x1b001
1c003f58:	42058793          	addi	a5,a1,1056 # 1b001420 <__fc_tcdm_end>
1c003f5c:	1b004637          	lui	a2,0x1b004
1c003f60:	1c008437          	lui	s0,0x1c008
1c003f64:	8e1d                	sub	a2,a2,a5
1c003f66:	42058593          	addi	a1,a1,1056
1c003f6a:	fbc40513          	addi	a0,s0,-68 # 1c007fbc <__rt_alloc_fc_tcdm>
1c003f6e:	35b5                	jal	1c003dda <rt_user_alloc_init>
1c003f70:	014027f3          	csrr	a5,uhartid
1c003f74:	ca5797b3          	p.extractu	a5,a5,5,5
1c003f78:	e791                	bnez	a5,1c003f84 <__rt_allocs_init+0x52>
1c003f7a:	4422                	lw	s0,8(sp)
1c003f7c:	40b2                	lw	ra,12(sp)
1c003f7e:	4501                	li	a0,0
1c003f80:	0141                	addi	sp,sp,16
1c003f82:	b761                	j	1c003f0a <__rt_alloc_init_l1_for_fc>
1c003f84:	fbc40513          	addi	a0,s0,-68
1c003f88:	4591                	li	a1,4
1c003f8a:	3d85                	jal	1c003dfa <rt_user_alloc>
1c003f8c:	40b2                	lw	ra,12(sp)
1c003f8e:	4422                	lw	s0,8(sp)
1c003f90:	1c0087b7          	lui	a5,0x1c008
1c003f94:	faa7aa23          	sw	a0,-76(a5) # 1c007fb4 <__rt_alloc_l1>
1c003f98:	0141                	addi	sp,sp,16
1c003f9a:	8082                	ret

1c003f9c <pi_l2_malloc>:
    return rt_user_alloc(rt_alloc_l2(), size);
1c003f9c:	85aa                	mv	a1,a0
1c003f9e:	1c008537          	lui	a0,0x1c008
1c003fa2:	fb850513          	addi	a0,a0,-72 # 1c007fb8 <__rt_alloc_l2>
1c003fa6:	bd91                	j	1c003dfa <rt_user_alloc>

1c003fa8 <pi_l2_free>:
    if (base < (unsigned int)rt_l2_priv0_base() + rt_l2_priv0_size()) a = &__rt_alloc_l2[0];
    else if (base < (unsigned int)rt_l2_priv1_base() + rt_l2_priv1_size()) a = &__rt_alloc_l2[1];
    else a = &__rt_alloc_l2[2];
    rt_user_free(a, _chunk, size);
#else
    rt_user_free(rt_alloc_l2(), _chunk, size);
1c003fa8:	862e                	mv	a2,a1
1c003faa:	85aa                	mv	a1,a0
1c003fac:	1c008537          	lui	a0,0x1c008
1c003fb0:	fb850513          	addi	a0,a0,-72 # 1c007fb8 <__rt_alloc_l2>
1c003fb4:	b579                	j	1c003e42 <rt_user_free>

1c003fb6 <__rt_time_poweroff>:
  {
    timer->current_time += timer->period;
    __rt_event_set_pending(timer->event);
    rt_event_push_delayed(timer->event, timer->current_time - rt_time_get_us());
  }
}
1c003fb6:	002007b7          	lui	a5,0x200
1c003fba:	40478793          	addi	a5,a5,1028 # 200404 <__L2+0x180404>
1c003fbe:	0087a783          	lw	a5,8(a5)
1c003fc2:	1c008737          	lui	a4,0x1c008
1c003fc6:	ecf72823          	sw	a5,-304(a4) # 1c007ed0 <timer_count>
1c003fca:	4501                	li	a0,0
1c003fcc:	8082                	ret

1c003fce <__rt_time_poweron>:
1c003fce:	1c0087b7          	lui	a5,0x1c008
1c003fd2:	ed07a703          	lw	a4,-304(a5) # 1c007ed0 <timer_count>
1c003fd6:	002007b7          	lui	a5,0x200
1c003fda:	40478793          	addi	a5,a5,1028 # 200404 <__L2+0x180404>
1c003fde:	00e7a423          	sw	a4,8(a5)
1c003fe2:	4501                	li	a0,0
1c003fe4:	8082                	ret

1c003fe6 <rt_event_push_delayed>:
1c003fe6:	30047373          	csrrci	t1,mstatus,8
1c003fea:	1c008637          	lui	a2,0x1c008
1c003fee:	fc062703          	lw	a4,-64(a2) # 1c007fc0 <first_delayed>
1c003ff2:	002007b7          	lui	a5,0x200
1c003ff6:	40478793          	addi	a5,a5,1028 # 200404 <__L2+0x180404>
1c003ffa:	0087a783          	lw	a5,8(a5)
1c003ffe:	46f9                	li	a3,30
1c004000:	0405e5b3          	p.max	a1,a1,zero
1c004004:	02d5c5b3          	div	a1,a1,a3
1c004008:	800006b7          	lui	a3,0x80000
1c00400c:	fff6c693          	not	a3,a3
1c004010:	00d7f833          	and	a6,a5,a3
1c004014:	0585                	addi	a1,a1,1
1c004016:	97ae                	add	a5,a5,a1
1c004018:	dd1c                	sw	a5,56(a0)
1c00401a:	982e                	add	a6,a6,a1
1c00401c:	4781                	li	a5,0
1c00401e:	c719                	beqz	a4,1c00402c <rt_event_push_delayed+0x46>
1c004020:	03872883          	lw	a7,56(a4)
1c004024:	00d8f8b3          	and	a7,a7,a3
1c004028:	0108e863          	bltu	a7,a6,1c004038 <rt_event_push_delayed+0x52>
1c00402c:	cb89                	beqz	a5,1c00403e <rt_event_push_delayed+0x58>
1c00402e:	cfc8                	sw	a0,28(a5)
1c004030:	cd58                	sw	a4,28(a0)
1c004032:	30031073          	csrw	mstatus,t1
1c004036:	8082                	ret
1c004038:	87ba                	mv	a5,a4
1c00403a:	4f58                	lw	a4,28(a4)
1c00403c:	b7cd                	j	1c00401e <rt_event_push_delayed+0x38>
1c00403e:	002007b7          	lui	a5,0x200
1c004042:	40478793          	addi	a5,a5,1028 # 200404 <__L2+0x180404>
1c004046:	fca62023          	sw	a0,-64(a2)
1c00404a:	cd58                	sw	a4,28(a0)
1c00404c:	0087a703          	lw	a4,8(a5)
1c004050:	95ba                	add	a1,a1,a4
1c004052:	00b7a823          	sw	a1,16(a5)
1c004056:	08500713          	li	a4,133
1c00405a:	00e7a023          	sw	a4,0(a5)
1c00405e:	bfd1                	j	1c004032 <rt_event_push_delayed+0x4c>

1c004060 <rt_time_wait_us>:
{
1c004060:	1101                	addi	sp,sp,-32
1c004062:	85aa                	mv	a1,a0
  rt_event_t *event = rt_event_get_blocking(NULL);
1c004064:	4501                	li	a0,0
{
1c004066:	ce06                	sw	ra,28(sp)
1c004068:	cc22                	sw	s0,24(sp)
  rt_event_t *event = rt_event_get_blocking(NULL);
1c00406a:	c62e                	sw	a1,12(sp)
1c00406c:	c6fff0ef          	jal	ra,1c003cda <rt_event_get_blocking>
  rt_event_push_delayed(event, time_us);
1c004070:	45b2                	lw	a1,12(sp)
  rt_event_t *event = rt_event_get_blocking(NULL);
1c004072:	842a                	mv	s0,a0
  rt_event_push_delayed(event, time_us);
1c004074:	3f8d                	jal	1c003fe6 <rt_event_push_delayed>
  rt_event_wait(event);
1c004076:	8522                	mv	a0,s0
}
1c004078:	4462                	lw	s0,24(sp)
1c00407a:	40f2                	lw	ra,28(sp)
1c00407c:	6105                	addi	sp,sp,32
  rt_event_wait(event);
1c00407e:	d31ff06f          	j	1c003dae <rt_event_wait>

1c004082 <pi_time_wait_us>:
  rt_time_wait_us(time_us);
1c004082:	bff9                	j	1c004060 <rt_time_wait_us>

1c004084 <__rt_time_init>:
  first_delayed = NULL;
1c004084:	1c0087b7          	lui	a5,0x1c008
1c004088:	fc07a023          	sw	zero,-64(a5) # 1c007fc0 <first_delayed>
//

#ifndef LANGUAGE_ASSEMBLY

static inline uint32_t timer_cfg_lo_get(uint32_t base) { return ARCHI_READ(base, TIMER_CFG_LO_OFFSET); }
static inline void timer_cfg_lo_set(uint32_t base, uint32_t value) { ARCHI_WRITE(base, TIMER_CFG_LO_OFFSET, value); }
1c00408c:	002007b7          	lui	a5,0x200
{
1c004090:	1141                	addi	sp,sp,-16
1c004092:	08300713          	li	a4,131
1c004096:	40478793          	addi	a5,a5,1028 # 200404 <__L2+0x180404>
1c00409a:	c606                	sw	ra,12(sp)
1c00409c:	c422                	sw	s0,8(sp)
1c00409e:	00e7a023          	sw	a4,0(a5)
  rt_irq_set_handler(ARCHI_FC_EVT_TIMER0_HI, __rt_timer_handler);
1c0040a2:	1c0045b7          	lui	a1,0x1c004
1c0040a6:	11058593          	addi	a1,a1,272 # 1c004110 <__rt_timer_handler>
1c0040aa:	452d                	li	a0,11
1c0040ac:	e1aff0ef          	jal	ra,1c0036c6 <rt_irq_set_handler>
  ARCHI_WRITE(base, EU_CORE_MASK_IRQ_OR, irqMask);
1c0040b0:	6785                	lui	a5,0x1
1c0040b2:	80078793          	addi	a5,a5,-2048 # 800 <__rt_stack_size>
1c0040b6:	00204737          	lui	a4,0x204
1c0040ba:	00f72a23          	sw	a5,20(a4) # 204014 <__L2+0x184014>
  ARCHI_WRITE(ARCHI_EU_DEMUX_ADDR, EU_CORE_MASK_OR, evtMask);
1c0040be:	00f72423          	sw	a5,8(a4)
  err |= __rt_cbsys_add(RT_CBSYS_POWEROFF, __rt_time_poweroff, NULL);
1c0040c2:	1c0045b7          	lui	a1,0x1c004
1c0040c6:	4601                	li	a2,0
1c0040c8:	fb658593          	addi	a1,a1,-74 # 1c003fb6 <__rt_time_poweroff>
1c0040cc:	4509                	li	a0,2
1c0040ce:	f64ff0ef          	jal	ra,1c003832 <__rt_cbsys_add>
  err |= __rt_cbsys_add(RT_CBSYS_POWERON, __rt_time_poweron, NULL);
1c0040d2:	1c0045b7          	lui	a1,0x1c004
  err |= __rt_cbsys_add(RT_CBSYS_POWEROFF, __rt_time_poweroff, NULL);
1c0040d6:	842a                	mv	s0,a0
  err |= __rt_cbsys_add(RT_CBSYS_POWERON, __rt_time_poweron, NULL);
1c0040d8:	4601                	li	a2,0
1c0040da:	fce58593          	addi	a1,a1,-50 # 1c003fce <__rt_time_poweron>
1c0040de:	450d                	li	a0,3
1c0040e0:	f52ff0ef          	jal	ra,1c003832 <__rt_cbsys_add>
1c0040e4:	8d41                	or	a0,a0,s0
  if (err) rt_fatal("Unable to initialize time driver\n");
1c0040e6:	c10d                	beqz	a0,1c004108 <__rt_time_init+0x84>
  asm("csrr %0, 0x014" : "=r" (hart_id) : );
1c0040e8:	01402673          	csrr	a2,uhartid
1c0040ec:	1c007537          	lui	a0,0x1c007
  return (hart_id >> 5) & 0x3f;
1c0040f0:	40565593          	srai	a1,a2,0x5
1c0040f4:	f265b5b3          	p.bclr	a1,a1,25,6
1c0040f8:	f4563633          	p.bclr	a2,a2,26,5
1c0040fc:	6fc50513          	addi	a0,a0,1788 # 1c0076fc <__clz_tab+0x2c0>
1c004100:	1b6020ef          	jal	ra,1c0062b6 <printf>
1c004104:	136020ef          	jal	ra,1c00623a <abort>
}
1c004108:	40b2                	lw	ra,12(sp)
1c00410a:	4422                	lw	s0,8(sp)
1c00410c:	0141                	addi	sp,sp,16
1c00410e:	8082                	ret

1c004110 <__rt_timer_handler>:
#if defined(__LLVM__)
void __rt_timer_handler()
#else
void __attribute__((interrupt)) __rt_timer_handler()
#endif
{
1c004110:	7179                	addi	sp,sp,-48
1c004112:	d032                	sw	a2,32(sp)
  rt_event_t *event = first_delayed;
1c004114:	1c008637          	lui	a2,0x1c008
{
1c004118:	ca3e                	sw	a5,20(sp)
  rt_event_t *event = first_delayed;
1c00411a:	fc062783          	lw	a5,-64(a2) # 1c007fc0 <first_delayed>
{
1c00411e:	ce36                	sw	a3,28(sp)

static inline uint32_t timer_cfg_hi_get(uint32_t base) { return ARCHI_READ(base, TIMER_CFG_HI_OFFSET); }
static inline void timer_cfg_hi_set(uint32_t base, uint32_t value) { ARCHI_WRITE(base, TIMER_CFG_HI_OFFSET, value); }

static inline uint32_t timer_cnt_lo_get(uint32_t base) { return ARCHI_READ(base, TIMER_CNT_LO_OFFSET); }
1c004120:	002006b7          	lui	a3,0x200
1c004124:	40468693          	addi	a3,a3,1028 # 200404 <__L2+0x180404>
1c004128:	d61a                	sw	t1,44(sp)
1c00412a:	d42a                	sw	a0,40(sp)
1c00412c:	d22e                	sw	a1,36(sp)
1c00412e:	cc3a                	sw	a4,24(sp)
1c004130:	c842                	sw	a6,16(sp)
1c004132:	c646                	sw	a7,12(sp)
1c004134:	c472                	sw	t3,8(sp)
1c004136:	c276                	sw	t4,4(sp)
1c004138:	0086a683          	lw	a3,8(a3)
1c00413c:	01c00593          	li	a1,28
1c004140:	01c02503          	lw	a0,28(zero) # 1c <_l1_preload_size>
1c004144:	41cc                	lw	a1,4(a1)

  uint32_t current_time = timer_count_get(timer_base_fc(0, 1));

  // First dequeue and push to their scheduler all events with the same number of
  // ticks as they were waiting for the same time.
  while (event && (current_time - event->implem.time) < 0x7fffffff)
1c004146:	80000337          	lui	t1,0x80000
1c00414a:	4801                	li	a6,0
1c00414c:	4881                	li	a7,0
1c00414e:	01c00e93          	li	t4,28
1c004152:	ffe34313          	xori	t1,t1,-2
1c004156:	e7ad                	bnez	a5,1c0041c0 <__rt_timer_handler+0xb0>
1c004158:	00088463          	beqz	a7,1c004160 <__rt_timer_handler+0x50>
1c00415c:	00a02e23          	sw	a0,28(zero) # 1c <_l1_preload_size>
1c004160:	00080463          	beqz	a6,1c004168 <__rt_timer_handler+0x58>
1c004164:	00bea223          	sw	a1,4(t4)
static inline void timer_cfg_lo_set(uint32_t base, uint32_t value) { ARCHI_WRITE(base, TIMER_CFG_LO_OFFSET, value); }
1c004168:	002007b7          	lui	a5,0x200
1c00416c:	08100713          	li	a4,129
1c004170:	40478793          	addi	a5,a5,1028 # 200404 <__L2+0x180404>
    event = next;
  }

  // Update the wait list with the next waiting event which has a different number
  // of ticks
  first_delayed = event;
1c004174:	fc062023          	sw	zero,-64(a2)
1c004178:	00e7a023          	sw	a4,0(a5)
  ARCHI_WRITE(ARCHI_EU_DEMUX_ADDR, EU_CORE_BUFFER_CLEAR, evtMask);
1c00417c:	6785                	lui	a5,0x1
1c00417e:	80078793          	addi	a5,a5,-2048 # 800 <__rt_stack_size>
1c004182:	00204737          	lui	a4,0x204
1c004186:	02f72423          	sw	a5,40(a4) # 204028 <__L2+0x184028>
    rt_irq_clr(1 << ARCHI_FC_EVT_TIMER0_HI);
#else
    rt_irq_clr(1 << ARCHI_EVT_TIMER0_HI);
#endif
  }
}
1c00418a:	5332                	lw	t1,44(sp)
1c00418c:	5522                	lw	a0,40(sp)
1c00418e:	5592                	lw	a1,36(sp)
1c004190:	5602                	lw	a2,32(sp)
1c004192:	46f2                	lw	a3,28(sp)
1c004194:	4762                	lw	a4,24(sp)
1c004196:	47d2                	lw	a5,20(sp)
1c004198:	4842                	lw	a6,16(sp)
1c00419a:	48b2                	lw	a7,12(sp)
1c00419c:	4e22                	lw	t3,8(sp)
1c00419e:	4e92                	lw	t4,4(sp)
1c0041a0:	6145                	addi	sp,sp,48
1c0041a2:	30200073          	mret
  event->next = NULL;
1c0041a6:	0007a023          	sw	zero,0(a5)
    rt_event_t *next = event->implem.next;
1c0041aa:	01c7ae03          	lw	t3,28(a5)
  if (sched->first == NULL) {
1c0041ae:	c511                	beqz	a0,1c0041ba <__rt_timer_handler+0xaa>
    sched->last->next = event;
1c0041b0:	c19c                	sw	a5,0(a1)
    event = next;
1c0041b2:	85be                	mv	a1,a5
1c0041b4:	4805                	li	a6,1
1c0041b6:	87f2                	mv	a5,t3
1c0041b8:	bf79                	j	1c004156 <__rt_timer_handler+0x46>
  if (sched->first == NULL) {
1c0041ba:	853e                	mv	a0,a5
1c0041bc:	4885                	li	a7,1
1c0041be:	bfd5                	j	1c0041b2 <__rt_timer_handler+0xa2>
  while (event && (current_time - event->implem.time) < 0x7fffffff)
1c0041c0:	0387ae03          	lw	t3,56(a5)
1c0041c4:	41c68e33          	sub	t3,a3,t3
1c0041c8:	fdc37fe3          	bleu	t3,t1,1c0041a6 <__rt_timer_handler+0x96>
1c0041cc:	00088463          	beqz	a7,1c0041d4 <__rt_timer_handler+0xc4>
1c0041d0:	00a02e23          	sw	a0,28(zero) # 1c <_l1_preload_size>
1c0041d4:	00080463          	beqz	a6,1c0041dc <__rt_timer_handler+0xcc>
1c0041d8:	00bea223          	sw	a1,4(t4)
static inline uint32_t timer_cnt_lo_get(uint32_t base) { return ARCHI_READ(base, TIMER_CNT_LO_OFFSET); }
1c0041dc:	00200737          	lui	a4,0x200
1c0041e0:	40470713          	addi	a4,a4,1028 # 200404 <__L2+0x180404>
  first_delayed = event;
1c0041e4:	fcf62023          	sw	a5,-64(a2)
1c0041e8:	00872603          	lw	a2,8(a4)
      first_delayed->implem.time - current_time
1c0041ec:	5f9c                	lw	a5,56(a5)
1c0041ee:	40d786b3          	sub	a3,a5,a3
1c0041f2:	96b2                	add	a3,a3,a2

static inline uint32_t timer_cnt_hi_get(uint32_t base) { return ARCHI_READ(base, TIMER_CNT_HI_OFFSET); }
static inline void timer_cnt_hi_set(uint32_t base, uint32_t value) { ARCHI_WRITE(base, TIMER_CNT_HI_OFFSET, value); }

static inline uint32_t timer_cmp_lo_get(uint32_t base) { return ARCHI_READ(base, TIMER_CMP_LO_OFFSET); }
static inline void timer_cmp_lo_set(uint32_t base, uint32_t value) { ARCHI_WRITE(base, TIMER_CMP_LO_OFFSET, value); }
1c0041f4:	00d72823          	sw	a3,16(a4)
static inline void timer_cfg_lo_set(uint32_t base, uint32_t value) { ARCHI_WRITE(base, TIMER_CFG_LO_OFFSET, value); }
1c0041f8:	08500793          	li	a5,133
1c0041fc:	00f72023          	sw	a5,0(a4)
}
1c004200:	b769                	j	1c00418a <__rt_timer_handler+0x7a>

1c004202 <rt_periph_copy>:
  }

  __rt_socevents_status[index] &= ~(1<<event);

  rt_irq_restore(irq);
}
1c004202:	7179                	addi	sp,sp,-48
1c004204:	d422                	sw	s0,40(sp)
1c004206:	842a                	mv	s0,a0
1c004208:	d606                	sw	ra,44(sp)
1c00420a:	d226                	sw	s1,36(sp)
1c00420c:	d04a                	sw	s2,32(sp)
1c00420e:	30047973          	csrrci	s2,mstatus,8
1c004212:	4015d493          	srai	s1,a1,0x1
1c004216:	1a102537          	lui	a0,0x1a102
1c00421a:	049e                	slli	s1,s1,0x7
1c00421c:	94aa                	add	s1,s1,a0
1c00421e:	00459513          	slli	a0,a1,0x4
1c004222:	8941                	andi	a0,a0,16
1c004224:	94aa                	add	s1,s1,a0
1c004226:	853e                	mv	a0,a5
1c004228:	ef89                	bnez	a5,1c004242 <rt_periph_copy+0x40>
1c00422a:	ce2e                	sw	a1,28(sp)
1c00422c:	cc32                	sw	a2,24(sp)
1c00422e:	ca36                	sw	a3,20(sp)
1c004230:	c83a                	sw	a4,16(sp)
1c004232:	c63e                	sw	a5,12(sp)
1c004234:	a01ff0ef          	jal	ra,1c003c34 <__rt_wait_event_prepare_blocking>
1c004238:	47b2                	lw	a5,12(sp)
1c00423a:	4742                	lw	a4,16(sp)
1c00423c:	46d2                	lw	a3,20(sp)
1c00423e:	4662                	lw	a2,24(sp)
1c004240:	45f2                	lw	a1,28(sp)
1c004242:	e419                	bnez	s0,1c004250 <rt_periph_copy+0x4e>
1c004244:	03850413          	addi	s0,a0,56 # 1a102038 <__l1_end+0xa102018>
1c004248:	04052223          	sw	zero,68(a0)
1c00424c:	04052a23          	sw	zero,84(a0)
1c004250:	00c42803          	lw	a6,12(s0)
1c004254:	c054                	sw	a3,4(s0)
1c004256:	cc08                	sw	a0,24(s0)
1c004258:	f6483833          	p.bclr	a6,a6,27,4
1c00425c:	4891                	li	a7,4
1c00425e:	c0474733          	p.bset	a4,a4,0,4
1c004262:	0908e163          	bltu	a7,a6,1c0042e4 <rt_periph_copy+0xe2>
1c004266:	03000893          	li	a7,48
1c00426a:	0596                	slli	a1,a1,0x5
1c00426c:	98ae                	add	a7,a7,a1
1c00426e:	0008a303          	lw	t1,0(a7)
1c004272:	00042a23          	sw	zero,20(s0)
1c004276:	03000813          	li	a6,48
1c00427a:	02031b63          	bnez	t1,1c0042b0 <rt_periph_copy+0xae>
1c00427e:	0088a023          	sw	s0,0(a7)
1c004282:	00b808b3          	add	a7,a6,a1
1c004286:	0088a303          	lw	t1,8(a7)
1c00428a:	0088a223          	sw	s0,4(a7)
1c00428e:	02031663          	bnez	t1,1c0042ba <rt_periph_copy+0xb8>
1c004292:	00848893          	addi	a7,s1,8
1c004296:	0008a883          	lw	a7,0(a7)
1c00429a:	0208f893          	andi	a7,a7,32
1c00429e:	00089e63          	bnez	a7,1c0042ba <rt_periph_copy+0xb8>
1c0042a2:	00c4a023          	sw	a2,0(s1)
1c0042a6:	00d4a223          	sw	a3,4(s1)
1c0042aa:	00e4a423          	sw	a4,8(s1)
1c0042ae:	a005                	j	1c0042ce <rt_periph_copy+0xcc>
1c0042b0:	0048a883          	lw	a7,4(a7)
1c0042b4:	0088aa23          	sw	s0,20(a7)
1c0042b8:	b7e9                	j	1c004282 <rt_periph_copy+0x80>
1c0042ba:	00042823          	sw	zero,16(s0)
1c0042be:	c010                	sw	a2,0(s0)
1c0042c0:	c054                	sw	a3,4(s0)
1c0042c2:	c418                	sw	a4,8(s0)
1c0042c4:	00031563          	bnez	t1,1c0042ce <rt_periph_copy+0xcc>
1c0042c8:	982e                	add	a6,a6,a1
1c0042ca:	00882423          	sw	s0,8(a6)
1c0042ce:	e399                	bnez	a5,1c0042d4 <rt_periph_copy+0xd2>
1c0042d0:	ab5ff0ef          	jal	ra,1c003d84 <__rt_wait_event>
1c0042d4:	30091073          	csrw	mstatus,s2
1c0042d8:	50b2                	lw	ra,44(sp)
1c0042da:	5422                	lw	s0,40(sp)
1c0042dc:	5492                	lw	s1,36(sp)
1c0042de:	5902                	lw	s2,32(sp)
1c0042e0:	6145                	addi	sp,sp,48
1c0042e2:	8082                	ret
1c0042e4:	fe6835e3          	p.bneimm	a6,6,1c0042ce <rt_periph_copy+0xcc>
1c0042e8:	03000893          	li	a7,48
1c0042ec:	0596                	slli	a1,a1,0x5
1c0042ee:	98ae                	add	a7,a7,a1
1c0042f0:	0008a303          	lw	t1,0(a7)
1c0042f4:	00042a23          	sw	zero,20(s0)
1c0042f8:	03000813          	li	a6,48
1c0042fc:	00031f63          	bnez	t1,1c00431a <rt_periph_copy+0x118>
1c004300:	0088a023          	sw	s0,0(a7)
1c004304:	95c2                	add	a1,a1,a6
1c004306:	c1c0                	sw	s0,4(a1)
1c004308:	00031e63          	bnez	t1,1c004324 <rt_periph_copy+0x122>
1c00430c:	02442803          	lw	a6,36(s0)
1c004310:	1a1025b7          	lui	a1,0x1a102
1c004314:	1b05a023          	sw	a6,416(a1) # 1a1021a0 <__l1_end+0xa102180>
1c004318:	b769                	j	1c0042a2 <rt_periph_copy+0xa0>
1c00431a:	0048a883          	lw	a7,4(a7)
1c00431e:	0088aa23          	sw	s0,20(a7)
1c004322:	b7cd                	j	1c004304 <rt_periph_copy+0x102>
1c004324:	c418                	sw	a4,8(s0)
1c004326:	4598                	lw	a4,8(a1)
1c004328:	c010                	sw	a2,0(s0)
1c00432a:	c054                	sw	a3,4(s0)
1c00432c:	00042823          	sw	zero,16(s0)
1c004330:	ff59                	bnez	a4,1c0042ce <rt_periph_copy+0xcc>
1c004332:	c580                	sw	s0,8(a1)
1c004334:	bf69                	j	1c0042ce <rt_periph_copy+0xcc>

1c004336 <__rt_periph_wait_event>:
1c004336:	30047673          	csrrci	a2,mstatus,8
1c00433a:	477d                	li	a4,31
1c00433c:	4781                	li	a5,0
1c00433e:	00a75463          	ble	a0,a4,1c004346 <__rt_periph_wait_event+0x10>
1c004342:	1501                	addi	a0,a0,-32
1c004344:	4785                	li	a5,1
1c004346:	00279713          	slli	a4,a5,0x2
1c00434a:	4685                	li	a3,1
1c00434c:	03000793          	li	a5,48
1c004350:	00a696b3          	sll	a3,a3,a0
1c004354:	97ba                	add	a5,a5,a4
1c004356:	00204837          	lui	a6,0x204
1c00435a:	2807a703          	lw	a4,640(a5)
1c00435e:	8f75                	and	a4,a4,a3
1c004360:	cf19                	beqz	a4,1c00437e <__rt_periph_wait_event+0x48>
1c004362:	c999                	beqz	a1,1c004378 <__rt_periph_wait_event+0x42>
1c004364:	2807a683          	lw	a3,640(a5)
1c004368:	4705                	li	a4,1
1c00436a:	00a71533          	sll	a0,a4,a0
1c00436e:	fff54513          	not	a0,a0
1c004372:	8d75                	and	a0,a0,a3
1c004374:	28a7a023          	sw	a0,640(a5)
1c004378:	30061073          	csrw	mstatus,a2
1c00437c:	8082                	ret
1c00437e:	03886703          	p.elw	a4,56(a6) # 204038 <__L2+0x184038>
1c004382:	30046773          	csrrsi	a4,mstatus,8
1c004386:	30047773          	csrrci	a4,mstatus,8
1c00438a:	bfc1                	j	1c00435a <__rt_periph_wait_event+0x24>

1c00438c <__rt_periph_init>:
  for (unsigned int i=0; i<ARCHI_NB_PERIPH*2; i++) {
    rt_periph_channel_t *channel = &periph_channels[i];
    channel->first = NULL;
    channel->firstToEnqueue = NULL;
    channel->base = hal_udma_channel_base(i);
    channel->callback = udma_event_handler;
1c00438c:	1c000537          	lui	a0,0x1c000
1c004390:	03000693          	li	a3,48
  for (unsigned int i=0; i<ARCHI_NB_PERIPH*2; i++) {
1c004394:	4601                	li	a2,0
1c004396:	03000713          	li	a4,48
static inline unsigned int hal_udma_periph_base(int id) {
  return ARCHI_SOC_PERIPHERALS_ADDR + ARCHI_UDMA_OFFSET + UDMA_PERIPH_OFFSET(id);
}

static inline __attribute__((always_inline)) unsigned int hal_udma_channel_base(int id) {
  return ARCHI_SOC_PERIPHERALS_ADDR + ARCHI_UDMA_OFFSET + UDMA_PERIPH_OFFSET(id>>1) + UDMA_CHANNEL_OFFSET(id&1);
1c00439a:	1a1028b7          	lui	a7,0x1a102
    channel->callback = udma_event_handler;
1c00439e:	2b450513          	addi	a0,a0,692 # 1c0002b4 <udma_event_handler>
1c0043a2:	014950fb          	lp.setupi	x1,20,1c0043c6 <__rt_periph_init+0x3a>
1c0043a6:	40165793          	srai	a5,a2,0x1
1c0043aa:	00461813          	slli	a6,a2,0x4
1c0043ae:	079e                	slli	a5,a5,0x7
1c0043b0:	97c6                	add	a5,a5,a7
1c0043b2:	01087813          	andi	a6,a6,16
1c0043b6:	97c2                	add	a5,a5,a6
    channel->first = NULL;
1c0043b8:	0006a023          	sw	zero,0(a3)
    channel->firstToEnqueue = NULL;
1c0043bc:	0006a423          	sw	zero,8(a3)
    channel->base = hal_udma_channel_base(i);
1c0043c0:	c6dc                	sw	a5,12(a3)
    channel->callback = udma_event_handler;
1c0043c2:	cec8                	sw	a0,28(a3)
  for (unsigned int i=0; i<ARCHI_NB_PERIPH*2; i++) {
1c0043c4:	0605                	addi	a2,a2,1
1c0043c6:	02068693          	addi	a3,a3,32
  }
  
  for (int i=0; i<ARCHI_SOC_EVENT_UDMA_NB_EXTRA_EVT; i++)
  {
    __rt_udma_extra_callback[i] = __rt_soc_evt_no_udma;
1c0043ca:	1c0006b7          	lui	a3,0x1c000
1c0043ce:	28870613          	addi	a2,a4,648
1c0043d2:	45e68693          	addi	a3,a3,1118 # 1c00045e <__rt_soc_evt_no_udma>
1c0043d6:	00a250fb          	lp.setupi	x1,10,1c0043de <__rt_periph_init+0x52>
1c0043da:	00d6222b          	p.sw	a3,4(a2!)
1c0043de:	0001                	nop
  }

  __rt_socevents_status[0] = 0;
1c0043e0:	28072023          	sw	zero,640(a4)
  __rt_socevents_status[1] = 0;
1c0043e4:	28072223          	sw	zero,644(a4)
}
1c0043e8:	8082                	ret

1c0043ea <rt_freq_set_and_get>:
void rt_freq_wait_convergence(int fll)
{
}

int rt_freq_set_and_get(rt_freq_domain_e domain, unsigned int freq, unsigned int *out_freq)
{
1c0043ea:	1141                	addi	sp,sp,-16
1c0043ec:	c226                	sw	s1,4(sp)
1c0043ee:	84ae                	mv	s1,a1
1c0043f0:	c606                	sw	ra,12(sp)
1c0043f2:	c422                	sw	s0,8(sp)
1c0043f4:	c04a                	sw	s2,0(sp)
  return __builtin_pulp_read_then_spr_bit_clr(reg, val);
1c0043f6:	30047973          	csrrci	s2,mstatus,8
  __asm__ __volatile__ ("" : : : "memory");
1c0043fa:	1c008437          	lui	s0,0x1c008
  int irq = rt_irq_disable();
  int err = 0;

  rt_trace(RT_TRACE_FREQ, "Setting domain frequency (domain: %d, freq: %d)\n", domain, freq);

  if (domain == RT_FREQ_DOMAIN_CL)
1c0043fe:	00153f63          	p.bneimm	a0,1,1c00441c <rt_freq_set_and_get+0x32>
  {
    // On cluster side, this is straight forward as the fll is not shared
    __rt_fll_set_freq(__RT_FLL_CL, freq);
    __rt_freq_domains[RT_FREQ_DOMAIN_CL] = freq;
1c004402:	fc440413          	addi	s0,s0,-60 # 1c007fc4 <__rt_freq_domains>
    __rt_fll_set_freq(__RT_FLL_CL, freq);
1c004406:	2945                	jal	1c0048b6 <__rt_fll_set_freq>
    __rt_freq_domains[RT_FREQ_DOMAIN_CL] = freq;
1c004408:	c044                	sw	s1,4(s0)
  __builtin_pulp_spr_write(reg, val);
1c00440a:	30091073          	csrw	mstatus,s2
  }

  rt_irq_restore(irq);

  return err;
}
1c00440e:	40b2                	lw	ra,12(sp)
1c004410:	4422                	lw	s0,8(sp)
1c004412:	4492                	lw	s1,4(sp)
1c004414:	4902                	lw	s2,0(sp)
1c004416:	4501                	li	a0,0
1c004418:	0141                	addi	sp,sp,16
1c00441a:	8082                	ret
    __rt_cbsys_exec(RT_CBSYS_PERIPH_SETFREQ_BEFORE);
1c00441c:	4511                	li	a0,4
1c00441e:	c52ff0ef          	jal	ra,1c003870 <__rt_cbsys_exec>
    __rt_fll_set_freq(0, freq);
1c004422:	85a6                	mv	a1,s1
1c004424:	4501                	li	a0,0
1c004426:	2941                	jal	1c0048b6 <__rt_fll_set_freq>
    __rt_cbsys_exec(RT_CBSYS_PERIPH_SETFREQ_AFTER);
1c004428:	4515                	li	a0,5
    __rt_freq_domains[RT_FREQ_DOMAIN_FC] = freq;
1c00442a:	fc942223          	sw	s1,-60(s0)
    __rt_cbsys_exec(RT_CBSYS_PERIPH_SETFREQ_AFTER);
1c00442e:	c42ff0ef          	jal	ra,1c003870 <__rt_cbsys_exec>
1c004432:	bfe1                	j	1c00440a <rt_freq_set_and_get+0x20>

1c004434 <__rt_freq_init>:

void __rt_freq_init()
{
1c004434:	1141                	addi	sp,sp,-16
1c004436:	c422                	sw	s0,8(sp)
1c004438:	c606                	sw	ra,12(sp)

  __rt_flls_constructor();
1c00443a:	29ad                	jal	1c0048b4 <__rt_flls_constructor>
  return __rt_platform;
1c00443c:	1c0087b7          	lui	a5,0x1c008

  // On all chips only FLL 0 is initialized here as it is shared between periph and soc
  // while FLL 1 is used for cluster only and thus is initialized when the cluster is set on.
  if (rt_platform() != ARCHI_PLATFORM_FPGA)
1c004440:	a8c7a783          	lw	a5,-1396(a5) # 1c007a8c <__rt_platform>
1c004444:	1c008437          	lui	s0,0x1c008
1c004448:	0017ae63          	p.beqimm	a5,1,1c004464 <__rt_freq_init+0x30>
  {
    __rt_freq_domains[RT_FREQ_DOMAIN_FC] = __rt_fll_init(__RT_FLL_FC);
1c00444c:	4501                	li	a0,0
1c00444e:	2989                	jal	1c0048a0 <__rt_fll_init>
1c004450:	fca42223          	sw	a0,-60(s0) # 1c007fc4 <__rt_freq_domains>
  }
  else
  {
    __rt_freq_domains[RT_FREQ_DOMAIN_FC] = 40000000;
  }
  __rt_freq_domains[RT_FREQ_DOMAIN_CL] = 0;
1c004454:	fc440413          	addi	s0,s0,-60
1c004458:	00042223          	sw	zero,4(s0)

}
1c00445c:	40b2                	lw	ra,12(sp)
1c00445e:	4422                	lw	s0,8(sp)
1c004460:	0141                	addi	sp,sp,16
1c004462:	8082                	ret
    __rt_freq_domains[RT_FREQ_DOMAIN_FC] = 40000000;
1c004464:	026267b7          	lui	a5,0x2626
1c004468:	a0078793          	addi	a5,a5,-1536 # 2625a00 <__L2+0x25a5a00>
1c00446c:	fcf42223          	sw	a5,-60(s0)
1c004470:	b7d5                	j	1c004454 <__rt_freq_init+0x20>

1c004472 <SetFllMultDivFactors>:
  if (PMURetentionState.Fields.BootType != COLD_BOOT && PMURetentionState.Fields.ClusterWakeUpState) {
          // ChangePowerSystemState(POWER_SYSTEM_STATE(PMURetentionState.Fields.WakeupState, PMURetentionState.Fields.ClusterWakeUpState), 0);
    __rt_pmu_cluster_power_up(NULL, NULL);
    if (PMU_ClusterIsRunning() && PMURetentionState.Fields.FllClusterRetention) InitOneFll(FLL_CLUSTER, 1);
  }
}
1c004472:	100517b3          	p.fl1	a5,a0
1c004476:	4769                	li	a4,26
1c004478:	8f1d                	sub	a4,a4,a5
1c00447a:	4785                	li	a5,1
1c00447c:	04f76733          	p.max	a4,a4,a5
1c004480:	47a1                	li	a5,8
1c004482:	04f74733          	p.min	a4,a4,a5
1c004486:	fff70693          	addi	a3,a4,-1
1c00448a:	00f55793          	srli	a5,a0,0xf
1c00448e:	00d797b3          	sll	a5,a5,a3
1c004492:	c19c                	sw	a5,0(a1)
1c004494:	07be                	slli	a5,a5,0xf
1c004496:	c218                	sw	a4,0(a2)
1c004498:	00d7d533          	srl	a0,a5,a3
1c00449c:	8082                	ret

1c00449e <soc_eu_fcEventMask_setEvent>:
1c00449e:	47fd                	li	a5,31
1c0044a0:	4721                	li	a4,8
1c0044a2:	00f50463          	beq	a0,a5,1c0044aa <soc_eu_fcEventMask_setEvent+0xc>
1c0044a6:	1501                	addi	a0,a0,-32
1c0044a8:	4711                	li	a4,4
1c0044aa:	1a1066b7          	lui	a3,0x1a106
1c0044ae:	20e6f603          	p.lw	a2,a4(a3)
1c0044b2:	4785                	li	a5,1
1c0044b4:	00a79533          	sll	a0,a5,a0
1c0044b8:	fff54513          	not	a0,a0
1c0044bc:	8d71                	and	a0,a0,a2
1c0044be:	00a6e723          	p.sw	a0,a4(a3)
1c0044c2:	8082                	ret

1c0044c4 <__rt_pmu_cluster_power_down>:
1c0044c4:	1c0087b7          	lui	a5,0x1c008
1c0044c8:	a8c7a783          	lw	a5,-1396(a5) # 1c007a8c <__rt_platform>
1c0044cc:	0817a363          	p.beqimm	a5,1,1c004552 <__rt_pmu_cluster_power_down+0x8e>
1c0044d0:	1141                	addi	sp,sp,-16
1c0044d2:	1a1046b7          	lui	a3,0x1a104
1c0044d6:	c606                	sw	ra,12(sp)
1c0044d8:	c422                	sw	s0,8(sp)
1c0044da:	c226                	sw	s1,4(sp)
1c0044dc:	c04a                	sw	s2,0(sp)
1c0044de:	0706a683          	lw	a3,112(a3) # 1a104070 <__l1_end+0xa104050>
1c0044e2:	1c008737          	lui	a4,0x1c008
1c0044e6:	ad070713          	addi	a4,a4,-1328 # 1c007ad0 <SystemStateToSCUFastSeq>
1c0044ea:	00874783          	lbu	a5,8(a4)
1c0044ee:	8436                	mv	s0,a3
1c0044f0:	c0079933          	p.extractu	s2,a5,0,0
1c0044f4:	04193963          	p.bneimm	s2,1,1c004546 <__rt_pmu_cluster_power_down+0x82>
1c0044f8:	01069613          	slli	a2,a3,0x10
1c0044fc:	04064563          	bltz	a2,1c004546 <__rt_pmu_cluster_power_down+0x82>
1c004500:	c007b7b3          	p.bclr	a5,a5,0,0
1c004504:	c0a92433          	p.insert	s0,s2,0,10
1c004508:	1a1044b7          	lui	s1,0x1a104
1c00450c:	00f70423          	sb	a5,8(a4)
1c004510:	0684a823          	sw	s0,112(s1) # 1a104070 <__l1_end+0xa104050>
1c004514:	4585                	li	a1,1
1c004516:	02300513          	li	a0,35
1c00451a:	e1dff0ef          	jal	ra,1c004336 <__rt_periph_wait_event>
1c00451e:	4785                	li	a5,1
1c004520:	00f4a623          	sw	a5,12(s1)
1c004524:	c0302433          	p.insert	s0,zero,0,3
1c004528:	0684a823          	sw	s0,112(s1)
1c00452c:	c0d92433          	p.insert	s0,s2,0,13
1c004530:	0684a823          	sw	s0,112(s1)
1c004534:	4422                	lw	s0,8(sp)
1c004536:	40b2                	lw	ra,12(sp)
1c004538:	4492                	lw	s1,4(sp)
1c00453a:	4902                	lw	s2,0(sp)
1c00453c:	4585                	li	a1,1
1c00453e:	457d                	li	a0,31
1c004540:	0141                	addi	sp,sp,16
1c004542:	df5ff06f          	j	1c004336 <__rt_periph_wait_event>
1c004546:	40b2                	lw	ra,12(sp)
1c004548:	4422                	lw	s0,8(sp)
1c00454a:	4492                	lw	s1,4(sp)
1c00454c:	4902                	lw	s2,0(sp)
1c00454e:	0141                	addi	sp,sp,16
1c004550:	8082                	ret
1c004552:	8082                	ret

1c004554 <SetFllFrequency>:
1c004554:	7179                	addi	sp,sp,-48
1c004556:	d422                	sw	s0,40(sp)
1c004558:	d226                	sw	s1,36(sp)
1c00455a:	1c008437          	lui	s0,0x1c008
1c00455e:	84aa                	mv	s1,a0
1c004560:	d606                	sw	ra,44(sp)
1c004562:	852e                	mv	a0,a1
1c004564:	ad040413          	addi	s0,s0,-1328 # 1c007ad0 <SystemStateToSCUFastSeq>
1c004568:	0014be63          	p.bneimm	s1,1,1c004584 <SetFllFrequency+0x30>
1c00456c:	00844783          	lbu	a5,8(s0)
1c004570:	c0079733          	p.extractu	a4,a5,0,0
1c004574:	08172763          	p.beqimm	a4,1,1c004602 <SetFllFrequency+0xae>
1c004578:	4501                	li	a0,0
1c00457a:	50b2                	lw	ra,44(sp)
1c00457c:	5422                	lw	s0,40(sp)
1c00457e:	5492                	lw	s1,36(sp)
1c004580:	6145                	addi	sp,sp,48
1c004582:	8082                	ret
1c004584:	ce2d                	beqz	a2,1c0045fe <SetFllFrequency+0xaa>
1c004586:	00844783          	lbu	a5,8(s0)
1c00458a:	03200713          	li	a4,50
1c00458e:	c21797b3          	p.extractu	a5,a5,1,1
1c004592:	97a2                	add	a5,a5,s0
1c004594:	00a7c783          	lbu	a5,10(a5)
1c004598:	00e787db          	p.mac	a5,a5,a4,zero
1c00459c:	22678793          	addi	a5,a5,550
1c0045a0:	ecad                	bnez	s1,1c00461a <SetFllFrequency+0xc6>
1c0045a2:	0007a6b7          	lui	a3,0x7a
1c0045a6:	eb237737          	lui	a4,0xeb237
1c0045aa:	12068693          	addi	a3,a3,288 # 7a120 <__L1Cl+0x6a120>
1c0045ae:	c8070713          	addi	a4,a4,-896 # eb236c80 <pulp__FC+0xeb236c81>
1c0045b2:	42d78733          	p.mac	a4,a5,a3
1c0045b6:	fcb761e3          	bltu	a4,a1,1c004578 <SetFllFrequency+0x24>
1c0045ba:	c62a                	sw	a0,12(sp)
1c0045bc:	daeff0ef          	jal	ra,1c003b6a <__rt_bridge_req_shutdown>
1c0045c0:	4532                	lw	a0,12(sp)
1c0045c2:	0870                	addi	a2,sp,28
1c0045c4:	082c                	addi	a1,sp,24
1c0045c6:	eadff0ef          	jal	ra,1c004472 <SetFllMultDivFactors>
1c0045ca:	4762                	lw	a4,24(sp)
1c0045cc:	800007b7          	lui	a5,0x80000
1c0045d0:	1a1006b7          	lui	a3,0x1a100
1c0045d4:	de0727b3          	p.insert	a5,a4,15,0
1c0045d8:	4772                	lw	a4,28(sp)
1c0045da:	c7a727b3          	p.insert	a5,a4,3,26
1c0045de:	00449713          	slli	a4,s1,0x4
1c0045e2:	0711                	addi	a4,a4,4
1c0045e4:	00f6e723          	p.sw	a5,a4(a3)
1c0045e8:	00249793          	slli	a5,s1,0x2
1c0045ec:	943e                	add	s0,s0,a5
1c0045ee:	d008                	sw	a0,32(s0)
1c0045f0:	c808                	sw	a0,16(s0)
1c0045f2:	f4c1                	bnez	s1,1c00457a <SetFllFrequency+0x26>
1c0045f4:	c62a                	sw	a0,12(sp)
1c0045f6:	cdeff0ef          	jal	ra,1c003ad4 <__rt_bridge_set_available>
1c0045fa:	4532                	lw	a0,12(sp)
1c0045fc:	bfbd                	j	1c00457a <SetFllFrequency+0x26>
1c0045fe:	f0f1                	bnez	s1,1c0045c2 <SetFllFrequency+0x6e>
1c004600:	bf6d                	j	1c0045ba <SetFllFrequency+0x66>
1c004602:	d261                	beqz	a2,1c0045c2 <SetFllFrequency+0x6e>
1c004604:	c21797b3          	p.extractu	a5,a5,1,1
1c004608:	97a2                	add	a5,a5,s0
1c00460a:	00a7c783          	lbu	a5,10(a5) # 8000000a <pulp__FC+0x8000000b>
1c00460e:	03200713          	li	a4,50
1c004612:	00e787db          	p.mac	a5,a5,a4,zero
1c004616:	22678793          	addi	a5,a5,550
1c00461a:	0006b6b7          	lui	a3,0x6b
1c00461e:	eaf5a737          	lui	a4,0xeaf5a
1c004622:	6c068693          	addi	a3,a3,1728 # 6b6c0 <__L1Cl+0x5b6c0>
1c004626:	5c070713          	addi	a4,a4,1472 # eaf5a5c0 <pulp__FC+0xeaf5a5c1>
1c00462a:	42d78733          	p.mac	a4,a5,a3
1c00462e:	f8a77ae3          	bleu	a0,a4,1c0045c2 <SetFllFrequency+0x6e>
1c004632:	b799                	j	1c004578 <SetFllFrequency+0x24>

1c004634 <InitOneFll>:
1c004634:	7179                	addi	sp,sp,-48
1c004636:	00451713          	slli	a4,a0,0x4
1c00463a:	ce4e                	sw	s3,28(sp)
1c00463c:	1a1007b7          	lui	a5,0x1a100
1c004640:	00470993          	addi	s3,a4,4
1c004644:	d606                	sw	ra,44(sp)
1c004646:	d422                	sw	s0,40(sp)
1c004648:	d226                	sw	s1,36(sp)
1c00464a:	d04a                	sw	s2,32(sp)
1c00464c:	2137f783          	p.lw	a5,s3(a5)
1c004650:	1c008437          	lui	s0,0x1c008
1c004654:	ad040413          	addi	s0,s0,-1328 # 1c007ad0 <SystemStateToSCUFastSeq>
1c004658:	00251913          	slli	s2,a0,0x2
1c00465c:	c585                	beqz	a1,1c004684 <InitOneFll+0x50>
1c00465e:	c7a79733          	p.extractu	a4,a5,3,26
1c004662:	1007d7b3          	p.exthz	a5,a5
1c004666:	07be                	slli	a5,a5,0xf
1c004668:	c701                	beqz	a4,1c004670 <InitOneFll+0x3c>
1c00466a:	177d                	addi	a4,a4,-1
1c00466c:	00e7d7b3          	srl	a5,a5,a4
1c004670:	944a                	add	s0,s0,s2
1c004672:	d01c                	sw	a5,32(s0)
1c004674:	c81c                	sw	a5,16(s0)
1c004676:	50b2                	lw	ra,44(sp)
1c004678:	5422                	lw	s0,40(sp)
1c00467a:	5492                	lw	s1,36(sp)
1c00467c:	5902                	lw	s2,32(sp)
1c00467e:	49f2                	lw	s3,28(sp)
1c004680:	6145                	addi	sp,sp,48
1c004682:	8082                	ret
1c004684:	0007d363          	bgez	a5,1c00468a <InitOneFll+0x56>
1c004688:	c105                	beqz	a0,1c0046a8 <InitOneFll+0x74>
1c00468a:	810047b7          	lui	a5,0x81004
1c00468e:	1a1006b7          	lui	a3,0x1a100
1c004692:	00870613          	addi	a2,a4,8
1c004696:	10778793          	addi	a5,a5,263 # 81004107 <pulp__FC+0x81004108>
1c00469a:	00f6e623          	p.sw	a5,a2(a3)
1c00469e:	014c04b7          	lui	s1,0x14c0
1c0046a2:	0731                	addi	a4,a4,12
1c0046a4:	0096e723          	p.sw	s1,a4(a3)
1c0046a8:	02faf537          	lui	a0,0x2faf
1c0046ac:	0070                	addi	a2,sp,12
1c0046ae:	002c                	addi	a1,sp,8
1c0046b0:	08050513          	addi	a0,a0,128 # 2faf080 <__L2+0x2f2f080>
1c0046b4:	dbfff0ef          	jal	ra,1c004472 <SetFllMultDivFactors>
1c0046b8:	47a2                	lw	a5,8(sp)
1c0046ba:	c00004b7          	lui	s1,0xc0000
1c0046be:	de07a4b3          	p.insert	s1,a5,15,0
1c0046c2:	47b2                	lw	a5,12(sp)
1c0046c4:	c7a7a4b3          	p.insert	s1,a5,3,26
1c0046c8:	1a1007b7          	lui	a5,0x1a100
1c0046cc:	0097e9a3          	p.sw	s1,s3(a5)
1c0046d0:	944a                	add	s0,s0,s2
1c0046d2:	d008                	sw	a0,32(s0)
1c0046d4:	c808                	sw	a0,16(s0)
1c0046d6:	b745                	j	1c004676 <InitOneFll+0x42>

1c0046d8 <__rt_pmu_cluster_power_up>:
1c0046d8:	1141                	addi	sp,sp,-16
1c0046da:	c226                	sw	s1,4(sp)
1c0046dc:	1c0084b7          	lui	s1,0x1c008
1c0046e0:	c606                	sw	ra,12(sp)
1c0046e2:	c422                	sw	s0,8(sp)
1c0046e4:	c04a                	sw	s2,0(sp)
1c0046e6:	ad048793          	addi	a5,s1,-1328 # 1c007ad0 <SystemStateToSCUFastSeq>
1c0046ea:	0087c783          	lbu	a5,8(a5) # 1a100008 <__l1_end+0xa0fffe8>
1c0046ee:	4501                	li	a0,0
1c0046f0:	c00797b3          	p.extractu	a5,a5,0,0
1c0046f4:	e785                	bnez	a5,1c00471c <__rt_pmu_cluster_power_up+0x44>
1c0046f6:	1c0087b7          	lui	a5,0x1c008
1c0046fa:	a8c7a783          	lw	a5,-1396(a5) # 1c007a8c <__rt_platform>
1c0046fe:	ad048493          	addi	s1,s1,-1328
1c004702:	0217b363          	p.bneimm	a5,1,1c004728 <__rt_pmu_cluster_power_up+0x50>
1c004706:	1a1047b7          	lui	a5,0x1a104
1c00470a:	0007a623          	sw	zero,12(a5) # 1a10400c <__l1_end+0xa103fec>
1c00470e:	0084c783          	lbu	a5,8(s1)
1c004712:	4505                	li	a0,1
1c004714:	c007c7b3          	p.bset	a5,a5,0,0
1c004718:	00f48423          	sb	a5,8(s1)
1c00471c:	40b2                	lw	ra,12(sp)
1c00471e:	4422                	lw	s0,8(sp)
1c004720:	4492                	lw	s1,4(sp)
1c004722:	4902                	lw	s2,0(sp)
1c004724:	0141                	addi	sp,sp,16
1c004726:	8082                	ret
1c004728:	1a104437          	lui	s0,0x1a104
1c00472c:	07042403          	lw	s0,112(s0) # 1a104070 <__l1_end+0xa104050>
1c004730:	c0a417b3          	p.extractu	a5,s0,0,10
1c004734:	ef89                	bnez	a5,1c00474e <__rt_pmu_cluster_power_up+0x76>
1c004736:	4785                	li	a5,1
1c004738:	c0a7a433          	p.insert	s0,a5,0,10
1c00473c:	1a1047b7          	lui	a5,0x1a104
1c004740:	0687a823          	sw	s0,112(a5) # 1a104070 <__l1_end+0xa104050>
1c004744:	4585                	li	a1,1
1c004746:	02300513          	li	a0,35
1c00474a:	bedff0ef          	jal	ra,1c004336 <__rt_periph_wait_event>
1c00474e:	4785                	li	a5,1
1c004750:	c037a433          	p.insert	s0,a5,0,3
1c004754:	1a104937          	lui	s2,0x1a104
1c004758:	06892823          	sw	s0,112(s2) # 1a104070 <__l1_end+0xa104050>
1c00475c:	4585                	li	a1,1
1c00475e:	457d                	li	a0,31
1c004760:	bd7ff0ef          	jal	ra,1c004336 <__rt_periph_wait_event>
1c004764:	00092623          	sw	zero,12(s2)
1c004768:	c0d02433          	p.insert	s0,zero,0,13
1c00476c:	06892823          	sw	s0,112(s2)
1c004770:	c0a02433          	p.insert	s0,zero,0,10
1c004774:	06892823          	sw	s0,112(s2)
1c004778:	4585                	li	a1,1
1c00477a:	02300513          	li	a0,35
1c00477e:	bb9ff0ef          	jal	ra,1c004336 <__rt_periph_wait_event>
1c004782:	01c4c783          	lbu	a5,28(s1)
1c004786:	0207f793          	andi	a5,a5,32
1c00478a:	e789                	bnez	a5,1c004794 <__rt_pmu_cluster_power_up+0xbc>
1c00478c:	4581                	li	a1,0
1c00478e:	4505                	li	a0,1
1c004790:	ea5ff0ef          	jal	ra,1c004634 <InitOneFll>
1c004794:	c0e44433          	p.bset	s0,s0,0,14
1c004798:	1a1047b7          	lui	a5,0x1a104
1c00479c:	0687a823          	sw	s0,112(a5) # 1a104070 <__l1_end+0xa104050>
1c0047a0:	b7bd                	j	1c00470e <__rt_pmu_cluster_power_up+0x36>

1c0047a2 <InitFlls>:

  }
}

void  __attribute__ ((noinline)) InitFlls()
{
1c0047a2:	1141                	addi	sp,sp,-16
1c0047a4:	c422                	sw	s0,8(sp)
  __rt_bridge_req_shutdown();

  InitOneFll(FLL_SOC, PMURetentionState.Fields.FllSoCRetention);
1c0047a6:	1c008437          	lui	s0,0x1c008
{
1c0047aa:	c606                	sw	ra,12(sp)
  InitOneFll(FLL_SOC, PMURetentionState.Fields.FllSoCRetention);
1c0047ac:	ad040413          	addi	s0,s0,-1328 # 1c007ad0 <SystemStateToSCUFastSeq>
  __rt_bridge_req_shutdown();
1c0047b0:	bbaff0ef          	jal	ra,1c003b6a <__rt_bridge_req_shutdown>
  InitOneFll(FLL_SOC, PMURetentionState.Fields.FllSoCRetention);
1c0047b4:	01c44583          	lbu	a1,28(s0)
1c0047b8:	4501                	li	a0,0
1c0047ba:	c04595b3          	p.extractu	a1,a1,0,4
1c0047be:	e77ff0ef          	jal	ra,1c004634 <InitOneFll>
#define PMU_ERROR_CLUSTER_STATE_CHANGE_FAILED   (0x1<<4)

extern void 		   InitPMUDriver();

static inline int 	   PMU_ClusterIsDown()    { return (CLUSTER_STATE(PMUState.State)==CLUSTER_OFF);}
static inline int 	   PMU_ClusterIsRunning() { return (CLUSTER_STATE(PMUState.State)==CLUSTER_ON);}
1c0047c2:	00844783          	lbu	a5,8(s0)
1c0047c6:	c00797b3          	p.extractu	a5,a5,0,0
  if (PMU_ClusterIsRunning()) InitOneFll(FLL_CLUSTER, PMURetentionState.Fields.FllClusterRetention);
1c0047ca:	0017b963          	p.bneimm	a5,1,1c0047dc <InitFlls+0x3a>
1c0047ce:	01c44583          	lbu	a1,28(s0)
1c0047d2:	4505                	li	a0,1
1c0047d4:	c05595b3          	p.extractu	a1,a1,0,5
1c0047d8:	e5dff0ef          	jal	ra,1c004634 <InitOneFll>

#ifdef __RT_USE_BRIDGE
  __rt_bridge_set_available();
#endif
}
1c0047dc:	4422                	lw	s0,8(sp)
1c0047de:	40b2                	lw	ra,12(sp)
1c0047e0:	0141                	addi	sp,sp,16
  __rt_bridge_set_available();
1c0047e2:	af2ff06f          	j	1c003ad4 <__rt_bridge_set_available>

1c0047e6 <__rt_pmu_init>:
1c0047e6:	1c0087b7          	lui	a5,0x1c008
  if (rt_platform() == ARCHI_PLATFORM_FPGA) {
1c0047ea:	a8c7a783          	lw	a5,-1396(a5) # 1c007a8c <__rt_platform>
1c0047ee:	0a17a863          	p.beqimm	a5,1,1c00489e <__rt_pmu_init+0xb8>
{
1c0047f2:	1141                	addi	sp,sp,-16
  __rt_wakeup_use_fast = 0;
1c0047f4:	1c0087b7          	lui	a5,0x1c008
  return IP_READ(ARCHI_APB_SOC_CTRL_ADDR, PMU_DCDC_CONFIG_OFFSET);
1c0047f8:	1a104637          	lui	a2,0x1a104
{
1c0047fc:	c606                	sw	ra,12(sp)
  __rt_wakeup_use_fast = 0;
1c0047fe:	fc07a623          	sw	zero,-52(a5) # 1c007fcc <__rt_wakeup_use_fast>
1c004802:	10062703          	lw	a4,256(a2) # 1a104100 <__l1_end+0xa1040e0>
  return IP_READ(ARCHI_APB_SOC_CTRL_ADDR, PMU_RETENTION_CONFIG_OFFSET);
1c004806:	10462683          	lw	a3,260(a2)
  PMURetentionState.Raw = GetRetentiveState();
1c00480a:	1c0087b7          	lui	a5,0x1c008
1c00480e:	ad078793          	addi	a5,a5,-1328 # 1c007ad0 <SystemStateToSCUFastSeq>
1c004812:	cfd4                	sw	a3,28(a5)
  PMUState.State = RetPMUStateToPMUState[PMURetentionState.Fields.WakeupState];
1c004814:	c2e696b3          	p.extractu	a3,a3,1,14
1c004818:	96be                	add	a3,a3,a5
1c00481a:	0286c683          	lbu	a3,40(a3) # 1a100028 <__l1_end+0xa100008>
  PMUState.DCDC_Settings[REGU_OFF] = 0;
1c00481e:	000786a3          	sb	zero,13(a5)
  PMUState.State = RetPMUStateToPMUState[PMURetentionState.Fields.WakeupState];
1c004822:	00d78423          	sb	a3,8(a5)
  PMUState.DCDC_Settings[REGU_NV]  = __builtin_bitextractu(DCDCValue, DCDC_RANGE, DCDC_Nominal*8);
1c004826:	c80716b3          	p.extractu	a3,a4,4,0
1c00482a:	00d78523          	sb	a3,10(a5)
  PMUState.DCDC_Settings[REGU_LV]  = __builtin_bitextractu(DCDCValue, DCDC_RANGE, DCDC_Low*8);
1c00482e:	c90716b3          	p.extractu	a3,a4,4,16
  PMUState.DCDC_Settings[REGU_RET] = __builtin_bitextractu(DCDCValue, DCDC_RANGE, DCDC_Retentive*8);
1c004832:	c9871733          	p.extractu	a4,a4,4,24
  PMUState.DCDC_Settings[REGU_LV]  = __builtin_bitextractu(DCDCValue, DCDC_RANGE, DCDC_Low*8);
1c004836:	00d785a3          	sb	a3,11(a5)
  PMUState.DCDC_Settings[REGU_RET] = __builtin_bitextractu(DCDCValue, DCDC_RANGE, DCDC_Retentive*8);
1c00483a:	00e78623          	sb	a4,12(a5)
  Bypass.Raw = GetPMUBypass();
1c00483e:	07062783          	lw	a5,112(a2)
  Bypass.Fields.Bypass = 1;
1c004842:	4705                	li	a4,1
1c004844:	c00727b3          	p.insert	a5,a4,0,0
  Bypass.Fields.BypassClock = 1;
1c004848:	c09727b3          	p.insert	a5,a4,0,9
  IP_WRITE(ARCHI_APB_SOC_CTRL_ADDR, APB_SOC_CL_BYPASS_OFFSET, Value);
1c00484c:	06f62823          	sw	a5,112(a2)
  InitFlls();
1c004850:	3f89                	jal	1c0047a2 <InitFlls>
  soc_eu_fcEventMask_setEvent(ARCHI_SOC_EVENT_CLUSTER_ON_OFF);
1c004852:	457d                	li	a0,31
1c004854:	c4bff0ef          	jal	ra,1c00449e <soc_eu_fcEventMask_setEvent>
  soc_eu_fcEventMask_setEvent(ARCHI_SOC_EVENT_MSP);
1c004858:	02000513          	li	a0,32
1c00485c:	c43ff0ef          	jal	ra,1c00449e <soc_eu_fcEventMask_setEvent>
  soc_eu_fcEventMask_setEvent(ARCHI_SOC_EVENT_ICU_MODE_CHANGED);
1c004860:	02100513          	li	a0,33
1c004864:	c3bff0ef          	jal	ra,1c00449e <soc_eu_fcEventMask_setEvent>
  soc_eu_fcEventMask_setEvent(ARCHI_SOC_EVENT_ICU_OK);
1c004868:	02200513          	li	a0,34
1c00486c:	c33ff0ef          	jal	ra,1c00449e <soc_eu_fcEventMask_setEvent>
  soc_eu_fcEventMask_setEvent(ARCHI_SOC_EVENT_ICU_DELAYED);
1c004870:	02300513          	li	a0,35
1c004874:	c2bff0ef          	jal	ra,1c00449e <soc_eu_fcEventMask_setEvent>
  soc_eu_fcEventMask_setEvent(ARCHI_SOC_EVENT_PICL_OK);
1c004878:	02400513          	li	a0,36
1c00487c:	c23ff0ef          	jal	ra,1c00449e <soc_eu_fcEventMask_setEvent>
  soc_eu_fcEventMask_setEvent(ARCHI_SOC_EVENT_SCU_OK);
1c004880:	02500513          	li	a0,37
1c004884:	c1bff0ef          	jal	ra,1c00449e <soc_eu_fcEventMask_setEvent>
  PMU_Write(DLC_IMR, 0x7);
1c004888:	1a1077b7          	lui	a5,0x1a107
1c00488c:	471d                	li	a4,7
1c00488e:	00e7a623          	sw	a4,12(a5) # 1a10700c <__l1_end+0xa106fec>
  PMU_Write(DLC_IFR, (MAESTRO_EVENT_PICL_OK|MAESTRO_EVENT_SCU_OK));
1c004892:	4761                	li	a4,24
1c004894:	00e7a823          	sw	a4,16(a5)
}
1c004898:	40b2                	lw	ra,12(sp)
1c00489a:	0141                	addi	sp,sp,16
1c00489c:	8082                	ret
1c00489e:	8082                	ret

1c0048a0 <__rt_fll_init>:


unsigned int __rt_fll_init(int fll)
{
  return FllsFrequency[fll];
1c0048a0:	00251793          	slli	a5,a0,0x2
1c0048a4:	1c008537          	lui	a0,0x1c008
1c0048a8:	ad050513          	addi	a0,a0,-1328 # 1c007ad0 <SystemStateToSCUFastSeq>
1c0048ac:	953e                	add	a0,a0,a5
}
1c0048ae:	5108                	lw	a0,32(a0)
1c0048b0:	8082                	ret

1c0048b2 <__rt_fll_deinit>:

void __rt_fll_deinit(int fll)
{
}
1c0048b2:	8082                	ret

1c0048b4 <__rt_flls_constructor>:

void __rt_flls_constructor()
{
}
1c0048b4:	8082                	ret

1c0048b6 <__rt_fll_set_freq>:

unsigned int __rt_fll_set_freq(int fll, unsigned int frequency)
{
  return SetFllFrequency(fll, frequency, 0);
1c0048b6:	4601                	li	a2,0
1c0048b8:	c9dff06f          	j	1c004554 <SetFllFrequency>

1c0048bc <__rt_init_cluster_data>:
{
#if defined(EU_VERSION) && EU_VERSION >= 3
  eu_evt_maskSet((1<<PULP_DISPATCH_EVENT) | (1<<PULP_HW_BAR_EVENT) | (1<<PULP_MUTEX_EVENT));
  rt_team_fork(rt_nb_pe(), cluster_pe_start, NULL);
#endif
}
1c0048bc:	04050713          	addi	a4,a0,64
1c0048c0:	00400793          	li	a5,4
1c0048c4:	01671613          	slli	a2,a4,0x16
1c0048c8:	e6c7b7b3          	p.bclr	a5,a5,19,12
1c0048cc:	1c0086b7          	lui	a3,0x1c008
1c0048d0:	97b2                	add	a5,a5,a2
1c0048d2:	ffc68693          	addi	a3,a3,-4 # 1c007ffc <_bss_end>
1c0048d6:	01c00713          	li	a4,28
1c0048da:	8f95                	sub	a5,a5,a3
1c0048dc:	00f685b3          	add	a1,a3,a5
1c0048e0:	02e04963          	bgtz	a4,1c004912 <__rt_init_cluster_data+0x56>
1c0048e4:	1c0087b7          	lui	a5,0x1c008
1c0048e8:	02800713          	li	a4,40
1c0048ec:	fd478793          	addi	a5,a5,-44 # 1c007fd4 <__rt_fc_cluster_data>
1c0048f0:	42e507b3          	p.mac	a5,a0,a4
1c0048f4:	00201737          	lui	a4,0x201
1c0048f8:	e0470713          	addi	a4,a4,-508 # 200e04 <__L2+0x180e04>
1c0048fc:	9732                	add	a4,a4,a2
1c0048fe:	cb98                	sw	a4,16(a5)
1c004900:	00400713          	li	a4,4
1c004904:	e6c73733          	p.bclr	a4,a4,19,12
1c004908:	9732                	add	a4,a4,a2
1c00490a:	0007a423          	sw	zero,8(a5)
1c00490e:	cbd8                	sw	a4,20(a5)
1c004910:	8082                	ret
1c004912:	0046a80b          	p.lw	a6,4(a3!)
1c004916:	1771                	addi	a4,a4,-4
1c004918:	0105a023          	sw	a6,0(a1)
1c00491c:	b7c1                	j	1c0048dc <__rt_init_cluster_data+0x20>

1c00491e <__rt_cluster_init>:
1c00491e:	1c008537          	lui	a0,0x1c008
1c004922:	1141                	addi	sp,sp,-16
1c004924:	02800613          	li	a2,40
1c004928:	4581                	li	a1,0
1c00492a:	fd450513          	addi	a0,a0,-44 # 1c007fd4 <__rt_fc_cluster_data>
1c00492e:	c606                	sw	ra,12(sp)
1c004930:	64a010ef          	jal	ra,1c005f7a <memset>
1c004934:	1c0075b7          	lui	a1,0x1c007
1c004938:	35858593          	addi	a1,a1,856 # 1c007358 <__rt_dma_2d>
1c00493c:	4525                	li	a0,9
1c00493e:	d89fe0ef          	jal	ra,1c0036c6 <rt_irq_set_handler>
1c004942:	1c0005b7          	lui	a1,0x1c000
1c004946:	17458593          	addi	a1,a1,372 # 1c000174 <__rt_remote_enqueue_event>
1c00494a:	4505                	li	a0,1
1c00494c:	d7bfe0ef          	jal	ra,1c0036c6 <rt_irq_set_handler>
1c004950:	4789                	li	a5,2
1c004952:	00204737          	lui	a4,0x204
1c004956:	00f72a23          	sw	a5,20(a4) # 204014 <__L2+0x184014>
1c00495a:	00f72423          	sw	a5,8(a4)
1c00495e:	1c0005b7          	lui	a1,0x1c000
1c004962:	13c58593          	addi	a1,a1,316 # 1c00013c <__rt_bridge_enqueue_event>
1c004966:	4511                	li	a0,4
1c004968:	d5ffe0ef          	jal	ra,1c0036c6 <rt_irq_set_handler>
1c00496c:	47c1                	li	a5,16
1c00496e:	00204737          	lui	a4,0x204
1c004972:	00f72a23          	sw	a5,20(a4) # 204014 <__L2+0x184014>
1c004976:	00f72423          	sw	a5,8(a4)
1c00497a:	40b2                	lw	ra,12(sp)
1c00497c:	4501                	li	a0,0
1c00497e:	0141                	addi	sp,sp,16
1c004980:	8082                	ret

1c004982 <__rt_cluster_mount_step>:
{
1c004982:	7179                	addi	sp,sp,-48
1c004984:	ce4e                	sw	s3,28(sp)
1c004986:	cc52                	sw	s4,24(sp)
      plp_ctrl_core_bootaddr_set_remote(cid, i, ((int)_start) & 0xffffff00);
1c004988:	1c000a37          	lui	s4,0x1c000
  return (void *)(ARCHI_CLUSTER_GLOBAL_ADDR(cid) + ((int)data & 0xFFF));
1c00498c:	00400993          	li	s3,4
1c004990:	080a0a13          	addi	s4,s4,128 # 1c000080 <_start>
{
1c004994:	d422                	sw	s0,40(sp)
1c004996:	d606                	sw	ra,44(sp)
1c004998:	d226                	sw	s1,36(sp)
1c00499a:	d04a                	sw	s2,32(sp)
1c00499c:	ca56                	sw	s5,20(sp)
1c00499e:	842a                	mv	s0,a0
1c0049a0:	e6c9b9b3          	p.bclr	s3,s3,19,12
      plp_ctrl_core_bootaddr_set_remote(cid, i, ((int)_start) & 0xffffff00);
1c0049a4:	ce0a3a33          	p.bclr	s4,s4,7,0
    switch (cluster->state)
1c0049a8:	4c5c                	lw	a5,28(s0)
1c0049aa:	0217ad63          	p.beqimm	a5,1,1c0049e4 <__rt_cluster_mount_step+0x62>
1c0049ae:	0c27a663          	p.beqimm	a5,2,1c004a7a <__rt_cluster_mount_step+0xf8>
1c0049b2:	e3e1                	bnez	a5,1c004a72 <__rt_cluster_mount_step+0xf0>
  int cid = cluster->cid;
1c0049b4:	5018                	lw	a4,32(s0)
  cluster->powered_up = 0;
1c0049b6:	00042c23          	sw	zero,24(s0)
  if (cid == 0)
1c0049ba:	eb01                	bnez	a4,1c0049ca <__rt_cluster_mount_step+0x48>
    cluster->powered_up = __rt_pmu_cluster_power_up(cluster->mount_event, &pending);
1c0049bc:	5048                	lw	a0,36(s0)
1c0049be:	006c                	addi	a1,sp,12
    int pending = 0;
1c0049c0:	c602                	sw	zero,12(sp)
    cluster->powered_up = __rt_pmu_cluster_power_up(cluster->mount_event, &pending);
1c0049c2:	d17ff0ef          	jal	ra,1c0046d8 <__rt_pmu_cluster_power_up>
    return pending;
1c0049c6:	47b2                	lw	a5,12(sp)
    cluster->powered_up = __rt_pmu_cluster_power_up(cluster->mount_event, &pending);
1c0049c8:	cc08                	sw	a0,24(s0)
    cluster->state++;
1c0049ca:	4c58                	lw	a4,28(s0)
1c0049cc:	0705                	addi	a4,a4,1
1c0049ce:	cc58                	sw	a4,28(s0)
  while(!end)
1c0049d0:	dfe1                	beqz	a5,1c0049a8 <__rt_cluster_mount_step+0x26>
}
1c0049d2:	50b2                	lw	ra,44(sp)
1c0049d4:	5422                	lw	s0,40(sp)
1c0049d6:	5492                	lw	s1,36(sp)
1c0049d8:	5902                	lw	s2,32(sp)
1c0049da:	49f2                	lw	s3,28(sp)
1c0049dc:	4a62                	lw	s4,24(sp)
1c0049de:	4ad2                	lw	s5,20(sp)
1c0049e0:	6145                	addi	sp,sp,48
1c0049e2:	8082                	ret
1c0049e4:	02042a83          	lw	s5,32(s0)
1c0049e8:	040a8493          	addi	s1,s5,64
1c0049ec:	04da                	slli	s1,s1,0x16
1c0049ee:	009987b3          	add	a5,s3,s1
  pool->first_call_fc_for_cl = NULL;
1c0049f2:	0007a023          	sw	zero,0(a5)
  pool->first_call_fc = NULL;
1c0049f6:	0007a223          	sw	zero,4(a5)
  pool->last_call_fc = NULL;
1c0049fa:	0007a423          	sw	zero,8(a5)
  __rt_cluster_fc_task_lock = 0;
1c0049fe:	100007b7          	lui	a5,0x10000
1c004a02:	0007ae23          	sw	zero,28(a5) # 1000001c <__rt_cluster_fc_task_lock>
  return __rt_platform;
1c004a06:	1c0087b7          	lui	a5,0x1c008
    if (rt_platform() != ARCHI_PLATFORM_FPGA)
1c004a0a:	a8c7a783          	lw	a5,-1396(a5) # 1c007a8c <__rt_platform>
1c004a0e:	0017af63          	p.beqimm	a5,1,1c004a2c <__rt_cluster_mount_step+0xaa>
      int init_freq = __rt_fll_init(__RT_FLL_CL);
1c004a12:	4505                	li	a0,1
1c004a14:	e8dff0ef          	jal	ra,1c0048a0 <__rt_fll_init>

  #if defined(FLL_VERSION)

  static inline int rt_freq_get(rt_freq_domain_e domain)
  {
    return __rt_freq_domains[domain];
1c004a18:	1c0087b7          	lui	a5,0x1c008
1c004a1c:	fc478793          	addi	a5,a5,-60 # 1c007fc4 <__rt_freq_domains>
1c004a20:	43cc                	lw	a1,4(a5)
      if (freq)
1c004a22:	c9b1                	beqz	a1,1c004a76 <__rt_cluster_mount_step+0xf4>
    return rt_freq_set_and_get(domain, freq, NULL);
1c004a24:	4601                	li	a2,0
1c004a26:	4505                	li	a0,1
1c004a28:	9c3ff0ef          	jal	ra,1c0043ea <rt_freq_set_and_get>
    IP_WRITE(ARCHI_CLUSTER_PERIPHERALS_GLOBAL_ADDR(cid), ARCHI_CLUSTER_CTRL_CLUSTER_CLK_GATE, 1);
1c004a2c:	00200937          	lui	s2,0x200
1c004a30:	01248733          	add	a4,s1,s2
1c004a34:	4785                	li	a5,1
1c004a36:	02f72023          	sw	a5,32(a4)
    __rt_init_cluster_data(cid);
1c004a3a:	8556                	mv	a0,s5
1c004a3c:	e81ff0ef          	jal	ra,1c0048bc <__rt_init_cluster_data>
    __rt_alloc_init_l1(cid);
1c004a40:	8556                	mv	a0,s5
1c004a42:	ca6ff0ef          	jal	ra,1c003ee8 <__rt_alloc_init_l1>
  pulp_write32(ARCHI_CLUSTER_PERIPHERALS_GLOBAL_ADDR(cid) + ARCHI_ICACHE_CTRL_OFFSET, 0xFFFFFFFF);
1c004a46:	002017b7          	lui	a5,0x201
1c004a4a:	40078793          	addi	a5,a5,1024 # 201400 <__L2+0x181400>
1c004a4e:	577d                	li	a4,-1
1c004a50:	04090913          	addi	s2,s2,64 # 200040 <__L2+0x180040>
1c004a54:	00e4e7a3          	p.sw	a4,a5(s1)
1c004a58:	9926                	add	s2,s2,s1
1c004a5a:	008250fb          	lp.setupi	x1,8,1c004a62 <__rt_cluster_mount_step+0xe0>
  pulp_write32(ARCHI_CLUSTER_PERIPHERALS_GLOBAL_ADDR(cid) + ARCHI_CLUSTER_CTRL_OFFSET + 0x40 + core*4, bootAddr);
1c004a5e:	0149222b          	p.sw	s4,4(s2!)
1c004a62:	0001                	nop
  pulp_write32(ARCHI_CLUSTER_PERIPHERALS_GLOBAL_ADDR(cid) + ARCHI_CLUSTER_CTRL_OFFSET + EOC_FETCH_OFFSET, mask);
1c004a64:	002007b7          	lui	a5,0x200
1c004a68:	07a1                	addi	a5,a5,8
1c004a6a:	0ff00713          	li	a4,255
1c004a6e:	00e4e7a3          	p.sw	a4,a5(s1)
    switch (cluster->state)
1c004a72:	4781                	li	a5,0
1c004a74:	bf99                	j	1c0049ca <__rt_cluster_mount_step+0x48>
    __rt_freq_domains[domain] = freq;
1c004a76:	c3c8                	sw	a0,4(a5)
1c004a78:	bf55                	j	1c004a2c <__rt_cluster_mount_step+0xaa>
        __rt_event_restore(cluster->mount_event);
1c004a7a:	505c                	lw	a5,36(s0)
  event->implem.pending = event->implem.saved_pending;
1c004a7c:	5bd8                	lw	a4,52(a5)
1c004a7e:	d3d8                	sw	a4,36(a5)
  event->arg[0] = (uintptr_t)event->implem.saved_callback;
1c004a80:	57d8                	lw	a4,44(a5)
1c004a82:	c3d8                	sw	a4,4(a5)
  event->arg[1] = (uintptr_t)event->implem.saved_arg;
1c004a84:	5b98                	lw	a4,48(a5)
1c004a86:	c798                	sw	a4,8(a5)
  event->implem.saved_pending = 0;
1c004a88:	0207aa23          	sw	zero,52(a5) # 200034 <__L2+0x180034>
        __rt_event_enqueue(cluster->mount_event);
1c004a8c:	505c                	lw	a5,36(s0)
  if (sched->first) {
1c004a8e:	01c02603          	lw	a2,28(zero) # 1c <_l1_preload_size>
1c004a92:	01c00693          	li	a3,28
  event->next = NULL;
1c004a96:	0007a023          	sw	zero,0(a5)
  if (sched->first) {
1c004a9a:	c611                	beqz	a2,1c004aa6 <__rt_cluster_mount_step+0x124>
    sched->last->next = event;
1c004a9c:	42d8                	lw	a4,4(a3)
1c004a9e:	c31c                	sw	a5,0(a4)
  sched->last = event;
1c004aa0:	c2dc                	sw	a5,4(a3)
        end = 1;
1c004aa2:	4785                	li	a5,1
1c004aa4:	b71d                	j	1c0049ca <__rt_cluster_mount_step+0x48>
    sched->first = event;
1c004aa6:	00f02e23          	sw	a5,28(zero) # 1c <_l1_preload_size>
1c004aaa:	bfdd                	j	1c004aa0 <__rt_cluster_mount_step+0x11e>

1c004aac <pi_cluster_conf_init>:
  conf->id = 0;
1c004aac:	00052223          	sw	zero,4(a0)
}
1c004ab0:	8082                	ret

1c004ab2 <pi_cluster_open>:
{
1c004ab2:	1101                	addi	sp,sp,-32
1c004ab4:	ce06                	sw	ra,28(sp)
1c004ab6:	cc22                	sw	s0,24(sp)
1c004ab8:	ca26                	sw	s1,20(sp)
1c004aba:	c84a                	sw	s2,16(sp)
1c004abc:	c64e                	sw	s3,12(sp)
  return __builtin_pulp_read_then_spr_bit_clr(reg, val);
1c004abe:	30047973          	csrrci	s2,mstatus,8
  struct pi_cluster_conf *conf = (struct pi_cluster_conf *)cluster_dev->config;
1c004ac2:	00452983          	lw	s3,4(a0)
  cluster_dev->data = (void *)&__rt_fc_cluster_data[cid];
1c004ac6:	1c0084b7          	lui	s1,0x1c008
1c004aca:	02800793          	li	a5,40
  int cid = conf->id;
1c004ace:	0049a703          	lw	a4,4(s3)
  cluster_dev->data = (void *)&__rt_fc_cluster_data[cid];
1c004ad2:	fd448493          	addi	s1,s1,-44 # 1c007fd4 <__rt_fc_cluster_data>
1c004ad6:	42f704b3          	p.mac	s1,a4,a5
1c004ada:	c504                	sw	s1,8(a0)
  rt_event_t *event = __rt_wait_event_prepare_blocking();
1c004adc:	958ff0ef          	jal	ra,1c003c34 <__rt_wait_event_prepare_blocking>
  if (rt_is_fc() || (cid && !rt_has_fc()))
1c004ae0:	02000713          	li	a4,32
  asm("csrr %0, 0x014" : "=r" (hart_id) : );
1c004ae4:	014027f3          	csrr	a5,uhartid
  return (hart_id >> 5) & 0x3f;
1c004ae8:	ca5797b3          	p.extractu	a5,a5,5,5
  rt_event_t *event = __rt_wait_event_prepare_blocking();
1c004aec:	842a                	mv	s0,a0
  if (rt_is_fc() || (cid && !rt_has_fc()))
1c004aee:	04e79563          	bne	a5,a4,1c004b38 <pi_cluster_open+0x86>
  event->implem.saved_pending = event->implem.pending;
1c004af2:	515c                	lw	a5,36(a0)
    cluster->state = RT_CLUSTER_MOUNT_START;
1c004af4:	0004ae23          	sw	zero,28(s1)
    cluster->mount_event = event;
1c004af8:	d0c8                	sw	a0,36(s1)
1c004afa:	d95c                	sw	a5,52(a0)
  event->implem.saved_callback = (void (*)(void *))event->arg[0];
1c004afc:	415c                	lw	a5,4(a0)
  event->implem.keep = 0;
1c004afe:	02052423          	sw	zero,40(a0)
  event->implem.saved_callback = (void (*)(void *))event->arg[0];
1c004b02:	d55c                	sw	a5,44(a0)
  event->implem.saved_arg = (void *)event->arg[1];
1c004b04:	451c                	lw	a5,8(a0)
  event->arg[1] = (uintptr_t)arg;
1c004b06:	c504                	sw	s1,8(a0)
  event->implem.saved_arg = (void *)event->arg[1];
1c004b08:	d91c                	sw	a5,48(a0)
  event->arg[0] = (uintptr_t)callback;
1c004b0a:	1c0057b7          	lui	a5,0x1c005
1c004b0e:	98278793          	addi	a5,a5,-1662 # 1c004982 <__rt_cluster_mount_step>
1c004b12:	c15c                	sw	a5,4(a0)
  event->implem.pending = 1;  
1c004b14:	4785                	li	a5,1
1c004b16:	d15c                	sw	a5,36(a0)
    __rt_cluster_mount_step((void *)cluster);
1c004b18:	8526                	mv	a0,s1
1c004b1a:	e69ff0ef          	jal	ra,1c004982 <__rt_cluster_mount_step>
  __rt_wait_event(event);
1c004b1e:	8522                	mv	a0,s0
1c004b20:	a64ff0ef          	jal	ra,1c003d84 <__rt_wait_event>
  __builtin_pulp_spr_write(reg, val);
1c004b24:	30091073          	csrw	mstatus,s2
}
1c004b28:	40f2                	lw	ra,28(sp)
1c004b2a:	4462                	lw	s0,24(sp)
1c004b2c:	44d2                	lw	s1,20(sp)
1c004b2e:	4942                	lw	s2,16(sp)
1c004b30:	49b2                	lw	s3,12(sp)
1c004b32:	4501                	li	a0,0
1c004b34:	6105                	addi	sp,sp,32
1c004b36:	8082                	ret
  if (__rt_cluster_mount(&__rt_fc_cluster_data[cid], conf->id, 0, event))
1c004b38:	0049a483          	lw	s1,4(s3)
    __rt_init_cluster_data(cid);
1c004b3c:	8526                	mv	a0,s1
1c004b3e:	d7fff0ef          	jal	ra,1c0048bc <__rt_init_cluster_data>
1c004b42:	04048513          	addi	a0,s1,64
1c004b46:	002017b7          	lui	a5,0x201
1c004b4a:	055a                	slli	a0,a0,0x16
1c004b4c:	40078793          	addi	a5,a5,1024 # 201400 <__L2+0x181400>
1c004b50:	577d                	li	a4,-1
1c004b52:	00e567a3          	p.sw	a4,a5(a0)
1c004b56:	002007b7          	lui	a5,0x200
      plp_ctrl_core_bootaddr_set_remote(cid, i, ((int)_start) & 0xffffff00);
1c004b5a:	1c000737          	lui	a4,0x1c000
1c004b5e:	04478793          	addi	a5,a5,68 # 200044 <__L2+0x180044>
1c004b62:	08070713          	addi	a4,a4,128 # 1c000080 <_start>
1c004b66:	97aa                	add	a5,a5,a0
1c004b68:	ce073733          	p.bclr	a4,a4,7,0
1c004b6c:	007250fb          	lp.setupi	x1,7,1c004b74 <pi_cluster_open+0xc2>
  pulp_write32(ARCHI_CLUSTER_PERIPHERALS_GLOBAL_ADDR(cid) + ARCHI_CLUSTER_CTRL_OFFSET + 0x40 + core*4, bootAddr);
1c004b70:	00e7a22b          	p.sw	a4,4(a5!)
1c004b74:	0001                	nop
  pulp_write32(ARCHI_CLUSTER_PERIPHERALS_GLOBAL_ADDR(cid) + ARCHI_CLUSTER_CTRL_OFFSET + EOC_FETCH_OFFSET, mask);
1c004b76:	002007b7          	lui	a5,0x200
1c004b7a:	07a1                	addi	a5,a5,8
1c004b7c:	577d                	li	a4,-1
1c004b7e:	00e567a3          	p.sw	a4,a5(a0)
    rt_event_push(event);
1c004b82:	8522                	mv	a0,s0
1c004b84:	978ff0ef          	jal	ra,1c003cfc <rt_event_push>
1c004b88:	bf59                	j	1c004b1e <pi_cluster_open+0x6c>

1c004b8a <pi_cluster_close>:
  __rt_cluster_unmount(data->cid, 0, NULL);
1c004b8a:	451c                	lw	a5,8(a0)
{
1c004b8c:	1101                	addi	sp,sp,-32
1c004b8e:	cc22                	sw	s0,24(sp)
  __rt_cluster_unmount(data->cid, 0, NULL);
1c004b90:	5380                	lw	s0,32(a5)
1c004b92:	1c0087b7          	lui	a5,0x1c008
    if (rt_platform() != ARCHI_PLATFORM_FPGA)
1c004b96:	a8c7a783          	lw	a5,-1396(a5) # 1c007a8c <__rt_platform>
{
1c004b9a:	ce06                	sw	ra,28(sp)
    if (rt_platform() != ARCHI_PLATFORM_FPGA)
1c004b9c:	0017a563          	p.beqimm	a5,1,1c004ba6 <pi_cluster_close+0x1c>
      __rt_fll_deinit(__RT_FLL_CL);
1c004ba0:	4505                	li	a0,1
1c004ba2:	d11ff0ef          	jal	ra,1c0048b2 <__rt_fll_deinit>
    int pending = 0;
1c004ba6:	c602                	sw	zero,12(sp)
  if (cid == 0) __rt_pmu_cluster_power_down(event, &pending);
1c004ba8:	e409                	bnez	s0,1c004bb2 <pi_cluster_close+0x28>
1c004baa:	006c                	addi	a1,sp,12
1c004bac:	4501                	li	a0,0
1c004bae:	917ff0ef          	jal	ra,1c0044c4 <__rt_pmu_cluster_power_down>
}
1c004bb2:	40f2                	lw	ra,28(sp)
1c004bb4:	4462                	lw	s0,24(sp)
1c004bb6:	4501                	li	a0,0
1c004bb8:	6105                	addi	sp,sp,32
1c004bba:	8082                	ret

1c004bbc <__rt_cluster_push_fc_event>:
  while (rt_tas_lock_32((int)&__rt_cluster_fc_task_lock) == -1)
1c004bbc:	100006b7          	lui	a3,0x10000
1c004bc0:	01c68693          	addi	a3,a3,28 # 1000001c <__rt_cluster_fc_task_lock>
  return addr | (1<<ARCHI_L1_TAS_BIT);
1c004bc4:	c146c5b3          	p.bset	a1,a3,0,20
  ARCHI_WRITE(ARCHI_EU_DEMUX_ADDR, EU_CORE_MASK_OR, evtMask);
1c004bc8:	4709                	li	a4,2
1c004bca:	002047b7          	lui	a5,0x204
  signed int result = *(volatile signed int *)__rt_tas_addr(addr);
1c004bce:	4190                	lw	a2,0(a1)
1c004bd0:	05f62063          	p.beqimm	a2,-1,1c004c10 <__rt_cluster_push_fc_event+0x54>
  asm("csrr %0, 0x014" : "=r" (hart_id) : );
1c004bd4:	01402773          	csrr	a4,uhartid
  while(data->events != NULL)
1c004bd8:	1c0087b7          	lui	a5,0x1c008
  return (hart_id >> 5) & 0x3f;
1c004bdc:	8715                	srai	a4,a4,0x5
1c004bde:	f2673733          	p.bclr	a4,a4,25,6
1c004be2:	02800613          	li	a2,40
1c004be6:	fd478793          	addi	a5,a5,-44 # 1c007fd4 <__rt_fc_cluster_data>
1c004bea:	42c707b3          	p.mac	a5,a4,a2
1c004bee:	4609                	li	a2,2
1c004bf0:	00204737          	lui	a4,0x204
1c004bf4:	43cc                	lw	a1,4(a5)
1c004bf6:	e585                	bnez	a1,1c004c1e <__rt_cluster_push_fc_event+0x62>
  data->events = event;
1c004bf8:	c3c8                	sw	a0,4(a5)
  pulp_write32(evtAddr, coreSet);
1c004bfa:	1b2017b7          	lui	a5,0x1b201
1c004bfe:	e007a223          	sw	zero,-508(a5) # 1b200e04 <__fc_tcdm_end+0x1ff9e4>
  *(volatile signed int *)addr = value;
1c004c02:	0006a023          	sw	zero,0(a3)
1c004c06:	002047b7          	lui	a5,0x204
1c004c0a:	1007a223          	sw	zero,260(a5) # 204104 <__L2+0x184104>
}
1c004c0e:	8082                	ret
  ARCHI_WRITE(ARCHI_EU_DEMUX_ADDR, EU_CORE_MASK_OR, evtMask);
1c004c10:	00e7a423          	sw	a4,8(a5)
  value = __builtin_pulp_event_unit_read_fenced((int *)base, offset);
1c004c14:	03c7e603          	p.elw	a2,60(a5)
  ARCHI_WRITE(ARCHI_EU_DEMUX_ADDR, EU_CORE_MASK_AND, evtMask);
1c004c18:	00e7a223          	sw	a4,4(a5)
1c004c1c:	bf4d                	j	1c004bce <__rt_cluster_push_fc_event+0x12>
  ARCHI_WRITE(ARCHI_EU_DEMUX_ADDR, EU_CORE_MASK_OR, evtMask);
1c004c1e:	00c72423          	sw	a2,8(a4) # 204008 <__L2+0x184008>
  value = __builtin_pulp_event_unit_read_fenced((int *)base, offset);
1c004c22:	03c76583          	p.elw	a1,60(a4)
  ARCHI_WRITE(ARCHI_EU_DEMUX_ADDR, EU_CORE_MASK_AND, evtMask);
1c004c26:	00c72223          	sw	a2,4(a4)
1c004c2a:	b7e9                	j	1c004bf4 <__rt_cluster_push_fc_event+0x38>

1c004c2c <__rt_cluster_new>:
  err |= __rt_cbsys_add(RT_CBSYS_START, __rt_cluster_init, NULL);
1c004c2c:	1c0055b7          	lui	a1,0x1c005
{
1c004c30:	1141                	addi	sp,sp,-16
  err |= __rt_cbsys_add(RT_CBSYS_START, __rt_cluster_init, NULL);
1c004c32:	4601                	li	a2,0
1c004c34:	91e58593          	addi	a1,a1,-1762 # 1c00491e <__rt_cluster_init>
1c004c38:	4501                	li	a0,0
{
1c004c3a:	c606                	sw	ra,12(sp)
  err |= __rt_cbsys_add(RT_CBSYS_START, __rt_cluster_init, NULL);
1c004c3c:	bf7fe0ef          	jal	ra,1c003832 <__rt_cbsys_add>
  if (err) rt_fatal("Unable to initialize time driver\n");
1c004c40:	c10d                	beqz	a0,1c004c62 <__rt_cluster_new+0x36>
  asm("csrr %0, 0x014" : "=r" (hart_id) : );
1c004c42:	01402673          	csrr	a2,uhartid
1c004c46:	1c007537          	lui	a0,0x1c007
  return (hart_id >> 5) & 0x3f;
1c004c4a:	40565593          	srai	a1,a2,0x5
1c004c4e:	f265b5b3          	p.bclr	a1,a1,25,6
1c004c52:	f4563633          	p.bclr	a2,a2,26,5
1c004c56:	6fc50513          	addi	a0,a0,1788 # 1c0076fc <__clz_tab+0x2c0>
1c004c5a:	65c010ef          	jal	ra,1c0062b6 <printf>
1c004c5e:	5dc010ef          	jal	ra,1c00623a <abort>
}
1c004c62:	40b2                	lw	ra,12(sp)
1c004c64:	0141                	addi	sp,sp,16
1c004c66:	8082                	ret

1c004c68 <__rt_cluster_pulpos_emu_init>:
static struct pi_device *__rt_fc_cluster_device;
static struct pi_cluster_task __rt_pulpos_emu_global_cluster_task;


static void __attribute__((constructor)) __rt_cluster_pulpos_emu_init()
{
1c004c68:	1141                	addi	sp,sp,-16
  int nb_cluster = rt_nb_cluster();

  __rt_fc_cluster_device = rt_alloc(RT_ALLOC_FC_DATA, sizeof(struct pi_device)*nb_cluster);
1c004c6a:	45b1                	li	a1,12
1c004c6c:	4505                	li	a0,1
{
1c004c6e:	c606                	sw	ra,12(sp)
  __rt_fc_cluster_device = rt_alloc(RT_ALLOC_FC_DATA, sizeof(struct pi_device)*nb_cluster);
1c004c70:	a1eff0ef          	jal	ra,1c003e8e <rt_alloc>
1c004c74:	1c0087b7          	lui	a5,0x1c008
1c004c78:	eca7aa23          	sw	a0,-300(a5) # 1c007ed4 <__rt_fc_cluster_device>
  if (__rt_fc_cluster_device == NULL) {
1c004c7c:	e10d                	bnez	a0,1c004c9e <__rt_cluster_pulpos_emu_init+0x36>
  asm("csrr %0, 0x014" : "=r" (hart_id) : );
1c004c7e:	01402673          	csrr	a2,uhartid
    rt_fatal("Unable to allocate cluster control structure\n");
1c004c82:	1c007537          	lui	a0,0x1c007
  return (hart_id >> 5) & 0x3f;
1c004c86:	40565593          	srai	a1,a2,0x5
1c004c8a:	f265b5b3          	p.bclr	a1,a1,25,6
1c004c8e:	f4563633          	p.bclr	a2,a2,26,5
1c004c92:	74450513          	addi	a0,a0,1860 # 1c007744 <__clz_tab+0x308>
1c004c96:	620010ef          	jal	ra,1c0062b6 <printf>
1c004c9a:	5a0010ef          	jal	ra,1c00623a <abort>
    return;
  }
}
1c004c9e:	40b2                	lw	ra,12(sp)
1c004ca0:	0141                	addi	sp,sp,16
1c004ca2:	8082                	ret

1c004ca4 <rt_cluster_call>:

int rt_cluster_call(rt_cluster_call_t *_call, int cid, void (*entry)(void *arg), void *arg, void *stacks, int master_stack_size, int slave_stack_size, int nb_pe, rt_event_t *event)
{
1c004ca4:	7139                	addi	sp,sp,-64
1c004ca6:	d84a                	sw	s2,48(sp)
1c004ca8:	4906                	lw	s2,64(sp)
1c004caa:	dc22                	sw	s0,56(sp)
1c004cac:	842e                	mv	s0,a1
1c004cae:	de06                	sw	ra,60(sp)
1c004cb0:	da26                	sw	s1,52(sp)
1c004cb2:	d64e                	sw	s3,44(sp)
  return __builtin_pulp_read_then_spr_bit_clr(reg, val);
1c004cb4:	300479f3          	csrrci	s3,mstatus,8
  __asm__ __volatile__ ("" : : : "memory");
1c004cb8:	84ca                	mv	s1,s2
  if (likely(event != NULL)) return event;
1c004cba:	02091163          	bnez	s2,1c004cdc <rt_cluster_call+0x38>
  return __rt_wait_event_prepare_blocking();
1c004cbe:	ce32                	sw	a2,28(sp)
1c004cc0:	cc36                	sw	a3,24(sp)
1c004cc2:	ca3a                	sw	a4,20(sp)
1c004cc4:	c83e                	sw	a5,16(sp)
1c004cc6:	c642                	sw	a6,12(sp)
1c004cc8:	c446                	sw	a7,8(sp)
1c004cca:	f6bfe0ef          	jal	ra,1c003c34 <__rt_wait_event_prepare_blocking>
1c004cce:	48a2                	lw	a7,8(sp)
1c004cd0:	4832                	lw	a6,12(sp)
1c004cd2:	47c2                	lw	a5,16(sp)
1c004cd4:	4752                	lw	a4,20(sp)
1c004cd6:	46e2                	lw	a3,24(sp)
1c004cd8:	4672                	lw	a2,28(sp)
1c004cda:	84aa                	mv	s1,a0
static inline struct pi_cluster_task *pi_cluster_task(struct pi_cluster_task *task, void (*entry)(void*), void *arg)
{
    #if defined(PMSIS_DRIVERS)
    memset(task, 0, sizeof(struct pi_cluster_task));
    #endif  /* PMSIS_DRIVERS */
    task->entry = entry;
1c004cdc:	1c0085b7          	lui	a1,0x1c008
1c004ce0:	c9458513          	addi	a0,a1,-876 # 1c007c94 <__rt_pulpos_emu_global_cluster_task>
  struct pi_cluster_task *task = &__rt_pulpos_emu_global_cluster_task;

  pi_cluster_task(task, entry, arg);

  task->stacks = stacks;
  task->stack_size = master_stack_size;
1c004ce4:	c55c                	sw	a5,12(a0)
  task->slave_stack_size = slave_stack_size;
  task->nb_cores = nb_pe;

  if (pi_cluster_send_task_to_cl_async(&__rt_fc_cluster_device[cid], task, call_event))
1c004ce6:	1c0087b7          	lui	a5,0x1c008
1c004cea:	c110                	sw	a2,0(a0)
    task->arg = arg;
1c004cec:	c154                	sw	a3,4(a0)
  task->stacks = stacks;
1c004cee:	c518                	sw	a4,8(a0)
  task->slave_stack_size = slave_stack_size;
1c004cf0:	01052823          	sw	a6,16(a0)
  task->nb_cores = nb_pe;
1c004cf4:	01152a23          	sw	a7,20(a0)
  if (pi_cluster_send_task_to_cl_async(&__rt_fc_cluster_device[cid], task, call_event))
1c004cf8:	ed47a503          	lw	a0,-300(a5) # 1c007ed4 <__rt_fc_cluster_device>
1c004cfc:	47b1                	li	a5,12
1c004cfe:	8626                	mv	a2,s1
1c004d00:	42f40533          	p.mac	a0,s0,a5
1c004d04:	c9458593          	addi	a1,a1,-876
1c004d08:	2061                	jal	1c004d90 <pi_cluster_send_task_to_cl_async>
1c004d0a:	842a                	mv	s0,a0
1c004d0c:	cd01                	beqz	a0,1c004d24 <rt_cluster_call+0x80>
  __builtin_pulp_spr_write(reg, val);
1c004d0e:	30099073          	csrw	mstatus,s3
  {
  	rt_irq_restore(irq);
  	return -1;
1c004d12:	547d                	li	s0,-1
  __rt_wait_event_check(event, call_event);

  rt_irq_restore(irq);

  return 0;
}
1c004d14:	8522                	mv	a0,s0
1c004d16:	50f2                	lw	ra,60(sp)
1c004d18:	5462                	lw	s0,56(sp)
1c004d1a:	54d2                	lw	s1,52(sp)
1c004d1c:	5942                	lw	s2,48(sp)
1c004d1e:	59b2                	lw	s3,44(sp)
1c004d20:	6121                	addi	sp,sp,64
1c004d22:	8082                	ret
  if (event == NULL) __rt_wait_event(call_event);
1c004d24:	00091563          	bnez	s2,1c004d2e <rt_cluster_call+0x8a>
1c004d28:	8526                	mv	a0,s1
1c004d2a:	85aff0ef          	jal	ra,1c003d84 <__rt_wait_event>
1c004d2e:	30099073          	csrw	mstatus,s3
  return 0;
1c004d32:	b7cd                	j	1c004d14 <rt_cluster_call+0x70>

1c004d34 <rt_cluster_mount>:

void rt_cluster_mount(int mount, int cid, int flags, rt_event_t *event)
{
1c004d34:	7139                	addi	sp,sp,-64
1c004d36:	dc22                	sw	s0,56(sp)
1c004d38:	da26                	sw	s1,52(sp)
1c004d3a:	d84a                	sw	s2,48(sp)
1c004d3c:	4431                	li	s0,12
1c004d3e:	1c0084b7          	lui	s1,0x1c008
1c004d42:	de06                	sw	ra,60(sp)
1c004d44:	d64e                	sw	s3,44(sp)
1c004d46:	8936                	mv	s2,a3
1c004d48:	02858433          	mul	s0,a1,s0
1c004d4c:	ed448493          	addi	s1,s1,-300 # 1c007ed4 <__rt_fc_cluster_device>
  if (mount)
1c004d50:	c91d                	beqz	a0,1c004d86 <rt_cluster_mount+0x52>
  {
    struct pi_cluster_conf conf;
    pi_cluster_conf_init(&conf);
1c004d52:	0028                	addi	a0,sp,8
1c004d54:	89ae                	mv	s3,a1
1c004d56:	d57ff0ef          	jal	ra,1c004aac <pi_cluster_conf_init>
    pi_open_from_conf(&__rt_fc_cluster_device[cid], &conf);
1c004d5a:	4088                	lw	a0,0(s1)
1c004d5c:	002c                	addi	a1,sp,8
1c004d5e:	9522                	add	a0,a0,s0
1c004d60:	963fe0ef          	jal	ra,1c0036c2 <pi_open_from_conf>
    conf.id = cid;
    pi_cluster_open(&__rt_fc_cluster_device[cid]);
1c004d64:	4088                	lw	a0,0(s1)
    conf.id = cid;
1c004d66:	c64e                	sw	s3,12(sp)
    pi_cluster_open(&__rt_fc_cluster_device[cid]);
1c004d68:	9522                	add	a0,a0,s0
1c004d6a:	d49ff0ef          	jal	ra,1c004ab2 <pi_cluster_open>
  else
  {
    pi_cluster_close(&__rt_fc_cluster_device[cid]);
  }

  if (event)
1c004d6e:	00090563          	beqz	s2,1c004d78 <rt_cluster_mount+0x44>
    rt_event_push(event);
1c004d72:	854a                	mv	a0,s2
1c004d74:	f89fe0ef          	jal	ra,1c003cfc <rt_event_push>
}
1c004d78:	50f2                	lw	ra,60(sp)
1c004d7a:	5462                	lw	s0,56(sp)
1c004d7c:	54d2                	lw	s1,52(sp)
1c004d7e:	5942                	lw	s2,48(sp)
1c004d80:	59b2                	lw	s3,44(sp)
1c004d82:	6121                	addi	sp,sp,64
1c004d84:	8082                	ret
    pi_cluster_close(&__rt_fc_cluster_device[cid]);
1c004d86:	4088                	lw	a0,0(s1)
1c004d88:	9522                	add	a0,a0,s0
1c004d8a:	e01ff0ef          	jal	ra,1c004b8a <pi_cluster_close>
1c004d8e:	b7c5                	j	1c004d6e <rt_cluster_mount+0x3a>

1c004d90 <pi_cluster_send_task_to_cl_async>:
  }
}
#endif

int pi_cluster_send_task_to_cl_async(struct pi_device *device, struct pi_cluster_task *task, pi_task_t *async_task)
{
1c004d90:	1101                	addi	sp,sp,-32
1c004d92:	ca26                	sw	s1,20(sp)
  rt_fc_cluster_data_t *data = (rt_fc_cluster_data_t *)device->data;
1c004d94:	4504                	lw	s1,8(a0)
{
1c004d96:	cc22                	sw	s0,24(sp)
1c004d98:	c256                	sw	s5,4(sp)
1c004d9a:	842e                	mv	s0,a1
1c004d9c:	8ab2                	mv	s5,a2
1c004d9e:	ce06                	sw	ra,28(sp)
1c004da0:	c84a                	sw	s2,16(sp)
1c004da2:	c64e                	sw	s3,12(sp)
1c004da4:	c452                	sw	s4,8(sp)
  return __builtin_pulp_read_then_spr_bit_clr(reg, val);
1c004da6:	30047a73          	csrrci	s4,mstatus,8

  int lock = __rt_cluster_lock(data);

  __rt_task_init(async_task);
  
  task->implem.pending = 1;
1c004daa:	4785                	li	a5,1
  task->done = 0;
1c004dac:	00060a23          	sb	zero,20(a2)
1c004db0:	d1dc                	sw	a5,36(a1)

  rt_cluster_call_pool_t *cl_data = data->pool;

  if (task->nb_cores == 0)
1c004db2:	49dc                	lw	a5,20(a1)
  rt_cluster_call_pool_t *cl_data = data->pool;
1c004db4:	0144a983          	lw	s3,20(s1)
  if (task->nb_cores == 0)
1c004db8:	e399                	bnez	a5,1c004dbe <pi_cluster_send_task_to_cl_async+0x2e>
    task->nb_cores = pi_cl_cluster_nb_cores();
1c004dba:	47a1                	li	a5,8
1c004dbc:	c9dc                	sw	a5,20(a1)

  if (task->stacks == NULL)
1c004dbe:	441c                	lw	a5,8(s0)
1c004dc0:	ef85                	bnez	a5,1c004df8 <pi_cluster_send_task_to_cl_async+0x68>
  {
    if (task->stack_size == 0)
1c004dc2:	445c                	lw	a5,12(s0)
1c004dc4:	eb81                	bnez	a5,1c004dd4 <pi_cluster_send_task_to_cl_async+0x44>
    {
      task->stack_size = 0x800;
1c004dc6:	6785                	lui	a5,0x1
1c004dc8:	80078793          	addi	a5,a5,-2048 # 800 <__rt_stack_size>
1c004dcc:	c45c                	sw	a5,12(s0)
      task->slave_stack_size = 0x400;
1c004dce:	40000793          	li	a5,1024
1c004dd2:	c81c                	sw	a5,16(s0)
    }

    if (task->slave_stack_size == 0)
1c004dd4:	481c                	lw	a5,16(s0)
1c004dd6:	00c42903          	lw	s2,12(s0)
1c004dda:	e399                	bnez	a5,1c004de0 <pi_cluster_send_task_to_cl_async+0x50>
      task->slave_stack_size = task->stack_size;
1c004ddc:	01242823          	sw	s2,16(s0)

    int stacks_size = task->stack_size + task->slave_stack_size * (task->nb_cores - 1);
1c004de0:	485c                	lw	a5,20(s0)
1c004de2:	4818                	lw	a4,16(s0)

    if (data->stacks == NULL || stacks_size != data->stacks_size)
1c004de4:	448c                	lw	a1,8(s1)
    int stacks_size = task->stack_size + task->slave_stack_size * (task->nb_cores - 1);
1c004de6:	17fd                	addi	a5,a5,-1
1c004de8:	42e78933          	p.mac	s2,a5,a4
    if (data->stacks == NULL || stacks_size != data->stacks_size)
1c004dec:	c9b5                	beqz	a1,1c004e60 <pi_cluster_send_task_to_cl_async+0xd0>
1c004dee:	44d0                	lw	a2,12(s1)
1c004df0:	05261f63          	bne	a2,s2,1c004e4e <pi_cluster_send_task_to_cl_async+0xbe>

      if (data->stacks == NULL)
        goto error;
    }

    task->stacks = data->stacks;
1c004df4:	449c                	lw	a5,8(s1)
1c004df6:	c41c                	sw	a5,8(s0)

  task->completion_callback = async_task;
#ifdef ARCHI_HAS_CC
  task->implem.core_mask = (1<<(task->nb_cores-1)) - 1;
#else
  task->implem.core_mask = (1<<task->nb_cores) - 1;
1c004df8:	4858                	lw	a4,20(s0)
1c004dfa:	4785                	li	a5,1
  task->completion_callback = async_task;
1c004dfc:	01542c23          	sw	s5,24(s0)
  task->implem.core_mask = (1<<task->nb_cores) - 1;
1c004e00:	00e797b3          	sll	a5,a5,a4
1c004e04:	17fd                	addi	a5,a5,-1
1c004e06:	d41c                	sw	a5,40(s0)
#endif

  task->next = NULL;
1c004e08:	02042023          	sw	zero,32(s0)

  rt_compiler_barrier();

  if (cl_data->last_call_fc)
1c004e0c:	0089a783          	lw	a5,8(s3)
1c004e10:	cbb5                	beqz	a5,1c004e84 <pi_cluster_send_task_to_cl_async+0xf4>
  {
    cl_data->last_call_fc->next = task;
1c004e12:	d380                	sw	s0,32(a5)
  else
  {
    cl_data->first_call_fc = task;
  }

  cl_data->last_call_fc = task;
1c004e14:	0089a423          	sw	s0,8(s3)

  rt_compiler_barrier();
  
  if (cl_data->first_call_fc_for_cl == NULL)
1c004e18:	0009a783          	lw	a5,0(s3)
1c004e1c:	e399                	bnez	a5,1c004e22 <pi_cluster_send_task_to_cl_async+0x92>
    cl_data->first_call_fc_for_cl = task;
1c004e1e:	0089a023          	sw	s0,0(s3)
  return ARCHI_CLUSTER_PERIPHERALS_GLOBAL_ADDR(cluster) + ARCHI_EU_OFFSET + EU_SW_EVENTS_AREA_BASE + EU_CORE_TRIGG_SW_EVENT + (event << 2);
1c004e22:	509c                	lw	a5,32(s1)
  pulp_write32(evtAddr, coreSet);
1c004e24:	00201737          	lui	a4,0x201
1c004e28:	e0470713          	addi	a4,a4,-508 # 200e04 <__L2+0x180e04>
  return ARCHI_CLUSTER_PERIPHERALS_GLOBAL_ADDR(cluster) + ARCHI_EU_OFFSET + EU_SW_EVENTS_AREA_BASE + EU_CORE_TRIGG_SW_EVENT + (event << 2);
1c004e2c:	04078793          	addi	a5,a5,64
1c004e30:	07da                	slli	a5,a5,0x16
  pulp_write32(evtAddr, coreSet);
1c004e32:	0007e723          	p.sw	zero,a4(a5)
  __builtin_pulp_spr_write(reg, val);
1c004e36:	300a1073          	csrw	mstatus,s4
  rt_compiler_barrier();
  eu_evt_trig(eu_evt_trig_cluster_addr(data->cid, RT_CLUSTER_CALL_EVT), 0);

  __rt_cluster_unlock(data, lock);

  return 0;
1c004e3a:	4501                	li	a0,0

error:
  __rt_cluster_unlock(data, lock);
  return -1;
}
1c004e3c:	40f2                	lw	ra,28(sp)
1c004e3e:	4462                	lw	s0,24(sp)
1c004e40:	44d2                	lw	s1,20(sp)
1c004e42:	4942                	lw	s2,16(sp)
1c004e44:	49b2                	lw	s3,12(sp)
1c004e46:	4a22                	lw	s4,8(sp)
1c004e48:	4a92                	lw	s5,4(sp)
1c004e4a:	6105                	addi	sp,sp,32
1c004e4c:	8082                	ret

#if defined(ARCHI_HAS_L1)

extern rt_alloc_t *__rt_alloc_l1;

static inline rt_alloc_t *rt_alloc_l1(int cid) { return &__rt_alloc_l1[cid]; }
1c004e4e:	509c                	lw	a5,32(s1)
1c004e50:	1c008737          	lui	a4,0x1c008
1c004e54:	fb472503          	lw	a0,-76(a4) # 1c007fb4 <__rt_alloc_l1>
1c004e58:	078a                	slli	a5,a5,0x2
        rt_user_free(rt_alloc_l1(data->cid), data->stacks, data->stacks_size);
1c004e5a:	953e                	add	a0,a0,a5
1c004e5c:	fe7fe0ef          	jal	ra,1c003e42 <rt_user_free>
1c004e60:	509c                	lw	a5,32(s1)
1c004e62:	1c008737          	lui	a4,0x1c008
1c004e66:	fb472503          	lw	a0,-76(a4) # 1c007fb4 <__rt_alloc_l1>
1c004e6a:	078a                	slli	a5,a5,0x2
      data->stacks_size = stacks_size;
1c004e6c:	0124a623          	sw	s2,12(s1)
      data->stacks = rt_user_alloc(rt_alloc_l1(data->cid), stacks_size);
1c004e70:	85ca                	mv	a1,s2
1c004e72:	953e                	add	a0,a0,a5
1c004e74:	f87fe0ef          	jal	ra,1c003dfa <rt_user_alloc>
1c004e78:	c488                	sw	a0,8(s1)
      if (data->stacks == NULL)
1c004e7a:	fd2d                	bnez	a0,1c004df4 <pi_cluster_send_task_to_cl_async+0x64>
1c004e7c:	300a1073          	csrw	mstatus,s4
  return -1;
1c004e80:	557d                	li	a0,-1
1c004e82:	bf6d                	j	1c004e3c <pi_cluster_send_task_to_cl_async+0xac>
    cl_data->first_call_fc = task;
1c004e84:	0089a223          	sw	s0,4(s3)
1c004e88:	b771                	j	1c004e14 <pi_cluster_send_task_to_cl_async+0x84>

1c004e8a <pi_pad_set_function>:
  return __builtin_pulp_read_then_spr_bit_clr(reg, val);
1c004e8a:	300476f3          	csrrci	a3,mstatus,8
  return pulp_read32(ARCHI_APB_SOC_CTRL_ADDR + APB_SOC_PADFUN_OFFSET(id));
1c004e8e:	068417b7          	lui	a5,0x6841
  unsigned int padBit = APB_SOC_PADFUN_BIT(pad);
1c004e92:	00151713          	slli	a4,a0,0x1
  return pulp_read32(ARCHI_APB_SOC_CTRL_ADDR + APB_SOC_PADFUN_OFFSET(id));
1c004e96:	05078793          	addi	a5,a5,80 # 6841050 <__L2+0x67c1050>
  unsigned int padfunId = APB_SOC_PADFUN_NO(pad);
1c004e9a:	8111                	srli	a0,a0,0x4
  return pulp_read32(ARCHI_APB_SOC_CTRL_ADDR + APB_SOC_PADFUN_OFFSET(id));
1c004e9c:	953e                	add	a0,a0,a5
1c004e9e:	050a                	slli	a0,a0,0x2
  unsigned int padBit = APB_SOC_PADFUN_BIT(pad);
1c004ea0:	8b79                	andi	a4,a4,30
  return pulp_read32(ARCHI_APB_SOC_CTRL_ADDR + APB_SOC_PADFUN_OFFSET(id));
1c004ea2:	4110                	lw	a2,0(a0)
  unsigned int oldval = hal_apb_soc_padfun_get(padfunId) & ~(((1<<APB_SOC_PADFUN_SIZE)-1) << padBit);
1c004ea4:	478d                	li	a5,3
1c004ea6:	00e797b3          	sll	a5,a5,a4
1c004eaa:	fff7c793          	not	a5,a5
1c004eae:	8ff1                	and	a5,a5,a2
  unsigned int newVal = oldval | (func << padBit);
1c004eb0:	00e595b3          	sll	a1,a1,a4
1c004eb4:	8ddd                	or	a1,a1,a5
  pulp_write32(ARCHI_APB_SOC_CTRL_ADDR + APB_SOC_PADFUN_OFFSET(id), value);
1c004eb6:	c10c                	sw	a1,0(a0)
  __builtin_pulp_spr_write(reg, val);
1c004eb8:	30069073          	csrw	mstatus,a3
void pi_pad_set_function(pi_pad_e pad, pi_pad_func_e function)
{
  int irq = rt_irq_disable();
  hal_apb_soc_pad_set_function(pad, function);
  rt_irq_restore(irq);
}
1c004ebc:	8082                	ret

1c004ebe <pi_pad_init>:

void pi_pad_init(uint32_t pad_values[])
{
  for (int i=0; i<ARCHI_APB_SOC_PADFUN_NB; i++)
  {
    hal_apb_soc_padfun_set(i, pad_values[i]);
1c004ebe:	4114                	lw	a3,0(a0)
1c004ec0:	1a1047b7          	lui	a5,0x1a104
1c004ec4:	14078713          	addi	a4,a5,320 # 1a104140 <__l1_end+0xa104120>
1c004ec8:	c314                	sw	a3,0(a4)
1c004eca:	4154                	lw	a3,4(a0)
1c004ecc:	14478713          	addi	a4,a5,324
1c004ed0:	14878793          	addi	a5,a5,328
1c004ed4:	c314                	sw	a3,0(a4)
1c004ed6:	4518                	lw	a4,8(a0)
1c004ed8:	c398                	sw	a4,0(a5)
  }  
}
1c004eda:	8082                	ret

1c004edc <l2_memcpy>:
  req = __pi_hyper_cluster_reqs_first;
  if (req)
  {
    __pi_hyper_cluster_req_exec(req);
  }
}
1c004edc:	87aa                	mv	a5,a0
1c004ede:	962e                	add	a2,a2,a1
1c004ee0:	00c59363          	bne	a1,a2,1c004ee6 <l2_memcpy+0xa>
1c004ee4:	8082                	ret
1c004ee6:	0015c70b          	p.lbu	a4,1(a1!)
1c004eea:	00e780ab          	p.sb	a4,1(a5!)
1c004eee:	bfcd                	j	1c004ee0 <l2_memcpy+0x4>

1c004ef0 <rt_event_enqueue>:
1c004ef0:	300476f3          	csrrci	a3,mstatus,8
1c004ef4:	01c02603          	lw	a2,28(zero) # 1c <_l1_preload_size>
1c004ef8:	00052023          	sw	zero,0(a0)
1c004efc:	01c00713          	li	a4,28
1c004f00:	c619                	beqz	a2,1c004f0e <rt_event_enqueue+0x1e>
1c004f02:	435c                	lw	a5,4(a4)
1c004f04:	c388                	sw	a0,0(a5)
1c004f06:	c348                	sw	a0,4(a4)
1c004f08:	30069073          	csrw	mstatus,a3
1c004f0c:	8082                	ret
1c004f0e:	00a02e23          	sw	a0,28(zero) # 1c <_l1_preload_size>
1c004f12:	bfd5                	j	1c004f06 <rt_event_enqueue+0x16>

1c004f14 <pi_task_wait_on.isra.4>:
1c004f14:	1141                	addi	sp,sp,-16
1c004f16:	c422                	sw	s0,8(sp)
1c004f18:	c226                	sw	s1,4(sp)
1c004f1a:	c606                	sw	ra,12(sp)
1c004f1c:	c04a                	sw	s2,0(sp)
1c004f1e:	842a                	mv	s0,a0
1c004f20:	00040783          	lb	a5,0(s0)
1c004f24:	c799                	beqz	a5,1c004f32 <pi_task_wait_on.isra.4+0x1e>
1c004f26:	40b2                	lw	ra,12(sp)
1c004f28:	4422                	lw	s0,8(sp)
1c004f2a:	4492                	lw	s1,4(sp)
1c004f2c:	4902                	lw	s2,0(sp)
1c004f2e:	0141                	addi	sp,sp,16
1c004f30:	8082                	ret
1c004f32:	30047973          	csrrci	s2,mstatus,8
1c004f36:	4585                	li	a1,1
1c004f38:	01c00513          	li	a0,28
1c004f3c:	de5fe0ef          	jal	ra,1c003d20 <__rt_event_execute>
1c004f40:	30091073          	csrw	mstatus,s2
1c004f44:	bff1                	j	1c004f20 <pi_task_wait_on.isra.4+0xc>

1c004f46 <__pi_hyper_pin_settings>:
1c004f46:	1141                	addi	sp,sp,-16
1c004f48:	c422                	sw	s0,8(sp)
1c004f4a:	1c007437          	lui	s0,0x1c007
1c004f4e:	79840413          	addi	s0,s0,1944 # 1c007798 <__hyper_pad>
1c004f52:	c226                	sw	s1,4(sp)
1c004f54:	c606                	sw	ra,12(sp)
1c004f56:	03440493          	addi	s1,s0,52
1c004f5a:	0044250b          	p.lw	a0,4(s0!)
1c004f5e:	458d                	li	a1,3
1c004f60:	f2bff0ef          	jal	ra,1c004e8a <pi_pad_set_function>
1c004f64:	fe941be3          	bne	s0,s1,1c004f5a <__pi_hyper_pin_settings+0x14>
1c004f68:	40b2                	lw	ra,12(sp)
1c004f6a:	4422                	lw	s0,8(sp)
1c004f6c:	4492                	lw	s1,4(sp)
1c004f6e:	0141                	addi	sp,sp,16
1c004f70:	8082                	ret

1c004f72 <__pi_hyper_pin_reset_settings>:
1c004f72:	1141                	addi	sp,sp,-16
1c004f74:	c422                	sw	s0,8(sp)
1c004f76:	1c007437          	lui	s0,0x1c007
1c004f7a:	79840413          	addi	s0,s0,1944 # 1c007798 <__hyper_pad>
1c004f7e:	c226                	sw	s1,4(sp)
1c004f80:	c606                	sw	ra,12(sp)
1c004f82:	03440493          	addi	s1,s0,52
1c004f86:	0044250b          	p.lw	a0,4(s0!)
1c004f8a:	4581                	li	a1,0
1c004f8c:	effff0ef          	jal	ra,1c004e8a <pi_pad_set_function>
1c004f90:	fe941be3          	bne	s0,s1,1c004f86 <__pi_hyper_pin_reset_settings+0x14>
1c004f94:	40b2                	lw	ra,12(sp)
1c004f96:	4422                	lw	s0,8(sp)
1c004f98:	4492                	lw	s1,4(sp)
1c004f9a:	0141                	addi	sp,sp,16
1c004f9c:	8082                	ret

1c004f9e <pi_hyper_conf_init>:
1c004f9e:	57fd                	li	a5,-1
1c004fa0:	00f50223          	sb	a5,4(a0)
1c004fa4:	4785                	li	a5,1
1c004fa6:	c55c                	sw	a5,12(a0)
1c004fa8:	00052423          	sw	zero,8(a0)
1c004fac:	8082                	ret

1c004fae <pi_hyper_open>:
1c004fae:	1141                	addi	sp,sp,-16
1c004fb0:	c422                	sw	s0,8(sp)
1c004fb2:	c04a                	sw	s2,0(sp)
1c004fb4:	842a                	mv	s0,a0
1c004fb6:	00452903          	lw	s2,4(a0)
1c004fba:	4541                	li	a0,16
1c004fbc:	c606                	sw	ra,12(sp)
1c004fbe:	c226                	sw	s1,4(sp)
1c004fc0:	fddfe0ef          	jal	ra,1c003f9c <pi_l2_malloc>
1c004fc4:	c115                	beqz	a0,1c004fe8 <pi_hyper_open+0x3a>
1c004fc6:	00c92783          	lw	a5,12(s2)
1c004fca:	84aa                	mv	s1,a0
1c004fcc:	0217b063          	p.bneimm	a5,1,1c004fec <pi_hyper_open+0x3e>
1c004fd0:	000f4637          	lui	a2,0xf4
1c004fd4:	24060613          	addi	a2,a2,576 # f4240 <__L2+0x74240>
1c004fd8:	4581                	li	a1,0
1c004fda:	1d5000ef          	jal	ra,1c0059ae <rt_extern_alloc_init>
1c004fde:	c519                	beqz	a0,1c004fec <pi_hyper_open+0x3e>
1c004fe0:	45c1                	li	a1,16
1c004fe2:	8526                	mv	a0,s1
1c004fe4:	fc5fe0ef          	jal	ra,1c003fa8 <pi_l2_free>
1c004fe8:	557d                	li	a0,-1
1c004fea:	a0f1                	j	1c0050b6 <pi_hyper_open+0x108>
1c004fec:	478d                	li	a5,3
1c004fee:	c0dc                	sw	a5,4(s1)
1c004ff0:	00892783          	lw	a5,8(s2)
1c004ff4:	c49c                	sw	a5,8(s1)
1c004ff6:	00c92783          	lw	a5,12(s2)
1c004ffa:	c4dc                	sw	a5,12(s1)
1c004ffc:	1c0087b7          	lui	a5,0x1c008
1c005000:	edc78793          	addi	a5,a5,-292 # 1c007edc <__rt_hyper_open_count>
1c005004:	4398                	lw	a4,0(a5)
1c005006:	00170693          	addi	a3,a4,1
1c00500a:	c394                	sw	a3,0(a5)
1c00500c:	e739                	bnez	a4,1c00505a <pi_hyper_open+0xac>
1c00500e:	1a1067b7          	lui	a5,0x1a106
1c005012:	0087a703          	lw	a4,8(a5) # 1a106008 <__l1_end+0xa105fe8>
1c005016:	c0673733          	p.bclr	a4,a4,0,6
1c00501a:	00e7a423          	sw	a4,8(a5)
1c00501e:	0087a703          	lw	a4,8(a5)
1c005022:	c0773733          	p.bclr	a4,a4,0,7
1c005026:	00e7a423          	sw	a4,8(a5)
1c00502a:	1a1027b7          	lui	a5,0x1a102
1c00502e:	78078793          	addi	a5,a5,1920 # 1a102780 <__l1_end+0xa102760>
1c005032:	4398                	lw	a4,0(a5)
1c005034:	c0374733          	p.bset	a4,a4,0,3
1c005038:	c398                	sw	a4,0(a5)
1c00503a:	1c0007b7          	lui	a5,0x1c000
1c00503e:	4c878793          	addi	a5,a5,1224 # 1c0004c8 <__rt_hyper_handle_copy>
1c005042:	10f02623          	sw	a5,268(zero) # 10c <periph_channels+0xdc>
1c005046:	0e002823          	sw	zero,240(zero) # f0 <periph_channels+0xc0>
1c00504a:	12f02623          	sw	a5,300(zero) # 12c <periph_channels+0xfc>
1c00504e:	10002823          	sw	zero,272(zero) # 110 <periph_channels+0xe0>
1c005052:	30f02423          	sw	a5,776(zero) # 308 <__rt_hyper_udma_handle>
1c005056:	ef1ff0ef          	jal	ra,1c004f46 <__pi_hyper_pin_settings>
1c00505a:	00c92783          	lw	a5,12(s2)
1c00505e:	00892703          	lw	a4,8(s2)
1c005062:	17fd                	addi	a5,a5,-1
1c005064:	0017b793          	seqz	a5,a5
1c005068:	078a                	slli	a5,a5,0x2
1c00506a:	ef21                	bnez	a4,1c0050c2 <pi_hyper_open+0x114>
1c00506c:	1a102737          	lui	a4,0x1a102
1c005070:	1b470613          	addi	a2,a4,436 # 1a1021b4 <__l1_end+0xa102194>
1c005074:	4214                	lw	a3,0(a2)
1c005076:	6591                	lui	a1,0x4
1c005078:	fff58513          	addi	a0,a1,-1 # 3fff <__rt_stack_size+0x37ff>
1c00507c:	73b6f693          	andi	a3,a3,1851
1c005080:	8fd5                	or	a5,a5,a3
1c005082:	c21c                	sw	a5,0(a2)
1c005084:	1a870793          	addi	a5,a4,424
1c005088:	4394                	lw	a3,0(a5)
1c00508a:	f0058593          	addi	a1,a1,-256
1c00508e:	8ee9                	and	a3,a3,a0
1c005090:	8eed                	and	a3,a3,a1
1c005092:	1006c6b3          	p.exths	a3,a3
1c005096:	c394                	sw	a3,0(a5)
1c005098:	4214                	lw	a3,0(a2)
1c00509a:	7376f693          	andi	a3,a3,1847
1c00509e:	c214                	sw	a3,0(a2)
1c0050a0:	4398                	lw	a4,0(a5)
1c0050a2:	668d                	lui	a3,0x3
1c0050a4:	0ff68693          	addi	a3,a3,255 # 30ff <__rt_stack_size+0x28ff>
1c0050a8:	8f69                	and	a4,a4,a0
1c0050aa:	8f75                	and	a4,a4,a3
1c0050ac:	c4874733          	p.bset	a4,a4,2,8
1c0050b0:	c398                	sw	a4,0(a5)
1c0050b2:	c404                	sw	s1,8(s0)
1c0050b4:	4501                	li	a0,0
1c0050b6:	40b2                	lw	ra,12(sp)
1c0050b8:	4422                	lw	s0,8(sp)
1c0050ba:	4492                	lw	s1,4(sp)
1c0050bc:	4902                	lw	s2,0(sp)
1c0050be:	0141                	addi	sp,sp,16
1c0050c0:	8082                	ret
1c0050c2:	1a102737          	lui	a4,0x1a102
1c0050c6:	1c470613          	addi	a2,a4,452 # 1a1021c4 <__l1_end+0xa1021a4>
1c0050ca:	4214                	lw	a3,0(a2)
1c0050cc:	1b870713          	addi	a4,a4,440
1c0050d0:	03b6f693          	andi	a3,a3,59
1c0050d4:	8fd5                	or	a5,a5,a3
1c0050d6:	c21c                	sw	a5,0(a2)
1c0050d8:	431c                	lw	a5,0(a4)
1c0050da:	6691                	lui	a3,0x4
1c0050dc:	fff68593          	addi	a1,a3,-1 # 3fff <__rt_stack_size+0x37ff>
1c0050e0:	8fed                	and	a5,a5,a1
1c0050e2:	f0068693          	addi	a3,a3,-256
1c0050e6:	8ff5                	and	a5,a5,a3
1c0050e8:	c007c7b3          	p.bset	a5,a5,0,0
1c0050ec:	1007c7b3          	p.exths	a5,a5
1c0050f0:	c31c                	sw	a5,0(a4)
1c0050f2:	4214                	lw	a3,0(a2)
1c0050f4:	0376f693          	andi	a3,a3,55
1c0050f8:	c214                	sw	a3,0(a2)
1c0050fa:	431c                	lw	a5,0(a4)
1c0050fc:	668d                	lui	a3,0x3
1c0050fe:	0ff68693          	addi	a3,a3,255 # 30ff <__rt_stack_size+0x28ff>
1c005102:	8fed                	and	a5,a5,a1
1c005104:	8ff5                	and	a5,a5,a3
1c005106:	c487c7b3          	p.bset	a5,a5,2,8
1c00510a:	c31c                	sw	a5,0(a4)
1c00510c:	b75d                	j	1c0050b2 <pi_hyper_open+0x104>

1c00510e <pi_hyper_close>:
1c00510e:	1c008737          	lui	a4,0x1c008
1c005112:	edc70713          	addi	a4,a4,-292 # 1c007edc <__rt_hyper_open_count>
1c005116:	431c                	lw	a5,0(a4)
1c005118:	1141                	addi	sp,sp,-16
1c00511a:	c422                	sw	s0,8(sp)
1c00511c:	c606                	sw	ra,12(sp)
1c00511e:	17fd                	addi	a5,a5,-1
1c005120:	c31c                	sw	a5,0(a4)
1c005122:	4500                	lw	s0,8(a0)
1c005124:	e7ad                	bnez	a5,1c00518e <pi_hyper_close+0x80>
1c005126:	404c                	lw	a1,4(s0)
1c005128:	47fd                	li	a5,31
1c00512a:	00159693          	slli	a3,a1,0x1
1c00512e:	06d7dd63          	ble	a3,a5,1c0051a8 <pi_hyper_close+0x9a>
1c005132:	fe068513          	addi	a0,a3,-32
1c005136:	4611                	li	a2,4
1c005138:	1a1067b7          	lui	a5,0x1a106
1c00513c:	20c7f803          	p.lw	a6,a2(a5)
1c005140:	4705                	li	a4,1
1c005142:	00a71733          	sll	a4,a4,a0
1c005146:	01076733          	or	a4,a4,a6
1c00514a:	00e7e623          	p.sw	a4,a2(a5)
1c00514e:	00168713          	addi	a4,a3,1
1c005152:	47fd                	li	a5,31
1c005154:	4621                	li	a2,8
1c005156:	00e7d563          	ble	a4,a5,1c005160 <pi_hyper_close+0x52>
1c00515a:	fe168713          	addi	a4,a3,-31
1c00515e:	4611                	li	a2,4
1c005160:	1a1066b7          	lui	a3,0x1a106
1c005164:	20c6f503          	p.lw	a0,a2(a3)
1c005168:	4785                	li	a5,1
1c00516a:	00e79733          	sll	a4,a5,a4
1c00516e:	8f49                	or	a4,a4,a0
1c005170:	00e6e623          	p.sw	a4,a2(a3)
1c005174:	1a102737          	lui	a4,0x1a102
1c005178:	78070713          	addi	a4,a4,1920 # 1a102780 <__l1_end+0xa102760>
1c00517c:	4314                	lw	a3,0(a4)
1c00517e:	00b797b3          	sll	a5,a5,a1
1c005182:	fff7c793          	not	a5,a5
1c005186:	8ff5                	and	a5,a5,a3
1c005188:	c31c                	sw	a5,0(a4)
1c00518a:	de9ff0ef          	jal	ra,1c004f72 <__pi_hyper_pin_reset_settings>
1c00518e:	445c                	lw	a5,12(s0)
1c005190:	0017b563          	p.bneimm	a5,1,1c00519a <pi_hyper_close+0x8c>
1c005194:	8522                	mv	a0,s0
1c005196:	071000ef          	jal	ra,1c005a06 <rt_extern_alloc_deinit>
1c00519a:	8522                	mv	a0,s0
1c00519c:	4422                	lw	s0,8(sp)
1c00519e:	40b2                	lw	ra,12(sp)
1c0051a0:	45c1                	li	a1,16
1c0051a2:	0141                	addi	sp,sp,16
1c0051a4:	e05fe06f          	j	1c003fa8 <pi_l2_free>
1c0051a8:	8536                	mv	a0,a3
1c0051aa:	4621                	li	a2,8
1c0051ac:	b771                	j	1c005138 <pi_hyper_close+0x2a>

1c0051ae <__pi_hyper_copy_aligned>:
1c0051ae:	40155793          	srai	a5,a0,0x1
1c0051b2:	1a102837          	lui	a6,0x1a102
1c0051b6:	079e                	slli	a5,a5,0x7
1c0051b8:	0512                	slli	a0,a0,0x4
1c0051ba:	97c2                	add	a5,a5,a6
1c0051bc:	8941                	andi	a0,a0,16
1c0051be:	953e                	add	a0,a0,a5
1c0051c0:	20000813          	li	a6,512
1c0051c4:	30800793          	li	a5,776
1c0051c8:	02d87c63          	bleu	a3,a6,1c005200 <__pi_hyper_copy_aligned+0x52>
1c0051cc:	cbd4                	sw	a3,20(a5)
1c0051ce:	1c0006b7          	lui	a3,0x1c000
1c0051d2:	56068693          	addi	a3,a3,1376 # 1c000560 <__rt_hyper_handle_burst>
1c0051d6:	c394                	sw	a3,0(a5)
1c0051d8:	c3c8                	sw	a0,4(a5)
1c0051da:	c790                	sw	a2,8(a5)
1c0051dc:	c7cc                	sw	a1,12(a5)
1c0051de:	0107a823          	sw	a6,16(a5) # 1a106010 <__l1_end+0xa105ff0>
1c0051e2:	20000693          	li	a3,512
1c0051e6:	cf98                	sw	a4,24(a5)
1c0051e8:	1a1027b7          	lui	a5,0x1a102
1c0051ec:	1ac7a023          	sw	a2,416(a5) # 1a1021a0 <__l1_end+0xa102180>
1c0051f0:	00b52023          	sw	a1,0(a0)
1c0051f4:	00d52223          	sw	a3,4(a0)
1c0051f8:	47c1                	li	a5,16
1c0051fa:	00f52423          	sw	a5,8(a0)
1c0051fe:	8082                	ret
1c005200:	0007a823          	sw	zero,16(a5)
1c005204:	b7cd                	j	1c0051e6 <__pi_hyper_copy_aligned+0x38>

1c005206 <__pi_hyper_copy_exec>:
1c005206:	30800813          	li	a6,776
1c00520a:	00e82e23          	sw	a4,28(a6) # 1a10201c <__l1_end+0xa101ffc>
1c00520e:	fa25b833          	p.bclr	a6,a1,29,2
1c005212:	30800793          	li	a5,776
1c005216:	02081463          	bnez	a6,1c00523e <__pi_hyper_copy_exec+0x38>
1c00521a:	fc163833          	p.bclr	a6,a2,30,1
1c00521e:	02081063          	bnez	a6,1c00523e <__pi_hyper_copy_exec+0x38>
1c005222:	fa26b833          	p.bclr	a6,a3,29,2
1c005226:	00080a63          	beqz	a6,1c00523a <__pi_hyper_copy_exec+0x34>
1c00522a:	fc153833          	p.bclr	a6,a0,30,1
1c00522e:	00080863          	beqz	a6,1c00523e <__pi_hyper_copy_exec+0x38>
1c005232:	fc16b833          	p.bclr	a6,a3,30,1
1c005236:	00081463          	bnez	a6,1c00523e <__pi_hyper_copy_exec+0x38>
1c00523a:	f75ff06f          	j	1c0051ae <__pi_hyper_copy_aligned>
1c00523e:	d388                	sw	a0,32(a5)
1c005240:	853a                	mv	a0,a4
1c005242:	d3d0                	sw	a2,36(a5)
1c005244:	d78c                	sw	a1,40(a5)
1c005246:	d7d4                	sw	a3,44(a5)
1c005248:	02078823          	sb	zero,48(a5)
1c00524c:	dbd8                	sw	a4,52(a5)
1c00524e:	aa31                	j	1c00536a <__pi_hyper_copy_misaligned>

1c005250 <__pi_hyper_copy>:
1c005250:	1141                	addi	sp,sp,-16
1c005252:	c606                	sw	ra,12(sp)
1c005254:	c422                	sw	s0,8(sp)
1c005256:	30047473          	csrrci	s0,mstatus,8
1c00525a:	c781                	beqz	a5,1c005262 <__pi_hyper_copy+0x12>
1c00525c:	010007b7          	lui	a5,0x1000
1c005260:	963e                	add	a2,a2,a5
1c005262:	30800813          	li	a6,776
1c005266:	01c82803          	lw	a6,28(a6)
1c00526a:	30800793          	li	a5,776
1c00526e:	02080963          	beqz	a6,1c0052a0 <__pi_hyper_copy+0x50>
1c005272:	0387a803          	lw	a6,56(a5) # 1000038 <__L2+0xf80038>
1c005276:	02080363          	beqz	a6,1c00529c <__pi_hyper_copy+0x4c>
1c00527a:	03c7a803          	lw	a6,60(a5)
1c00527e:	00e82e23          	sw	a4,28(a6)
1c005282:	dfd8                	sw	a4,60(a5)
1c005284:	00072e23          	sw	zero,28(a4)
1c005288:	df08                	sw	a0,56(a4)
1c00528a:	df4c                	sw	a1,60(a4)
1c00528c:	c330                	sw	a2,64(a4)
1c00528e:	c374                	sw	a3,68(a4)
1c005290:	30041073          	csrw	mstatus,s0
1c005294:	40b2                	lw	ra,12(sp)
1c005296:	4422                	lw	s0,8(sp)
1c005298:	0141                	addi	sp,sp,16
1c00529a:	8082                	ret
1c00529c:	df98                	sw	a4,56(a5)
1c00529e:	b7d5                	j	1c005282 <__pi_hyper_copy+0x32>
1c0052a0:	f67ff0ef          	jal	ra,1c005206 <__pi_hyper_copy_exec>
1c0052a4:	b7f5                	j	1c005290 <__pi_hyper_copy+0x40>

1c0052a6 <pi_hyper_read_async>:
1c0052a6:	451c                	lw	a5,8(a0)
1c0052a8:	00070a23          	sb	zero,20(a4)
1c0052ac:	8832                	mv	a6,a2
1c0052ae:	43c8                	lw	a0,4(a5)
1c0052b0:	479c                	lw	a5,8(a5)
1c0052b2:	862e                	mv	a2,a1
1c0052b4:	0506                	slli	a0,a0,0x1
1c0052b6:	85c2                	mv	a1,a6
1c0052b8:	f99ff06f          	j	1c005250 <__pi_hyper_copy>

1c0052bc <pi_hyper_read>:
1c0052bc:	7175                	addi	sp,sp,-144
1c0052be:	4785                	li	a5,1
1c0052c0:	870a                	mv	a4,sp
1c0052c2:	c706                	sw	ra,140(sp)
1c0052c4:	cc3e                	sw	a5,24(sp)
1c0052c6:	d43e                	sw	a5,40(sp)
1c0052c8:	c202                	sw	zero,4(sp)
1c0052ca:	00010a23          	sb	zero,20(sp)
1c0052ce:	fd9ff0ef          	jal	ra,1c0052a6 <pi_hyper_read_async>
1c0052d2:	0848                	addi	a0,sp,20
1c0052d4:	c41ff0ef          	jal	ra,1c004f14 <pi_task_wait_on.isra.4>
1c0052d8:	40ba                	lw	ra,140(sp)
1c0052da:	6149                	addi	sp,sp,144
1c0052dc:	8082                	ret

1c0052de <pi_hyper_write_async>:
1c0052de:	451c                	lw	a5,8(a0)
1c0052e0:	00070a23          	sb	zero,20(a4)
1c0052e4:	8832                	mv	a6,a2
1c0052e6:	43c8                	lw	a0,4(a5)
1c0052e8:	479c                	lw	a5,8(a5)
1c0052ea:	862e                	mv	a2,a1
1c0052ec:	0506                	slli	a0,a0,0x1
1c0052ee:	85c2                	mv	a1,a6
1c0052f0:	0505                	addi	a0,a0,1
1c0052f2:	f5fff06f          	j	1c005250 <__pi_hyper_copy>

1c0052f6 <pi_hyper_write>:
1c0052f6:	7175                	addi	sp,sp,-144
1c0052f8:	4785                	li	a5,1
1c0052fa:	870a                	mv	a4,sp
1c0052fc:	c706                	sw	ra,140(sp)
1c0052fe:	cc3e                	sw	a5,24(sp)
1c005300:	d43e                	sw	a5,40(sp)
1c005302:	c202                	sw	zero,4(sp)
1c005304:	00010a23          	sb	zero,20(sp)
1c005308:	fd7ff0ef          	jal	ra,1c0052de <pi_hyper_write_async>
1c00530c:	0848                	addi	a0,sp,20
1c00530e:	c07ff0ef          	jal	ra,1c004f14 <pi_task_wait_on.isra.4>
1c005312:	40ba                	lw	ra,140(sp)
1c005314:	6149                	addi	sp,sp,144
1c005316:	8082                	ret

1c005318 <exec_pending_task>:
1c005318:	30800793          	li	a5,776
1c00531c:	5f98                	lw	a4,56(a5)
1c00531e:	c729                	beqz	a4,1c005368 <exec_pending_task+0x50>
1c005320:	4f54                	lw	a3,28(a4)
1c005322:	03872803          	lw	a6,56(a4)
1c005326:	5f4c                	lw	a1,60(a4)
1c005328:	df94                	sw	a3,56(a5)
1c00532a:	ee883533          	p.bclr	a0,a6,23,8
1c00532e:	ce881833          	p.extractu	a6,a6,7,8
1c005332:	4330                	lw	a2,64(a4)
1c005334:	4374                	lw	a3,68(a4)
1c005336:	00081463          	bnez	a6,1c00533e <exec_pending_task+0x26>
1c00533a:	ecdff06f          	j	1c005206 <__pi_hyper_copy_exec>
1c00533e:	04c72803          	lw	a6,76(a4)
1c005342:	04872883          	lw	a7,72(a4)
1c005346:	d388                	sw	a0,32(a5)
1c005348:	d3d0                	sw	a2,36(a5)
1c00534a:	853a                	mv	a0,a4
1c00534c:	0506d633          	p.minu	a2,a3,a6
1c005350:	cfd8                	sw	a4,28(a5)
1c005352:	d78c                	sw	a1,40(a5)
1c005354:	d7d0                	sw	a2,44(a5)
1c005356:	02078823          	sb	zero,48(a5)
1c00535a:	dbd8                	sw	a4,52(a5)
1c00535c:	c3b4                	sw	a3,64(a5)
1c00535e:	0507a223          	sw	a6,68(a5)
1c005362:	0517a423          	sw	a7,72(a5)
1c005366:	a011                	j	1c00536a <__pi_hyper_copy_misaligned>
1c005368:	8082                	ret

1c00536a <__pi_hyper_copy_misaligned>:
1c00536a:	7179                	addi	sp,sp,-48
1c00536c:	d422                	sw	s0,40(sp)
1c00536e:	30800793          	li	a5,776
1c005372:	ce4e                	sw	s3,28(sp)
1c005374:	89aa                	mv	s3,a0
1c005376:	5388                	lw	a0,32(a5)
1c005378:	d606                	sw	ra,44(sp)
1c00537a:	d226                	sw	s1,36(sp)
1c00537c:	d04a                	sw	s2,32(sp)
1c00537e:	cc52                	sw	s4,24(sp)
1c005380:	ca56                	sw	s5,20(sp)
1c005382:	c85a                	sw	s6,16(sp)
1c005384:	c65e                	sw	s7,12(sp)
1c005386:	c462                	sw	s8,8(sp)
1c005388:	fc1537b3          	p.bclr	a5,a0,30,1
1c00538c:	30800413          	li	s0,776
1c005390:	e7a1                	bnez	a5,1c0053d8 <__pi_hyper_copy_misaligned+0x6e>
1c005392:	1c008c37          	lui	s8,0x1c008
1c005396:	cc0c0913          	addi	s2,s8,-832 # 1c007cc0 <__pi_hyper_temp_buffer>
1c00539a:	4a0d                	li	s4,3
1c00539c:	07c00a93          	li	s5,124
1c0053a0:	00190b13          	addi	s6,s2,1
1c0053a4:	5408                	lw	a0,40(s0)
1c0053a6:	5444                	lw	s1,44(s0)
1c0053a8:	5050                	lw	a2,36(s0)
1c0053aa:	00350793          	addi	a5,a0,3
1c0053ae:	c207b7b3          	p.bclr	a5,a5,1,0
1c0053b2:	8f89                	sub	a5,a5,a0
1c0053b4:	8bbe                	mv	s7,a5
1c0053b6:	009a6363          	bltu	s4,s1,1c0053bc <__pi_hyper_copy_misaligned+0x52>
1c0053ba:	8ba6                	mv	s7,s1
1c0053bc:	1c0b8663          	beqz	s7,1c005588 <__pi_hyper_copy_misaligned+0x21e>
1c0053c0:	03044783          	lbu	a5,48(s0)
1c0053c4:	16079f63          	bnez	a5,1c005542 <__pi_hyper_copy_misaligned+0x1d8>
1c0053c8:	4701                	li	a4,0
1c0053ca:	4691                	li	a3,4
1c0053cc:	c0063633          	p.bclr	a2,a2,0,0
1c0053d0:	cc0c0593          	addi	a1,s8,-832
1c0053d4:	5008                	lw	a0,32(s0)
1c0053d6:	a889                	j	1c005428 <__pi_hyper_copy_misaligned+0xbe>
1c0053d8:	540c                	lw	a1,40(s0)
1c0053da:	04442883          	lw	a7,68(s0)
1c0053de:	04842303          	lw	t1,72(s0)
1c0053e2:	00358793          	addi	a5,a1,3
1c0053e6:	5050                	lw	a2,36(s0)
1c0053e8:	5454                	lw	a3,44(s0)
1c0053ea:	4038                	lw	a4,64(s0)
1c0053ec:	c207b7b3          	p.bclr	a5,a5,1,0
1c0053f0:	8f8d                	sub	a5,a5,a1
1c0053f2:	41130333          	sub	t1,t1,a7
1c0053f6:	4801                	li	a6,0
1c0053f8:	4e0d                	li	t3,3
1c0053fa:	84be                	mv	s1,a5
1c0053fc:	00de6363          	bltu	t3,a3,1c005402 <__pi_hyper_copy_misaligned+0x98>
1c005400:	84b6                	mv	s1,a3
1c005402:	c4b5                	beqz	s1,1c00546e <__pi_hyper_copy_misaligned+0x104>
1c005404:	00080563          	beqz	a6,1c00540e <__pi_hyper_copy_misaligned+0xa4>
1c005408:	d050                	sw	a2,36(s0)
1c00540a:	d454                	sw	a3,44(s0)
1c00540c:	c038                	sw	a4,64(s0)
1c00540e:	03044703          	lbu	a4,48(s0)
1c005412:	1c008937          	lui	s2,0x1c008
1c005416:	cc090793          	addi	a5,s2,-832 # 1c007cc0 <__pi_hyper_temp_buffer>
1c00541a:	ef09                	bnez	a4,1c005434 <__pi_hyper_copy_misaligned+0xca>
1c00541c:	4691                	li	a3,4
1c00541e:	c0063633          	p.bclr	a2,a2,0,0
1c005422:	cc090593          	addi	a1,s2,-832
1c005426:	157d                	addi	a0,a0,-1
1c005428:	d87ff0ef          	jal	ra,1c0051ae <__pi_hyper_copy_aligned>
1c00542c:	4785                	li	a5,1
1c00542e:	02f40823          	sb	a5,48(s0)
1c005432:	aa3d                	j	1c005570 <__pi_hyper_copy_misaligned+0x206>
1c005434:	fc163533          	p.bclr	a0,a2,30,1
1c005438:	953e                	add	a0,a0,a5
1c00543a:	8626                	mv	a2,s1
1c00543c:	02040823          	sb	zero,48(s0)
1c005440:	a9dff0ef          	jal	ra,1c004edc <l2_memcpy>
1c005444:	5050                	lw	a2,36(s0)
1c005446:	5008                	lw	a0,32(s0)
1c005448:	4701                	li	a4,0
1c00544a:	4691                	li	a3,4
1c00544c:	c0063633          	p.bclr	a2,a2,0,0
1c005450:	cc090593          	addi	a1,s2,-832
1c005454:	d5bff0ef          	jal	ra,1c0051ae <__pi_hyper_copy_aligned>
1c005458:	505c                	lw	a5,36(s0)
1c00545a:	97a6                	add	a5,a5,s1
1c00545c:	d05c                	sw	a5,36(s0)
1c00545e:	541c                	lw	a5,40(s0)
1c005460:	97a6                	add	a5,a5,s1
1c005462:	d41c                	sw	a5,40(s0)
1c005464:	545c                	lw	a5,44(s0)
1c005466:	409784b3          	sub	s1,a5,s1
1c00546a:	d444                	sw	s1,44(s0)
1c00546c:	a211                	j	1c005570 <__pi_hyper_copy_misaligned+0x206>
1c00546e:	c2d1                	beqz	a3,1c0054f2 <__pi_hyper_copy_misaligned+0x188>
1c005470:	00080563          	beqz	a6,1c00547a <__pi_hyper_copy_misaligned+0x110>
1c005474:	d050                	sw	a2,36(s0)
1c005476:	d454                	sw	a3,44(s0)
1c005478:	c038                	sw	a4,64(s0)
1c00547a:	97b2                	add	a5,a5,a2
1c00547c:	fc17b7b3          	p.bclr	a5,a5,30,1
1c005480:	c206b4b3          	p.bclr	s1,a3,1,0
1c005484:	ef89                	bnez	a5,1c00549e <__pi_hyper_copy_misaligned+0x134>
1c005486:	4701                	li	a4,0
1c005488:	86a6                	mv	a3,s1
1c00548a:	d25ff0ef          	jal	ra,1c0051ae <__pi_hyper_copy_aligned>
1c00548e:	505c                	lw	a5,36(s0)
1c005490:	5454                	lw	a3,44(s0)
1c005492:	97a6                	add	a5,a5,s1
1c005494:	d05c                	sw	a5,36(s0)
1c005496:	541c                	lw	a5,40(s0)
1c005498:	97a6                	add	a5,a5,s1
1c00549a:	d41c                	sw	a5,40(s0)
1c00549c:	a881                	j	1c0054ec <__pi_hyper_copy_misaligned+0x182>
1c00549e:	03044703          	lbu	a4,48(s0)
1c0054a2:	1c008937          	lui	s2,0x1c008
1c0054a6:	cc090793          	addi	a5,s2,-832 # 1c007cc0 <__pi_hyper_temp_buffer>
1c0054aa:	db2d                	beqz	a4,1c00541c <__pi_hyper_copy_misaligned+0xb2>
1c0054ac:	07c00693          	li	a3,124
1c0054b0:	04d4d4b3          	p.minu	s1,s1,a3
1c0054b4:	00178513          	addi	a0,a5,1
1c0054b8:	fff48613          	addi	a2,s1,-1
1c0054bc:	02040823          	sb	zero,48(s0)
1c0054c0:	a1dff0ef          	jal	ra,1c004edc <l2_memcpy>
1c0054c4:	5050                	lw	a2,36(s0)
1c0054c6:	5008                	lw	a0,32(s0)
1c0054c8:	86a6                	mv	a3,s1
1c0054ca:	4701                	li	a4,0
1c0054cc:	c0063633          	p.bclr	a2,a2,0,0
1c0054d0:	cc090593          	addi	a1,s2,-832
1c0054d4:	cdbff0ef          	jal	ra,1c0051ae <__pi_hyper_copy_aligned>
1c0054d8:	505c                	lw	a5,36(s0)
1c0054da:	5454                	lw	a3,44(s0)
1c0054dc:	17fd                	addi	a5,a5,-1
1c0054de:	97a6                	add	a5,a5,s1
1c0054e0:	d05c                	sw	a5,36(s0)
1c0054e2:	541c                	lw	a5,40(s0)
1c0054e4:	0685                	addi	a3,a3,1
1c0054e6:	17fd                	addi	a5,a5,-1
1c0054e8:	97a6                	add	a5,a5,s1
1c0054ea:	d41c                	sw	a5,40(s0)
1c0054ec:	409684b3          	sub	s1,a3,s1
1c0054f0:	bfad                	j	1c00546a <__pi_hyper_copy_misaligned+0x100>
1c0054f2:	e719                	bnez	a4,1c005500 <__pi_hyper_copy_misaligned+0x196>
1c0054f4:	00080c63          	beqz	a6,1c00550c <__pi_hyper_copy_misaligned+0x1a2>
1c0054f8:	d050                	sw	a2,36(s0)
1c0054fa:	02042623          	sw	zero,44(s0)
1c0054fe:	a029                	j	1c005508 <__pi_hyper_copy_misaligned+0x19e>
1c005500:	02e8ea63          	bltu	a7,a4,1c005534 <__pi_hyper_copy_misaligned+0x1ca>
1c005504:	fe081ae3          	bnez	a6,1c0054f8 <__pi_hyper_copy_misaligned+0x18e>
1c005508:	04042023          	sw	zero,64(s0)
1c00550c:	854e                	mv	a0,s3
1c00550e:	02042a23          	sw	zero,52(s0)
1c005512:	00042e23          	sw	zero,28(s0)
1c005516:	9dbff0ef          	jal	ra,1c004ef0 <rt_event_enqueue>
1c00551a:	5422                	lw	s0,40(sp)
1c00551c:	50b2                	lw	ra,44(sp)
1c00551e:	5492                	lw	s1,36(sp)
1c005520:	5902                	lw	s2,32(sp)
1c005522:	49f2                	lw	s3,28(sp)
1c005524:	4a62                	lw	s4,24(sp)
1c005526:	4ad2                	lw	s5,20(sp)
1c005528:	4b42                	lw	s6,16(sp)
1c00552a:	4bb2                	lw	s7,12(sp)
1c00552c:	4c22                	lw	s8,8(sp)
1c00552e:	6145                	addi	sp,sp,48
1c005530:	de9ff06f          	j	1c005318 <exec_pending_task>
1c005534:	41170733          	sub	a4,a4,a7
1c005538:	961a                	add	a2,a2,t1
1c00553a:	4805                	li	a6,1
1c00553c:	04e8d6b3          	p.minu	a3,a7,a4
1c005540:	bd6d                	j	1c0053fa <__pi_hyper_copy_misaligned+0x90>
1c005542:	fc1635b3          	p.bclr	a1,a2,30,1
1c005546:	95ca                	add	a1,a1,s2
1c005548:	865e                	mv	a2,s7
1c00554a:	02040823          	sb	zero,48(s0)
1c00554e:	98fff0ef          	jal	ra,1c004edc <l2_memcpy>
1c005552:	505c                	lw	a5,36(s0)
1c005554:	97de                	add	a5,a5,s7
1c005556:	d05c                	sw	a5,36(s0)
1c005558:	541c                	lw	a5,40(s0)
1c00555a:	97de                	add	a5,a5,s7
1c00555c:	d41c                	sw	a5,40(s0)
1c00555e:	545c                	lw	a5,44(s0)
1c005560:	41778bb3          	sub	s7,a5,s7
1c005564:	03742623          	sw	s7,44(s0)
1c005568:	e20b9ee3          	bnez	s7,1c0053a4 <__pi_hyper_copy_misaligned+0x3a>
1c00556c:	545c                	lw	a5,44(s0)
1c00556e:	c7a5                	beqz	a5,1c0055d6 <__pi_hyper_copy_misaligned+0x26c>
1c005570:	50b2                	lw	ra,44(sp)
1c005572:	5422                	lw	s0,40(sp)
1c005574:	5492                	lw	s1,36(sp)
1c005576:	5902                	lw	s2,32(sp)
1c005578:	49f2                	lw	s3,28(sp)
1c00557a:	4a62                	lw	s4,24(sp)
1c00557c:	4ad2                	lw	s5,20(sp)
1c00557e:	4b42                	lw	s6,16(sp)
1c005580:	4bb2                	lw	s7,12(sp)
1c005582:	4c22                	lw	s8,8(sp)
1c005584:	6145                	addi	sp,sp,48
1c005586:	8082                	ret
1c005588:	d0f5                	beqz	s1,1c00556c <__pi_hyper_copy_misaligned+0x202>
1c00558a:	97b2                	add	a5,a5,a2
1c00558c:	fc17b7b3          	p.bclr	a5,a5,30,1
1c005590:	c204b4b3          	p.bclr	s1,s1,1,0
1c005594:	e791                	bnez	a5,1c0055a0 <__pi_hyper_copy_misaligned+0x236>
1c005596:	85aa                	mv	a1,a0
1c005598:	4701                	li	a4,0
1c00559a:	86a6                	mv	a3,s1
1c00559c:	5008                	lw	a0,32(s0)
1c00559e:	b5f5                	j	1c00548a <__pi_hyper_copy_misaligned+0x120>
1c0055a0:	03044783          	lbu	a5,48(s0)
1c0055a4:	0554d4b3          	p.minu	s1,s1,s5
1c0055a8:	e789                	bnez	a5,1c0055b2 <__pi_hyper_copy_misaligned+0x248>
1c0055aa:	4701                	li	a4,0
1c0055ac:	00448693          	addi	a3,s1,4
1c0055b0:	bd31                	j	1c0053cc <__pi_hyper_copy_misaligned+0x62>
1c0055b2:	8626                	mv	a2,s1
1c0055b4:	85da                	mv	a1,s6
1c0055b6:	02040823          	sb	zero,48(s0)
1c0055ba:	923ff0ef          	jal	ra,1c004edc <l2_memcpy>
1c0055be:	505c                	lw	a5,36(s0)
1c0055c0:	5454                	lw	a3,44(s0)
1c0055c2:	97a6                	add	a5,a5,s1
1c0055c4:	d05c                	sw	a5,36(s0)
1c0055c6:	541c                	lw	a5,40(s0)
1c0055c8:	97a6                	add	a5,a5,s1
1c0055ca:	409684b3          	sub	s1,a3,s1
1c0055ce:	d41c                	sw	a5,40(s0)
1c0055d0:	d444                	sw	s1,44(s0)
1c0055d2:	dcc9                	beqz	s1,1c00556c <__pi_hyper_copy_misaligned+0x202>
1c0055d4:	bbc1                	j	1c0053a4 <__pi_hyper_copy_misaligned+0x3a>
1c0055d6:	4038                	lw	a4,64(s0)
1c0055d8:	db15                	beqz	a4,1c00550c <__pi_hyper_copy_misaligned+0x1a2>
1c0055da:	407c                	lw	a5,68(s0)
1c0055dc:	00e7ff63          	bleu	a4,a5,1c0055fa <__pi_hyper_copy_misaligned+0x290>
1c0055e0:	8f1d                	sub	a4,a4,a5
1c0055e2:	c038                	sw	a4,64(s0)
1c0055e4:	4034                	lw	a3,64(s0)
1c0055e6:	d29d                	beqz	a3,1c00550c <__pi_hyper_copy_misaligned+0x1a2>
1c0055e8:	5058                	lw	a4,36(s0)
1c0055ea:	4430                	lw	a2,72(s0)
1c0055ec:	9732                	add	a4,a4,a2
1c0055ee:	8f1d                	sub	a4,a4,a5
1c0055f0:	04d7d7b3          	p.minu	a5,a5,a3
1c0055f4:	d058                	sw	a4,36(s0)
1c0055f6:	d45c                	sw	a5,44(s0)
1c0055f8:	b375                	j	1c0053a4 <__pi_hyper_copy_misaligned+0x3a>
1c0055fa:	04042023          	sw	zero,64(s0)
1c0055fe:	b7dd                	j	1c0055e4 <__pi_hyper_copy_misaligned+0x27a>

1c005600 <__pi_hyper_copy_2d>:
1c005600:	1141                	addi	sp,sp,-16
1c005602:	c606                	sw	ra,12(sp)
1c005604:	c422                	sw	s0,8(sp)
1c005606:	30047473          	csrrci	s0,mstatus,8
1c00560a:	00088563          	beqz	a7,1c005614 <__pi_hyper_copy_2d+0x14>
1c00560e:	010008b7          	lui	a7,0x1000
1c005612:	9646                	add	a2,a2,a7
1c005614:	30800893          	li	a7,776
1c005618:	01c8ae03          	lw	t3,28(a7) # 100001c <__L2+0xf8001c>
1c00561c:	30800313          	li	t1,776
1c005620:	040e0563          	beqz	t3,1c00566a <__pi_hyper_copy_2d+0x6a>
1c005624:	03832883          	lw	a7,56(t1) # 80000038 <pulp__FC+0x80000039>
1c005628:	02088e63          	beqz	a7,1c005664 <__pi_hyper_copy_2d+0x64>
1c00562c:	03c32883          	lw	a7,60(t1)
1c005630:	0108ae23          	sw	a6,28(a7)
1c005634:	c0854533          	p.bset	a0,a0,0,8
1c005638:	03032e23          	sw	a6,60(t1)
1c00563c:	00082e23          	sw	zero,28(a6)
1c005640:	02a82c23          	sw	a0,56(a6)
1c005644:	02b82e23          	sw	a1,60(a6)
1c005648:	04c82023          	sw	a2,64(a6)
1c00564c:	04d82223          	sw	a3,68(a6)
1c005650:	04e82423          	sw	a4,72(a6)
1c005654:	04f82623          	sw	a5,76(a6)
1c005658:	30041073          	csrw	mstatus,s0
1c00565c:	40b2                	lw	ra,12(sp)
1c00565e:	4422                	lw	s0,8(sp)
1c005660:	0141                	addi	sp,sp,16
1c005662:	8082                	ret
1c005664:	03032c23          	sw	a6,56(t1)
1c005668:	b7f1                	j	1c005634 <__pi_hyper_copy_2d+0x34>
1c00566a:	02a8a023          	sw	a0,32(a7)
1c00566e:	02c8a223          	sw	a2,36(a7)
1c005672:	8542                	mv	a0,a6
1c005674:	04f6d633          	p.minu	a2,a3,a5
1c005678:	0108ae23          	sw	a6,28(a7)
1c00567c:	02b8a423          	sw	a1,40(a7)
1c005680:	02c8a623          	sw	a2,44(a7)
1c005684:	02088823          	sb	zero,48(a7)
1c005688:	0308aa23          	sw	a6,52(a7)
1c00568c:	04d8a023          	sw	a3,64(a7)
1c005690:	04f8a223          	sw	a5,68(a7)
1c005694:	04e8a423          	sw	a4,72(a7)
1c005698:	cd3ff0ef          	jal	ra,1c00536a <__pi_hyper_copy_misaligned>
1c00569c:	bf75                	j	1c005658 <__pi_hyper_copy_2d+0x58>

1c00569e <pi_hyper_read_2d_async>:
1c00569e:	8332                	mv	t1,a2
1c0056a0:	4510                	lw	a2,8(a0)
1c0056a2:	00080a23          	sb	zero,20(a6)
1c0056a6:	4248                	lw	a0,4(a2)
1c0056a8:	00862883          	lw	a7,8(a2)
1c0056ac:	862e                	mv	a2,a1
1c0056ae:	0506                	slli	a0,a0,0x1
1c0056b0:	859a                	mv	a1,t1
1c0056b2:	f4fff06f          	j	1c005600 <__pi_hyper_copy_2d>

1c0056b6 <__rt_hyper_resume_emu_task>:
  __pi_hyper_copy_misaligned(__rt_hyper_pending_emu_task);
1c0056b6:	33c02503          	lw	a0,828(zero) # 33c <__rt_hyper_pending_emu_task>
1c0056ba:	cb1ff06f          	j	1c00536a <__pi_hyper_copy_misaligned>

1c0056be <__rt_hyper_resume_copy>:
  exec_pending_task();
1c0056be:	c5bff06f          	j	1c005318 <exec_pending_task>

1c0056c2 <__rt_hyper_init>:
  __pi_hyper_cluster_reqs_first = NULL;
1c0056c2:	1c008737          	lui	a4,0x1c008
  __rt_hyper_end_task = NULL;
1c0056c6:	30800793          	li	a5,776
  __pi_hyper_cluster_reqs_first = NULL;
1c0056ca:	ec072c23          	sw	zero,-296(a4) # 1c007ed8 <__pi_hyper_cluster_reqs_first>
  __rt_hyper_pending_emu_channel = -1;
1c0056ce:	577d                	li	a4,-1
1c0056d0:	d398                	sw	a4,32(a5)
  __rt_hyper_open_count = 0;
1c0056d2:	1c008737          	lui	a4,0x1c008
  __rt_hyper_end_task = NULL;
1c0056d6:	0007ac23          	sw	zero,24(a5)
  __rt_hyper_current_task = NULL;
1c0056da:	0007ae23          	sw	zero,28(a5)
  __rt_hyper_pending_tasks = NULL;
1c0056de:	0207ac23          	sw	zero,56(a5)
  __rt_hyper_open_count = 0;
1c0056e2:	ec072e23          	sw	zero,-292(a4) # 1c007edc <__rt_hyper_open_count>
  __rt_hyper_pending_emu_size = 0;
1c0056e6:	0207a623          	sw	zero,44(a5)
  __rt_hyper_pending_emu_size_2d = 0;
1c0056ea:	0407a023          	sw	zero,64(a5)
}
1c0056ee:	8082                	ret

1c0056f0 <__pi_gpio_handler>:
  pin = (pin & PI_GPIO_NUM_MASK);
  uint32_t mask = (1 << pin);

  gpio->event_task[pin] = NULL;
  return 0;
}
1c0056f0:	1141                	addi	sp,sp,-16
1c0056f2:	1a1017b7          	lui	a5,0x1a101
1c0056f6:	1c0086b7          	lui	a3,0x1c008
1c0056fa:	c422                	sw	s0,8(sp)
1c0056fc:	4f80                	lw	s0,24(a5)
1c0056fe:	d4068793          	addi	a5,a3,-704 # 1c007d40 <__rt_gpio>
1c005702:	c226                	sw	s1,4(sp)
1c005704:	4bc4                	lw	s1,20(a5)
1c005706:	c606                	sw	ra,12(sp)
1c005708:	c780                	sw	s0,8(a5)
1c00570a:	cc91                	beqz	s1,1c005726 <__pi_gpio_handler+0x36>
1c00570c:	409c                	lw	a5,0(s1)
1c00570e:	8fe1                	and	a5,a5,s0
1c005710:	c781                	beqz	a5,1c005718 <__pi_gpio_handler+0x28>
1c005712:	40dc                	lw	a5,4(s1)
1c005714:	4488                	lw	a0,8(s1)
1c005716:	9782                	jalr	a5
1c005718:	44c4                	lw	s1,12(s1)
1c00571a:	f8ed                	bnez	s1,1c00570c <__pi_gpio_handler+0x1c>
1c00571c:	40b2                	lw	ra,12(sp)
1c00571e:	4422                	lw	s0,8(sp)
1c005720:	4492                	lw	s1,4(sp)
1c005722:	0141                	addi	sp,sp,16
1c005724:	8082                	ret
1c005726:	d4068693          	addi	a3,a3,-704
1c00572a:	46dc                	lw	a5,12(a3)
1c00572c:	4701                	li	a4,0
1c00572e:	8fe1                	and	a5,a5,s0
1c005730:	01c00513          	li	a0,28
1c005734:	d7e5                	beqz	a5,1c00571c <__pi_gpio_handler+0x2c>
1c005736:	fc17b633          	p.bclr	a2,a5,30,1
1c00573a:	c615                	beqz	a2,1c005766 <__pi_gpio_handler+0x76>
1c00573c:	00470613          	addi	a2,a4,4
1c005740:	060a                	slli	a2,a2,0x2
1c005742:	9636                	add	a2,a2,a3
1c005744:	4610                	lw	a2,8(a2)
1c005746:	c205                	beqz	a2,1c005766 <__pi_gpio_handler+0x76>
1c005748:	30047873          	csrrci	a6,mstatus,8
1c00574c:	01c02883          	lw	a7,28(zero) # 1c <_l1_preload_size>
1c005750:	00062023          	sw	zero,0(a2)
1c005754:	00088e63          	beqz	a7,1c005770 <__pi_gpio_handler+0x80>
1c005758:	00452883          	lw	a7,4(a0)
1c00575c:	00c8a023          	sw	a2,0(a7)
1c005760:	c150                	sw	a2,4(a0)
1c005762:	30081073          	csrw	mstatus,a6
1c005766:	0705                	addi	a4,a4,1
1c005768:	8385                	srli	a5,a5,0x1
1c00576a:	0ff77713          	andi	a4,a4,255
1c00576e:	b7d9                	j	1c005734 <__pi_gpio_handler+0x44>
1c005770:	00c02e23          	sw	a2,28(zero) # 1c <_l1_preload_size>
1c005774:	b7f5                	j	1c005760 <__pi_gpio_handler+0x70>

1c005776 <pi_gpio_pin_write>:
1c005776:	4785                	li	a5,1
1c005778:	00b795b3          	sll	a1,a5,a1
1c00577c:	451c                	lw	a5,8(a0)
1c00577e:	4b9c                	lw	a5,16(a5)
1c005780:	8fed                	and	a5,a5,a1
1c005782:	02b79163          	bne	a5,a1,1c0057a4 <pi_gpio_pin_write+0x2e>
1c005786:	1a1016b7          	lui	a3,0x1a101
1c00578a:	06a1                	addi	a3,a3,8
1c00578c:	4298                	lw	a4,0(a3)
1c00578e:	0ff67613          	andi	a2,a2,255
1c005792:	c609                	beqz	a2,1c00579c <pi_gpio_pin_write+0x26>
1c005794:	8fd9                	or	a5,a5,a4
1c005796:	c29c                	sw	a5,0(a3)
1c005798:	4501                	li	a0,0
1c00579a:	8082                	ret
1c00579c:	fff7c793          	not	a5,a5
1c0057a0:	8ff9                	and	a5,a5,a4
1c0057a2:	bfd5                	j	1c005796 <pi_gpio_pin_write+0x20>
1c0057a4:	5555                	li	a0,-11
1c0057a6:	8082                	ret

1c0057a8 <pi_gpio_mask_configure>:
  pulp_write32(ARCHI_GPIO_ADDR + ARCHI_GPIO_PADDIR, value);
}

static inline unsigned int hal_gpio_paddir_get()
{
  return pulp_read32(ARCHI_GPIO_ADDR + ARCHI_GPIO_PADDIR);
1c0057a8:	1a1017b7          	lui	a5,0x1a101
1c0057ac:	439c                	lw	a5,0(a5)
1c0057ae:	fff5c713          	not	a4,a1

int pi_gpio_mask_configure(struct pi_device *device, uint32_t mask, pi_gpio_flags_e flags)
{
  pi_gpio_t *gpio = (pi_gpio_t *) device->data;
  int is_out = flags & PI_GPIO_OUTPUT;
1c0057b2:	8a11                	andi	a2,a2,4
  pi_gpio_t *gpio = (pi_gpio_t *) device->data;
1c0057b4:	4514                	lw	a3,8(a0)
  {
    current |= mask;
  }
  else
  {
    current &= ~mask;
1c0057b6:	00f77533          	and	a0,a4,a5
  if (is_out)
1c0057ba:	c219                	beqz	a2,1c0057c0 <pi_gpio_mask_configure+0x18>
    current |= mask;
1c0057bc:	00f5e533          	or	a0,a1,a5
  pulp_write32(ARCHI_GPIO_ADDR + ARCHI_GPIO_PADDIR, value);
1c0057c0:	1a1017b7          	lui	a5,0x1a101
1c0057c4:	c388                	sw	a0,0(a5)
1c0057c6:	0106a803          	lw	a6,16(a3) # 1a101010 <__l1_end+0xa100ff0>
1c0057ca:	46c8                	lw	a0,12(a3)
  hal_gpio_set_dir(mask, is_out);

  if (is_out)
1c0057cc:	ce01                	beqz	a2,1c0057e4 <pi_gpio_mask_configure+0x3c>
  {
    gpio->input_mask &= ~mask;
    gpio->output_mask |= mask;
1c0057ce:	0105e5b3          	or	a1,a1,a6
  return pulp_read32(ARCHI_GPIO_ADDR + ARCHI_GPIO_EN);
1c0057d2:	07f1                	addi	a5,a5,28
1c0057d4:	ca8c                	sw	a1,16(a3)
1c0057d6:	438c                	lw	a1,0(a5)
    gpio->input_mask &= ~mask;
1c0057d8:	8d79                	and	a0,a0,a4
1c0057da:	c6c8                	sw	a0,12(a3)
    hal_gpio_en_set(hal_gpio_en_get() & ~mask);
1c0057dc:	8f6d                	and	a4,a4,a1
  pulp_write32(ARCHI_GPIO_ADDR + ARCHI_GPIO_EN, value);
1c0057de:	c398                	sw	a4,0(a5)
    gpio->output_mask &= ~mask;
    hal_gpio_en_set(hal_gpio_en_get() | mask);
  }

  return 0;
}
1c0057e0:	4501                	li	a0,0
1c0057e2:	8082                	ret
    gpio->output_mask &= ~mask;
1c0057e4:	01077733          	and	a4,a4,a6
  return pulp_read32(ARCHI_GPIO_ADDR + ARCHI_GPIO_EN);
1c0057e8:	07f1                	addi	a5,a5,28
1c0057ea:	ca98                	sw	a4,16(a3)
1c0057ec:	4398                	lw	a4,0(a5)
    gpio->input_mask |= mask;
1c0057ee:	8d4d                	or	a0,a0,a1
1c0057f0:	c6c8                	sw	a0,12(a3)
    hal_gpio_en_set(hal_gpio_en_get() | mask);
1c0057f2:	8dd9                	or	a1,a1,a4
  pulp_write32(ARCHI_GPIO_ADDR + ARCHI_GPIO_EN, value);
1c0057f4:	c38c                	sw	a1,0(a5)
1c0057f6:	b7ed                	j	1c0057e0 <pi_gpio_mask_configure+0x38>

1c0057f8 <pi_gpio_pin_configure>:
{
1c0057f8:	1101                	addi	sp,sp,-32
1c0057fa:	cc22                	sw	s0,24(sp)
1c0057fc:	ca26                	sw	s1,20(sp)
1c0057fe:	ce06                	sw	ra,28(sp)
1c005800:	84aa                	mv	s1,a0
1c005802:	842e                	mv	s0,a1
  if (pin & PI_GPIO_IS_GPIO_MASK)
1c005804:	0005db63          	bgez	a1,1c00581a <pi_gpio_pin_configure+0x22>
    pi_pad_e pad = ((pin & PI_GPIO_PAD_MASK) >> PI_GPIO_PAD_SHIFT);
1c005808:	4085d513          	srai	a0,a1,0x8
    pi_pad_set_function(pad, PI_PAD_FUNC1);
1c00580c:	0ff57513          	andi	a0,a0,255
1c005810:	4585                	li	a1,1
1c005812:	c632                	sw	a2,12(sp)
1c005814:	e76ff0ef          	jal	ra,1c004e8a <pi_pad_set_function>
1c005818:	4632                	lw	a2,12(sp)
  return pi_gpio_mask_configure(device, 1<<pin, flags);
1c00581a:	4585                	li	a1,1
1c00581c:	008595b3          	sll	a1,a1,s0
}
1c005820:	4462                	lw	s0,24(sp)
1c005822:	40f2                	lw	ra,28(sp)
  return pi_gpio_mask_configure(device, 1<<pin, flags);
1c005824:	8526                	mv	a0,s1
}
1c005826:	44d2                	lw	s1,20(sp)
1c005828:	6105                	addi	sp,sp,32
  return pi_gpio_mask_configure(device, 1<<pin, flags);
1c00582a:	f7fff06f          	j	1c0057a8 <pi_gpio_mask_configure>

1c00582e <__rt_uart_setup>:
}

static inline void plp_uart_tx_enable(int channel)
{
  unsigned int setup = plp_uart_reg_read(channel, UART_SETUP_OFFSET);
  setup |= UART_TX_ENA;
1c00582e:	01254783          	lbu	a5,18(a0)
1c005832:	01054683          	lbu	a3,16(a0)
1c005836:	01154703          	lbu	a4,17(a0)
1c00583a:	4550                	lw	a2,12(a0)
1c00583c:	068e                	slli	a3,a3,0x3
1c00583e:	0786                	slli	a5,a5,0x1
1c005840:	8fd5                	or	a5,a5,a3
1c005842:	8fd9                	or	a5,a5,a4
1c005844:	4709                	li	a4,2
1c005846:	02e64733          	div	a4,a2,a4
1c00584a:	01454683          	lbu	a3,20(a0)
1c00584e:	06a2                	slli	a3,a3,0x8
1c005850:	8fd5                	or	a5,a5,a3
1c005852:	01354683          	lbu	a3,19(a0)
1c005856:	06a6                	slli	a3,a3,0x9
1c005858:	8fd5                	or	a5,a5,a3
1c00585a:	1c0086b7          	lui	a3,0x1c008
1c00585e:	fc46a683          	lw	a3,-60(a3) # 1c007fc4 <__rt_freq_domains>
1c005862:	9736                	add	a4,a4,a3
1c005864:	02c75733          	divu	a4,a4,a2
1c005868:	177d                	addi	a4,a4,-1
1c00586a:	0742                	slli	a4,a4,0x10
1c00586c:	8fd9                	or	a5,a5,a4
1c00586e:	1a102737          	lui	a4,0x1a102
1c005872:	22f72223          	sw	a5,548(a4) # 1a102224 <__l1_end+0xa102204>
1c005876:	8082                	ret

1c005878 <__rt_uart_setfreq_after>:
1c005878:	1c008537          	lui	a0,0x1c008
1c00587c:	afc52783          	lw	a5,-1284(a0) # 1c007afc <__rt_uart>
1c005880:	cb99                	beqz	a5,1c005896 <__rt_uart_setfreq_after+0x1e>
1c005882:	1141                	addi	sp,sp,-16
1c005884:	afc50513          	addi	a0,a0,-1284
1c005888:	c606                	sw	ra,12(sp)
1c00588a:	fa5ff0ef          	jal	ra,1c00582e <__rt_uart_setup>
1c00588e:	40b2                	lw	ra,12(sp)
1c005890:	4501                	li	a0,0
1c005892:	0141                	addi	sp,sp,16
1c005894:	8082                	ret
1c005896:	4501                	li	a0,0
1c005898:	8082                	ret

1c00589a <__rt_uart_wait_tx_done.isra.17>:
1c00589a:	1a102737          	lui	a4,0x1a102
1c00589e:	1141                	addi	sp,sp,-16
1c0058a0:	21870713          	addi	a4,a4,536 # 1a102218 <__l1_end+0xa1021f8>
1c0058a4:	002046b7          	lui	a3,0x204
1c0058a8:	431c                	lw	a5,0(a4)
1c0058aa:	8bc1                	andi	a5,a5,16
1c0058ac:	e38d                	bnez	a5,1c0058ce <__rt_uart_wait_tx_done.isra.17+0x34>
1c0058ae:	1a102737          	lui	a4,0x1a102
1c0058b2:	22070713          	addi	a4,a4,544 # 1a102220 <__l1_end+0xa102200>
1c0058b6:	431c                	lw	a5,0(a4)
1c0058b8:	fc17b7b3          	p.bclr	a5,a5,30,1
1c0058bc:	ffed                	bnez	a5,1c0058b6 <__rt_uart_wait_tx_done.isra.17+0x1c>
1c0058be:	c602                	sw	zero,12(sp)
1c0058c0:	7cf00713          	li	a4,1999
1c0058c4:	47b2                	lw	a5,12(sp)
1c0058c6:	00f75763          	ble	a5,a4,1c0058d4 <__rt_uart_wait_tx_done.isra.17+0x3a>
1c0058ca:	0141                	addi	sp,sp,16
1c0058cc:	8082                	ret
1c0058ce:	0386e783          	p.elw	a5,56(a3) # 204038 <__L2+0x184038>
1c0058d2:	bfd9                	j	1c0058a8 <__rt_uart_wait_tx_done.isra.17+0xe>
1c0058d4:	47b2                	lw	a5,12(sp)
1c0058d6:	0785                	addi	a5,a5,1
1c0058d8:	c63e                	sw	a5,12(sp)
1c0058da:	b7ed                	j	1c0058c4 <__rt_uart_wait_tx_done.isra.17+0x2a>

1c0058dc <__rt_uart_setfreq_before>:
1c0058dc:	1c0087b7          	lui	a5,0x1c008
1c0058e0:	afc7a783          	lw	a5,-1284(a5) # 1c007afc <__rt_uart>
1c0058e4:	c385                	beqz	a5,1c005904 <__rt_uart_setfreq_before+0x28>
1c0058e6:	1141                	addi	sp,sp,-16
1c0058e8:	c606                	sw	ra,12(sp)
1c0058ea:	fb1ff0ef          	jal	ra,1c00589a <__rt_uart_wait_tx_done.isra.17>
1c0058ee:	40b2                	lw	ra,12(sp)
1c0058f0:	005007b7          	lui	a5,0x500
1c0058f4:	1a102737          	lui	a4,0x1a102
1c0058f8:	0799                	addi	a5,a5,6
1c0058fa:	22f72223          	sw	a5,548(a4) # 1a102224 <__l1_end+0xa102204>
1c0058fe:	4501                	li	a0,0
1c005900:	0141                	addi	sp,sp,16
1c005902:	8082                	ret
1c005904:	4501                	li	a0,0
1c005906:	8082                	ret

1c005908 <__pi_uart_init>:
{
  // In case the peripheral clock can dynamically change, we need to be notified
  // when this happens so that we flush pending transfers before updating the frequency
  int err = 0;

  err |= __rt_cbsys_add(RT_CBSYS_PERIPH_SETFREQ_BEFORE, __rt_uart_setfreq_before, NULL);
1c005908:	1c0065b7          	lui	a1,0x1c006
{
1c00590c:	1141                	addi	sp,sp,-16
  err |= __rt_cbsys_add(RT_CBSYS_PERIPH_SETFREQ_BEFORE, __rt_uart_setfreq_before, NULL);
1c00590e:	4601                	li	a2,0
1c005910:	8dc58593          	addi	a1,a1,-1828 # 1c0058dc <__rt_uart_setfreq_before>
1c005914:	4511                	li	a0,4
{
1c005916:	c606                	sw	ra,12(sp)
1c005918:	c422                	sw	s0,8(sp)
1c00591a:	c226                	sw	s1,4(sp)
  err |= __rt_cbsys_add(RT_CBSYS_PERIPH_SETFREQ_BEFORE, __rt_uart_setfreq_before, NULL);
1c00591c:	f17fd0ef          	jal	ra,1c003832 <__rt_cbsys_add>

  err |= __rt_cbsys_add(RT_CBSYS_PERIPH_SETFREQ_AFTER, __rt_uart_setfreq_after, NULL);
1c005920:	1c0065b7          	lui	a1,0x1c006
  err |= __rt_cbsys_add(RT_CBSYS_PERIPH_SETFREQ_BEFORE, __rt_uart_setfreq_before, NULL);
1c005924:	84aa                	mv	s1,a0
  err |= __rt_cbsys_add(RT_CBSYS_PERIPH_SETFREQ_AFTER, __rt_uart_setfreq_after, NULL);
1c005926:	4601                	li	a2,0
1c005928:	87858593          	addi	a1,a1,-1928 # 1c005878 <__rt_uart_setfreq_after>
1c00592c:	4515                	li	a0,5


  for (int i=0; i<ARCHI_UDMA_NB_UART; i++)
  {
    __rt_uart[i].open_count = 0;
1c00592e:	1c008437          	lui	s0,0x1c008
  err |= __rt_cbsys_add(RT_CBSYS_PERIPH_SETFREQ_AFTER, __rt_uart_setfreq_after, NULL);
1c005932:	f01fd0ef          	jal	ra,1c003832 <__rt_cbsys_add>
    __rt_uart[i].open_count = 0;
1c005936:	afc40413          	addi	s0,s0,-1284 # 1c007afc <__rt_uart>
1c00593a:	85a2                	mv	a1,s0
  err |= __rt_cbsys_add(RT_CBSYS_PERIPH_SETFREQ_AFTER, __rt_uart_setfreq_after, NULL);
1c00593c:	8cc9                	or	s1,s1,a0
    __rt_uart[i].open_count = 0;
1c00593e:	0205a42b          	p.sw	zero,40(a1!)
    __rt_udma_channel_init(UDMA_EVENT_ID(ARCHI_UDMA_UART_ID(i))+1, &__rt_uart[i].tx_channel);
1c005942:	4525                	li	a0,9
1c005944:	20f1                	jal	1c005a10 <__rt_udma_channel_init>
    __rt_udma_channel_init(UDMA_EVENT_ID(ARCHI_UDMA_UART_ID(i)), &__rt_uart[i].rx_channel);
1c005946:	01840593          	addi	a1,s0,24
1c00594a:	4521                	li	a0,8
1c00594c:	20d1                	jal	1c005a10 <__rt_udma_channel_init>
  }

  if (err) rt_fatal("Unable to initialize uart driver\n");
1c00594e:	c08d                	beqz	s1,1c005970 <__pi_uart_init+0x68>
  asm("csrr %0, 0x014" : "=r" (hart_id) : );
1c005950:	01402673          	csrr	a2,uhartid
1c005954:	1c007537          	lui	a0,0x1c007
  return (hart_id >> 5) & 0x3f;
1c005958:	40565593          	srai	a1,a2,0x5
1c00595c:	f265b5b3          	p.bclr	a1,a1,25,6
1c005960:	f4563633          	p.bclr	a2,a2,26,5
1c005964:	7cc50513          	addi	a0,a0,1996 # 1c0077cc <__hyper_pad+0x34>
1c005968:	14f000ef          	jal	ra,1c0062b6 <printf>
1c00596c:	0cf000ef          	jal	ra,1c00623a <abort>
}
1c005970:	40b2                	lw	ra,12(sp)
1c005972:	4422                	lw	s0,8(sp)
1c005974:	4492                	lw	s1,4(sp)
1c005976:	0141                	addi	sp,sp,16
1c005978:	8082                	ret

1c00597a <rt_padframe_set>:
  return __builtin_pulp_read_then_spr_bit_clr(reg, val);
1c00597a:	300476f3          	csrrci	a3,mstatus,8

void rt_padframe_set(rt_padframe_profile_t *profile)
{
  int irq = rt_irq_disable();

  unsigned int *config = profile->config;
1c00597e:	4158                	lw	a4,4(a0)
1c005980:	1a1047b7          	lui	a5,0x1a104
1c005984:	14078613          	addi	a2,a5,320 # 1a104140 <__l1_end+0xa104120>

  for (int i=0; i<ARCHI_APB_SOC_PADFUN_NB; i++)
  {
    hal_apb_soc_padfun_set(i, config[i]);
1c005988:	430c                	lw	a1,0(a4)
1c00598a:	c20c                	sw	a1,0(a2)
1c00598c:	434c                	lw	a1,4(a4)
1c00598e:	14478613          	addi	a2,a5,324
1c005992:	14878793          	addi	a5,a5,328
1c005996:	c20c                	sw	a1,0(a2)
1c005998:	4718                	lw	a4,8(a4)
1c00599a:	c398                	sw	a4,0(a5)
  __builtin_pulp_spr_write(reg, val);
1c00599c:	30069073          	csrw	mstatus,a3
  }

  rt_irq_restore(irq);
}
1c0059a0:	8082                	ret

1c0059a2 <__rt_padframe_init>:
  rt_padframe_set(&__rt_padframe_profiles[0]);
1c0059a2:	1c008537          	lui	a0,0x1c008
1c0059a6:	9a850513          	addi	a0,a0,-1624 # 1c0079a8 <__rt_padframe_profiles>
1c0059aa:	fd1ff06f          	j	1c00597a <rt_padframe_set>

1c0059ae <rt_extern_alloc_init>:
  }
  printf("=============================================\n");
}

int rt_extern_alloc_init(rt_extern_alloc_t *a, void *addr, int size)
{
1c0059ae:	1101                	addi	sp,sp,-32
1c0059b0:	c84a                	sw	s2,16(sp)
1c0059b2:	ce06                	sw	ra,28(sp)
1c0059b4:	cc22                	sw	s0,24(sp)
1c0059b6:	ca26                	sw	s1,20(sp)
1c0059b8:	892a                	mv	s2,a0
  if (size)
1c0059ba:	c229                	beqz	a2,1c0059fc <rt_extern_alloc_init+0x4e>
  {
    unsigned int start_addr = ALIGN_UP((int)addr, MIN_CHUNK_SIZE);
1c0059bc:	00758493          	addi	s1,a1,7
1c0059c0:	842e                	mv	s0,a1
  return (rt_alloc_chunk_extern_t *)rt_alloc(RT_ALLOC_FC_DATA, sizeof(rt_alloc_chunk_extern_t));
1c0059c2:	4505                	li	a0,1
1c0059c4:	45b1                	li	a1,12
1c0059c6:	c632                	sw	a2,12(sp)
1c0059c8:	cc6fe0ef          	jal	ra,1c003e8e <rt_alloc>
    unsigned int start_addr = ALIGN_UP((int)addr, MIN_CHUNK_SIZE);
1c0059cc:	c404b4b3          	p.bclr	s1,s1,2,0
    rt_alloc_chunk_extern_t *chunk = __rt_alloc_chunk();
    if (chunk == NULL) return -1;
1c0059d0:	4632                	lw	a2,12(sp)
1c0059d2:	c905                	beqz	a0,1c005a02 <rt_extern_alloc_init+0x54>
    size = size - (start_addr - (unsigned int)addr);
1c0059d4:	9432                	add	s0,s0,a2
1c0059d6:	8c05                	sub	s0,s0,s1
  }
  else
  {
    a->first_free = NULL;
  }
  return 0;
1c0059d8:	4601                	li	a2,0
    if (size > 0) {
1c0059da:	00805a63          	blez	s0,1c0059ee <rt_extern_alloc_init+0x40>
      a->first_free = chunk;
1c0059de:	00a92023          	sw	a0,0(s2)
      chunk->size = ALIGN_DOWN(size, MIN_CHUNK_SIZE);
1c0059e2:	c4043433          	p.bclr	s0,s0,2,0
1c0059e6:	c100                	sw	s0,0(a0)
      chunk->next = NULL;
1c0059e8:	00052223          	sw	zero,4(a0)
      chunk->addr = start_addr;
1c0059ec:	c504                	sw	s1,8(a0)
}
1c0059ee:	40f2                	lw	ra,28(sp)
1c0059f0:	4462                	lw	s0,24(sp)
1c0059f2:	44d2                	lw	s1,20(sp)
1c0059f4:	4942                	lw	s2,16(sp)
1c0059f6:	8532                	mv	a0,a2
1c0059f8:	6105                	addi	sp,sp,32
1c0059fa:	8082                	ret
    a->first_free = NULL;
1c0059fc:	00052023          	sw	zero,0(a0)
1c005a00:	b7fd                	j	1c0059ee <rt_extern_alloc_init+0x40>
    if (chunk == NULL) return -1;
1c005a02:	567d                	li	a2,-1
1c005a04:	b7ed                	j	1c0059ee <rt_extern_alloc_init+0x40>

1c005a06 <rt_extern_alloc_deinit>:
  rt_free(RT_ALLOC_FC_DATA, (void *)pt, sizeof(rt_alloc_chunk_extern_t));
1c005a06:	410c                	lw	a1,0(a0)
1c005a08:	4631                	li	a2,12
1c005a0a:	4505                	li	a0,1
1c005a0c:	cb0fe06f          	j	1c003ebc <rt_free>

1c005a10 <__rt_udma_channel_init>:



void __rt_udma_channel_init(int channel_id, rt_udma_channel_t *channel)
{
  channel->pendings[0] = NULL;
1c005a10:	0005a023          	sw	zero,0(a1)
  channel->pendings[1] = NULL;
1c005a14:	0005a223          	sw	zero,4(a1)
  channel->waitings_first = NULL;
1c005a18:	0005a423          	sw	zero,8(a1)
  __rt_udma_channels[channel_id] = channel;
1c005a1c:	050a                	slli	a0,a0,0x2
1c005a1e:	35400793          	li	a5,852
1c005a22:	00b7e523          	p.sw	a1,a0(a5)
}
1c005a26:	8082                	ret

1c005a28 <__pos_pwm_init>:
static void __attribute__((constructor)) __pos_pwm_init()
{
    for (int i=0; i<ARCHI_PWM_NB; i++)
    {
        pos_pwm_t *pwm = &__pos_pwm[i];
        pwm->open_count = 0;
1c005a28:	1c008737          	lui	a4,0x1c008
1c005a2c:	dd870793          	addi	a5,a4,-552 # 1c007dd8 <__pos_pwm>
1c005a30:	0407aa23          	sw	zero,84(a5)
        pwm->id = i;

        for (int j=0; j<ARCHI_PWM_NB_TIMERS; j++)
1c005a34:	4601                	li	a2,0
        pwm->id = i;
1c005a36:	0007a22b          	p.sw	zero,4(a5!)
1c005a3a:	dd870713          	addi	a4,a4,-552
1c005a3e:	0043d0fb          	lp.setupi	x1,4,1c005a4c <__pos_pwm_init+0x24>
        {
            pos_pwm_timer_t *timer = &pwm->timers[j];
            timer->open_count = 0;
            timer->pwm = pwm;
            timer->id = j;
1c005a42:	c3d0                	sw	a2,4(a5)
            timer->open_count = 0;
1c005a44:	0007a623          	sw	zero,12(a5)
            timer->pwm = pwm;
1c005a48:	c398                	sw	a4,0(a5)
        for (int j=0; j<ARCHI_PWM_NB_TIMERS; j++)
1c005a4a:	0605                	addi	a2,a2,1
1c005a4c:	07d1                	addi	a5,a5,20
        }
    }
}
1c005a4e:	8082                	ret

1c005a50 <__rt_i2s_resume>:
  conf->pdm = 1;
  conf->dual = 0;
  conf->width = 16;
  conf->id = -1;
  conf->flags = 0;
}
1c005a50:	1c0087b7          	lui	a5,0x1c008
1c005a54:	4d18                	lw	a4,24(a0)
1c005a56:	fc47a783          	lw	a5,-60(a5) # 1c007fc4 <__rt_freq_domains>
1c005a5a:	068416b7          	lui	a3,0x6841
1c005a5e:	90968693          	addi	a3,a3,-1783 # 6840909 <__L2+0x67c0909>
1c005a62:	02e7c7b3          	div	a5,a5,a4
1c005a66:	02954703          	lbu	a4,41(a0)
1c005a6a:	177d                	addi	a4,a4,-1
1c005a6c:	c0874733          	p.bset	a4,a4,0,8
1c005a70:	17fd                	addi	a5,a5,-1
1c005a72:	8785                	srai	a5,a5,0x1
1c005a74:	07c2                	slli	a5,a5,0x10
1c005a76:	8fd9                	or	a5,a5,a4
1c005a78:	02554703          	lbu	a4,37(a0)
1c005a7c:	9736                	add	a4,a4,a3
1c005a7e:	070a                	slli	a4,a4,0x2
1c005a80:	c31c                	sw	a5,0(a4)
1c005a82:	8082                	ret

1c005a84 <__rt_i2s_setfreq_after>:
1c005a84:	1141                	addi	sp,sp,-16
1c005a86:	1c0087b7          	lui	a5,0x1c008
1c005a8a:	c422                	sw	s0,8(sp)
1c005a8c:	ee07a403          	lw	s0,-288(a5) # 1c007ee0 <__rt_i2s_first>
1c005a90:	c606                	sw	ra,12(sp)
1c005a92:	e411                	bnez	s0,1c005a9e <__rt_i2s_setfreq_after+0x1a>
1c005a94:	40b2                	lw	ra,12(sp)
1c005a96:	4422                	lw	s0,8(sp)
1c005a98:	4501                	li	a0,0
1c005a9a:	0141                	addi	sp,sp,16
1c005a9c:	8082                	ret
1c005a9e:	02844783          	lbu	a5,40(s0)
1c005aa2:	c781                	beqz	a5,1c005aaa <__rt_i2s_setfreq_after+0x26>
1c005aa4:	8522                	mv	a0,s0
1c005aa6:	fabff0ef          	jal	ra,1c005a50 <__rt_i2s_resume>
1c005aaa:	4c40                	lw	s0,28(s0)
1c005aac:	b7dd                	j	1c005a92 <__rt_i2s_setfreq_after+0xe>

1c005aae <__rt_i2s_setfreq_before>:
1c005aae:	1c0087b7          	lui	a5,0x1c008
1c005ab2:	ee07a783          	lw	a5,-288(a5) # 1c007ee0 <__rt_i2s_first>
1c005ab6:	068416b7          	lui	a3,0x6841
1c005aba:	90968693          	addi	a3,a3,-1783 # 6840909 <__L2+0x67c0909>
1c005abe:	e399                	bnez	a5,1c005ac4 <__rt_i2s_setfreq_before+0x16>
1c005ac0:	4501                	li	a0,0
1c005ac2:	8082                	ret
1c005ac4:	0287c703          	lbu	a4,40(a5)
1c005ac8:	c719                	beqz	a4,1c005ad6 <__rt_i2s_setfreq_before+0x28>
1c005aca:	0257c703          	lbu	a4,37(a5)
1c005ace:	9736                	add	a4,a4,a3
1c005ad0:	070a                	slli	a4,a4,0x2
1c005ad2:	00072023          	sw	zero,0(a4)
1c005ad6:	4fdc                	lw	a5,28(a5)
1c005ad8:	b7dd                	j	1c005abe <__rt_i2s_setfreq_before+0x10>

1c005ada <__rt_i2s_init>:
{
  // In case the peripheral clock can dynamically change, we need to be notified
  // when this happens so that the I2S channels are stopped and resumed
  int err = 0;

  err |= __rt_cbsys_add(RT_CBSYS_PERIPH_SETFREQ_BEFORE, __rt_i2s_setfreq_before, NULL);
1c005ada:	1c0065b7          	lui	a1,0x1c006
{
1c005ade:	1141                	addi	sp,sp,-16
  err |= __rt_cbsys_add(RT_CBSYS_PERIPH_SETFREQ_BEFORE, __rt_i2s_setfreq_before, NULL);
1c005ae0:	4601                	li	a2,0
1c005ae2:	aae58593          	addi	a1,a1,-1362 # 1c005aae <__rt_i2s_setfreq_before>
1c005ae6:	4511                	li	a0,4
{
1c005ae8:	c606                	sw	ra,12(sp)
1c005aea:	c422                	sw	s0,8(sp)
  err |= __rt_cbsys_add(RT_CBSYS_PERIPH_SETFREQ_BEFORE, __rt_i2s_setfreq_before, NULL);
1c005aec:	d47fd0ef          	jal	ra,1c003832 <__rt_cbsys_add>

  err |= __rt_cbsys_add(RT_CBSYS_PERIPH_SETFREQ_AFTER, __rt_i2s_setfreq_after, NULL);
1c005af0:	1c0065b7          	lui	a1,0x1c006
  err |= __rt_cbsys_add(RT_CBSYS_PERIPH_SETFREQ_BEFORE, __rt_i2s_setfreq_before, NULL);
1c005af4:	842a                	mv	s0,a0
  err |= __rt_cbsys_add(RT_CBSYS_PERIPH_SETFREQ_AFTER, __rt_i2s_setfreq_after, NULL);
1c005af6:	4601                	li	a2,0
1c005af8:	a8458593          	addi	a1,a1,-1404 # 1c005a84 <__rt_i2s_setfreq_after>
1c005afc:	4515                	li	a0,5
1c005afe:	d35fd0ef          	jal	ra,1c003832 <__rt_cbsys_add>
1c005b02:	8d41                	or	a0,a0,s0

  if (err) rt_fatal("Unable to initialize i2s driver\n");
1c005b04:	c10d                	beqz	a0,1c005b26 <__rt_i2s_init+0x4c>
  asm("csrr %0, 0x014" : "=r" (hart_id) : );
1c005b06:	01402673          	csrr	a2,uhartid
1c005b0a:	1c008537          	lui	a0,0x1c008
  return (hart_id >> 5) & 0x3f;
1c005b0e:	40565593          	srai	a1,a2,0x5
1c005b12:	f265b5b3          	p.bclr	a1,a1,25,6
1c005b16:	f4563633          	p.bclr	a2,a2,26,5
1c005b1a:	83050513          	addi	a0,a0,-2000 # 1c007830 <__hyper_pad+0x98>
1c005b1e:	798000ef          	jal	ra,1c0062b6 <printf>
1c005b22:	718000ef          	jal	ra,1c00623a <abort>
}
1c005b26:	40b2                	lw	ra,12(sp)
1c005b28:	4422                	lw	s0,8(sp)
1c005b2a:	0141                	addi	sp,sp,16
1c005b2c:	8082                	ret

1c005b2e <__rt_himax_init>:
    .capture   = &__rt_himax_capture
};

RT_FC_BOOT_CODE void __attribute__((constructor)) __rt_himax_init()
{
  camera_isAwaked = 0;
1c005b2e:	1b0017b7          	lui	a5,0x1b001
1c005b32:	c0078423          	sb	zero,-1016(a5) # 1b000c08 <camera_isAwaked>
}
1c005b36:	8082                	ret

1c005b38 <__rt_i2c_init>:

RT_FC_BOOT_CODE void __attribute__((constructor)) __rt_i2c_init()
{
  for (int i=0; i<ARCHI_UDMA_NB_I2C; i++)
  {
    __rt_i2c[i].open_count = 0;
1c005b38:	1c0087b7          	lui	a5,0x1c008
1c005b3c:	b4078793          	addi	a5,a5,-1216 # 1c007b40 <__rt_i2c>
1c005b40:	00078223          	sb	zero,4(a5)
1c005b44:	00078a23          	sb	zero,20(a5)
  }
}
1c005b48:	8082                	ret

1c005b4a <__rt_rtc_init>:
}


RT_FC_BOOT_CODE void __attribute__((constructor)) __rt_rtc_init()
{
  __rtc_handler = NULL;
1c005b4a:	3a800793          	li	a5,936
1c005b4e:	0207ac23          	sw	zero,56(a5)
  dev_rtc.open_count = 0;
1c005b52:	02078823          	sb	zero,48(a5)
  __rt_rtc_init_done = 0;
1c005b56:	0207aa23          	sw	zero,52(a5)
}
1c005b5a:	8082                	ret

1c005b5c <__rt_spim_init>:

RT_FC_BOOT_CODE void __attribute__((constructor)) __rt_spim_init()
{
  for (int i=0; i<ARCHI_UDMA_NB_SPIM; i++)
  {
    __rt_spim_open_count[i] = 0;
1c005b5c:	1c0087b7          	lui	a5,0x1c008
1c005b60:	ee478793          	addi	a5,a5,-284 # 1c007ee4 <__rt_spim_open_count>
1c005b64:	0007a023          	sw	zero,0(a5)
1c005b68:	0007a223          	sw	zero,4(a5)
  }
}
1c005b6c:	8082                	ret

1c005b6e <__rt_io_end_of_flush>:
  if (rt_iodev() == RT_IODEV_UART)
  {
    __rt_io_start(NULL);
    __rt_cbsys_add(RT_CBSYS_STOP, __rt_io_stop, NULL);
    __rt_io_pending_flush = 0;
    rt_event_alloc(NULL, 1);
1c005b6e:	1c0087b7          	lui	a5,0x1c008
1c005b72:	ee07a823          	sw	zero,-272(a5) # 1c007ef0 <__rt_io_pending_flush>
1c005b76:	00052c23          	sw	zero,24(a0)
1c005b7a:	8082                	ret

1c005b7c <__rt_io_uart_wait_req>:
1c005b7c:	1141                	addi	sp,sp,-16
1c005b7e:	c226                	sw	s1,4(sp)
1c005b80:	84aa                	mv	s1,a0
1c005b82:	c606                	sw	ra,12(sp)
1c005b84:	c422                	sw	s0,8(sp)
1c005b86:	c04a                	sw	s2,0(sp)
1c005b88:	30047973          	csrrci	s2,mstatus,8
1c005b8c:	1c008437          	lui	s0,0x1c008
1c005b90:	eec40413          	addi	s0,s0,-276 # 1c007eec <__rt_io_event_current>
1c005b94:	4008                	lw	a0,0(s0)
1c005b96:	c509                	beqz	a0,1c005ba0 <__rt_io_uart_wait_req+0x24>
1c005b98:	a16fe0ef          	jal	ra,1c003dae <rt_event_wait>
1c005b9c:	00042023          	sw	zero,0(s0)
1c005ba0:	4785                	li	a5,1
1c005ba2:	08f48023          	sb	a5,128(s1)
1c005ba6:	0814c783          	lbu	a5,129(s1)
1c005baa:	00201737          	lui	a4,0x201
1c005bae:	e0470713          	addi	a4,a4,-508 # 200e04 <__L2+0x180e04>
1c005bb2:	04078793          	addi	a5,a5,64
1c005bb6:	07da                	slli	a5,a5,0x16
1c005bb8:	0007e723          	p.sw	zero,a4(a5)
1c005bbc:	30091073          	csrw	mstatus,s2
1c005bc0:	40b2                	lw	ra,12(sp)
1c005bc2:	4422                	lw	s0,8(sp)
1c005bc4:	4492                	lw	s1,4(sp)
1c005bc6:	4902                	lw	s2,0(sp)
1c005bc8:	0141                	addi	sp,sp,16
1c005bca:	8082                	ret

1c005bcc <__rt_do_putc_host>:
1c005bcc:	1c008737          	lui	a4,0x1c008
1c005bd0:	ef470793          	addi	a5,a4,-268 # 1c007ef4 <__rt_putc_host_buffer_index>
1c005bd4:	4390                	lw	a2,0(a5)
1c005bd6:	ef470713          	addi	a4,a4,-268
1c005bda:	00160693          	addi	a3,a2,1
1c005bde:	c394                	sw	a3,0(a5)
1c005be0:	1c0087b7          	lui	a5,0x1c008
1c005be4:	b6078593          	addi	a1,a5,-1184 # 1c007b60 <__rt_putc_host_buffer>
1c005be8:	00a5c623          	p.sb	a0,a2(a1)
1c005bec:	07f00593          	li	a1,127
1c005bf0:	b6078613          	addi	a2,a5,-1184
1c005bf4:	00b68463          	beq	a3,a1,1c005bfc <__rt_do_putc_host+0x30>
1c005bf8:	00a53a63          	p.bneimm	a0,10,1c005c0c <__rt_do_putc_host+0x40>
1c005bfc:	b6078513          	addi	a0,a5,-1184
1c005c00:	000646a3          	p.sb	zero,a3(a2)
1c005c04:	00072023          	sw	zero,0(a4)
1c005c08:	82bfd06f          	j	1c003432 <semihost_write0>
1c005c0c:	8082                	ret

1c005c0e <__rt_io_start>:
1c005c0e:	1101                	addi	sp,sp,-32
1c005c10:	0028                	addi	a0,sp,8
1c005c12:	ce06                	sw	ra,28(sp)
1c005c14:	cc22                	sw	s0,24(sp)
1c005c16:	448010ef          	jal	ra,1c00705e <rt_uart_conf_init>
1c005c1a:	4585                	li	a1,1
1c005c1c:	4501                	li	a0,0
1c005c1e:	82efe0ef          	jal	ra,1c003c4c <rt_event_alloc>
1c005c22:	547d                	li	s0,-1
1c005c24:	ed0d                	bnez	a0,1c005c5e <__rt_io_start+0x50>
1c005c26:	1c0087b7          	lui	a5,0x1c008
1c005c2a:	a887a783          	lw	a5,-1400(a5) # 1c007a88 <__rt_iodev_uart_baudrate>
1c005c2e:	842a                	mv	s0,a0
1c005c30:	1c008537          	lui	a0,0x1c008
1c005c34:	01c00593          	li	a1,28
1c005c38:	e3050513          	addi	a0,a0,-464 # 1c007e30 <__rt_io_event>
1c005c3c:	c43e                	sw	a5,8(sp)
1c005c3e:	fcffd0ef          	jal	ra,1c003c0c <__rt_event_init>
1c005c42:	1c0087b7          	lui	a5,0x1c008
1c005c46:	ec87a503          	lw	a0,-312(a5) # 1c007ec8 <__rt_iodev_uart_channel>
1c005c4a:	4681                	li	a3,0
1c005c4c:	4601                	li	a2,0
1c005c4e:	002c                	addi	a1,sp,8
1c005c50:	0511                	addi	a0,a0,4
1c005c52:	41c010ef          	jal	ra,1c00706e <__rt_uart_open>
1c005c56:	1c0087b7          	lui	a5,0x1c008
1c005c5a:	eea7ac23          	sw	a0,-264(a5) # 1c007ef8 <_rt_io_uart>
1c005c5e:	8522                	mv	a0,s0
1c005c60:	40f2                	lw	ra,28(sp)
1c005c62:	4462                	lw	s0,24(sp)
1c005c64:	6105                	addi	sp,sp,32
1c005c66:	8082                	ret

1c005c68 <rt_event_execute.isra.4.constprop.12>:
1c005c68:	1141                	addi	sp,sp,-16
1c005c6a:	c606                	sw	ra,12(sp)
1c005c6c:	c422                	sw	s0,8(sp)
1c005c6e:	30047473          	csrrci	s0,mstatus,8
1c005c72:	4585                	li	a1,1
1c005c74:	01c00513          	li	a0,28
1c005c78:	8a8fe0ef          	jal	ra,1c003d20 <__rt_event_execute>
1c005c7c:	30041073          	csrw	mstatus,s0
1c005c80:	40b2                	lw	ra,12(sp)
1c005c82:	4422                	lw	s0,8(sp)
1c005c84:	0141                	addi	sp,sp,16
1c005c86:	8082                	ret

1c005c88 <__rt_io_lock>:
1c005c88:	1c0087b7          	lui	a5,0x1c008
1c005c8c:	9d07a783          	lw	a5,-1584(a5) # 1c0079d0 <__hal_debug_struct+0x10>
1c005c90:	cf81                	beqz	a5,1c005ca8 <__rt_io_lock+0x20>
1c005c92:	1c0087b7          	lui	a5,0x1c008
1c005c96:	ef87a783          	lw	a5,-264(a5) # 1c007ef8 <_rt_io_uart>
1c005c9a:	e799                	bnez	a5,1c005ca8 <__rt_io_lock+0x20>
1c005c9c:	1c0087b7          	lui	a5,0x1c008
1c005ca0:	a847a783          	lw	a5,-1404(a5) # 1c007a84 <__rt_iodev>
1c005ca4:	0427b963          	p.bneimm	a5,2,1c005cf6 <__rt_io_lock+0x6e>
1c005ca8:	7135                	addi	sp,sp,-160
1c005caa:	014027f3          	csrr	a5,uhartid
1c005cae:	cf06                	sw	ra,156(sp)
1c005cb0:	ca5797b3          	p.extractu	a5,a5,5,5
1c005cb4:	02000713          	li	a4,32
1c005cb8:	1b001537          	lui	a0,0x1b001
1c005cbc:	00e79963          	bne	a5,a4,1c005cce <__rt_io_lock+0x46>
1c005cc0:	c0c50513          	addi	a0,a0,-1012 # 1b000c0c <__rt_io_fc_lock>
1c005cc4:	bfffd0ef          	jal	ra,1c0038c2 <__rt_fc_lock>
1c005cc8:	40fa                	lw	ra,156(sp)
1c005cca:	610d                	addi	sp,sp,160
1c005ccc:	8082                	ret
1c005cce:	004c                	addi	a1,sp,4
1c005cd0:	c0c50513          	addi	a0,a0,-1012
1c005cd4:	c55fd0ef          	jal	ra,1c003928 <__rt_fc_cluster_lock>
1c005cd8:	4689                	li	a3,2
1c005cda:	00204737          	lui	a4,0x204
1c005cde:	08c14783          	lbu	a5,140(sp)
1c005ce2:	0ff7f793          	andi	a5,a5,255
1c005ce6:	f3ed                	bnez	a5,1c005cc8 <__rt_io_lock+0x40>
1c005ce8:	00d72423          	sw	a3,8(a4) # 204008 <__L2+0x184008>
1c005cec:	03c76783          	p.elw	a5,60(a4)
1c005cf0:	00d72223          	sw	a3,4(a4)
1c005cf4:	b7ed                	j	1c005cde <__rt_io_lock+0x56>
1c005cf6:	8082                	ret

1c005cf8 <__rt_putc_host_cluster_req>:
1c005cf8:	1141                	addi	sp,sp,-16
1c005cfa:	c422                	sw	s0,8(sp)
1c005cfc:	c606                	sw	ra,12(sp)
1c005cfe:	842a                	mv	s0,a0
1c005d00:	08954503          	lbu	a0,137(a0)
1c005d04:	ec9ff0ef          	jal	ra,1c005bcc <__rt_do_putc_host>
1c005d08:	08844783          	lbu	a5,136(s0)
1c005d0c:	4705                	li	a4,1
1c005d0e:	08e42223          	sw	a4,132(s0)
1c005d12:	00201737          	lui	a4,0x201
1c005d16:	40b2                	lw	ra,12(sp)
1c005d18:	4422                	lw	s0,8(sp)
1c005d1a:	04078793          	addi	a5,a5,64
1c005d1e:	07da                	slli	a5,a5,0x16
1c005d20:	e0470713          	addi	a4,a4,-508 # 200e04 <__L2+0x180e04>
1c005d24:	0007e723          	p.sw	zero,a4(a5)
1c005d28:	0141                	addi	sp,sp,16
1c005d2a:	8082                	ret

1c005d2c <__rt_io_unlock>:
1c005d2c:	1c0087b7          	lui	a5,0x1c008
1c005d30:	9d07a783          	lw	a5,-1584(a5) # 1c0079d0 <__hal_debug_struct+0x10>
1c005d34:	cf81                	beqz	a5,1c005d4c <__rt_io_unlock+0x20>
1c005d36:	1c0087b7          	lui	a5,0x1c008
1c005d3a:	ef87a783          	lw	a5,-264(a5) # 1c007ef8 <_rt_io_uart>
1c005d3e:	e799                	bnez	a5,1c005d4c <__rt_io_unlock+0x20>
1c005d40:	1c0087b7          	lui	a5,0x1c008
1c005d44:	a847a783          	lw	a5,-1404(a5) # 1c007a84 <__rt_iodev>
1c005d48:	0427b963          	p.bneimm	a5,2,1c005d9a <__rt_io_unlock+0x6e>
1c005d4c:	7135                	addi	sp,sp,-160
1c005d4e:	014027f3          	csrr	a5,uhartid
1c005d52:	cf06                	sw	ra,156(sp)
1c005d54:	ca5797b3          	p.extractu	a5,a5,5,5
1c005d58:	02000713          	li	a4,32
1c005d5c:	1b001537          	lui	a0,0x1b001
1c005d60:	00e79963          	bne	a5,a4,1c005d72 <__rt_io_unlock+0x46>
1c005d64:	c0c50513          	addi	a0,a0,-1012 # 1b000c0c <__rt_io_fc_lock>
1c005d68:	b8dfd0ef          	jal	ra,1c0038f4 <__rt_fc_unlock>
1c005d6c:	40fa                	lw	ra,156(sp)
1c005d6e:	610d                	addi	sp,sp,160
1c005d70:	8082                	ret
1c005d72:	004c                	addi	a1,sp,4
1c005d74:	c0c50513          	addi	a0,a0,-1012
1c005d78:	be9fd0ef          	jal	ra,1c003960 <__rt_fc_cluster_unlock>
1c005d7c:	4689                	li	a3,2
1c005d7e:	00204737          	lui	a4,0x204
1c005d82:	08c14783          	lbu	a5,140(sp)
1c005d86:	0ff7f793          	andi	a5,a5,255
1c005d8a:	f3ed                	bnez	a5,1c005d6c <__rt_io_unlock+0x40>
1c005d8c:	00d72423          	sw	a3,8(a4) # 204008 <__L2+0x184008>
1c005d90:	03c76783          	p.elw	a5,60(a4)
1c005d94:	00d72223          	sw	a3,4(a4)
1c005d98:	b7ed                	j	1c005d82 <__rt_io_unlock+0x56>
1c005d9a:	8082                	ret

1c005d9c <__rt_io_uart_flush.constprop.11>:
1c005d9c:	7171                	addi	sp,sp,-176
1c005d9e:	d522                	sw	s0,168(sp)
1c005da0:	d706                	sw	ra,172(sp)
1c005da2:	d326                	sw	s1,164(sp)
1c005da4:	d14a                	sw	s2,160(sp)
1c005da6:	cf4e                	sw	s3,156(sp)
1c005da8:	cd52                	sw	s4,152(sp)
1c005daa:	1c008437          	lui	s0,0x1c008
1c005dae:	ef042783          	lw	a5,-272(s0) # 1c007ef0 <__rt_io_pending_flush>
1c005db2:	ef040993          	addi	s3,s0,-272
1c005db6:	efad                	bnez	a5,1c005e30 <__rt_io_uart_flush.constprop.11+0x94>
1c005db8:	1c008637          	lui	a2,0x1c008
1c005dbc:	9c060793          	addi	a5,a2,-1600 # 1c0079c0 <__hal_debug_struct>
1c005dc0:	4f80                	lw	s0,24(a5)
1c005dc2:	9c060a13          	addi	s4,a2,-1600
1c005dc6:	cc29                	beqz	s0,1c005e20 <__rt_io_uart_flush.constprop.11+0x84>
1c005dc8:	1c008737          	lui	a4,0x1c008
1c005dcc:	014027f3          	csrr	a5,uhartid
1c005dd0:	ef872483          	lw	s1,-264(a4) # 1c007ef8 <_rt_io_uart>
1c005dd4:	ca5797b3          	p.extractu	a5,a5,5,5
1c005dd8:	02000713          	li	a4,32
1c005ddc:	1c008937          	lui	s2,0x1c008
1c005de0:	06e79263          	bne	a5,a4,1c005e44 <__rt_io_uart_flush.constprop.11+0xa8>
1c005de4:	1c0065b7          	lui	a1,0x1c006
1c005de8:	4785                	li	a5,1
1c005dea:	9c060613          	addi	a2,a2,-1600
1c005dee:	b6e58593          	addi	a1,a1,-1170 # 1c005b6e <__rt_io_end_of_flush>
1c005df2:	4501                	li	a0,0
1c005df4:	00f9a023          	sw	a5,0(s3)
1c005df8:	ec9fd0ef          	jal	ra,1c003cc0 <rt_event_get>
1c005dfc:	40cc                	lw	a1,4(s1)
1c005dfe:	87aa                	mv	a5,a0
1c005e00:	4701                	li	a4,0
1c005e02:	0586                	slli	a1,a1,0x1
1c005e04:	86a2                	mv	a3,s0
1c005e06:	9dc90613          	addi	a2,s2,-1572 # 1c0079dc <__hal_debug_struct+0x1c>
1c005e0a:	0585                	addi	a1,a1,1
1c005e0c:	4501                	li	a0,0
1c005e0e:	bf4fe0ef          	jal	ra,1c004202 <rt_periph_copy>
1c005e12:	f1bff0ef          	jal	ra,1c005d2c <__rt_io_unlock>
1c005e16:	0009a783          	lw	a5,0(s3)
1c005e1a:	e395                	bnez	a5,1c005e3e <__rt_io_uart_flush.constprop.11+0xa2>
1c005e1c:	e6dff0ef          	jal	ra,1c005c88 <__rt_io_lock>
1c005e20:	50ba                	lw	ra,172(sp)
1c005e22:	542a                	lw	s0,168(sp)
1c005e24:	549a                	lw	s1,164(sp)
1c005e26:	590a                	lw	s2,160(sp)
1c005e28:	49fa                	lw	s3,156(sp)
1c005e2a:	4a6a                	lw	s4,152(sp)
1c005e2c:	614d                	addi	sp,sp,176
1c005e2e:	8082                	ret
1c005e30:	efdff0ef          	jal	ra,1c005d2c <__rt_io_unlock>
1c005e34:	e35ff0ef          	jal	ra,1c005c68 <rt_event_execute.isra.4.constprop.12>
1c005e38:	e51ff0ef          	jal	ra,1c005c88 <__rt_io_lock>
1c005e3c:	bf8d                	j	1c005dae <__rt_io_uart_flush.constprop.11+0x12>
1c005e3e:	e2bff0ef          	jal	ra,1c005c68 <rt_event_execute.isra.4.constprop.12>
1c005e42:	bfd1                	j	1c005e16 <__rt_io_uart_flush.constprop.11+0x7a>
1c005e44:	868a                	mv	a3,sp
1c005e46:	8622                	mv	a2,s0
1c005e48:	9dc90593          	addi	a1,s2,-1572
1c005e4c:	8526                	mv	a0,s1
1c005e4e:	2fc010ef          	jal	ra,1c00714a <rt_uart_cluster_write>
1c005e52:	4689                	li	a3,2
1c005e54:	00204737          	lui	a4,0x204
1c005e58:	08c14783          	lbu	a5,140(sp)
1c005e5c:	0ff7f793          	andi	a5,a5,255
1c005e60:	c781                	beqz	a5,1c005e68 <__rt_io_uart_flush.constprop.11+0xcc>
1c005e62:	000a2c23          	sw	zero,24(s4)
1c005e66:	bf6d                	j	1c005e20 <__rt_io_uart_flush.constprop.11+0x84>
1c005e68:	00d72423          	sw	a3,8(a4) # 204008 <__L2+0x184008>
1c005e6c:	03c76783          	p.elw	a5,60(a4)
1c005e70:	00d72223          	sw	a3,4(a4)
1c005e74:	b7d5                	j	1c005e58 <__rt_io_uart_flush.constprop.11+0xbc>

1c005e76 <__rt_io_uart_wait_pending>:
1c005e76:	7135                	addi	sp,sp,-160
1c005e78:	cd22                	sw	s0,152(sp)
1c005e7a:	cf06                	sw	ra,156(sp)
1c005e7c:	1c008437          	lui	s0,0x1c008
1c005e80:	ef042783          	lw	a5,-272(s0) # 1c007ef0 <__rt_io_pending_flush>
1c005e84:	eb85                	bnez	a5,1c005eb4 <__rt_io_uart_wait_pending+0x3e>
1c005e86:	1c008437          	lui	s0,0x1c008
1c005e8a:	eec40413          	addi	s0,s0,-276 # 1c007eec <__rt_io_event_current>
1c005e8e:	4008                	lw	a0,0(s0)
1c005e90:	cd11                	beqz	a0,1c005eac <__rt_io_uart_wait_pending+0x36>
1c005e92:	014027f3          	csrr	a5,uhartid
1c005e96:	8795                	srai	a5,a5,0x5
1c005e98:	f267b7b3          	p.bclr	a5,a5,25,6
1c005e9c:	02000713          	li	a4,32
1c005ea0:	02e79163          	bne	a5,a4,1c005ec2 <__rt_io_uart_wait_pending+0x4c>
1c005ea4:	f0bfd0ef          	jal	ra,1c003dae <rt_event_wait>
1c005ea8:	00042023          	sw	zero,0(s0)
1c005eac:	40fa                	lw	ra,156(sp)
1c005eae:	446a                	lw	s0,152(sp)
1c005eb0:	610d                	addi	sp,sp,160
1c005eb2:	8082                	ret
1c005eb4:	e79ff0ef          	jal	ra,1c005d2c <__rt_io_unlock>
1c005eb8:	db1ff0ef          	jal	ra,1c005c68 <rt_event_execute.isra.4.constprop.12>
1c005ebc:	dcdff0ef          	jal	ra,1c005c88 <__rt_io_lock>
1c005ec0:	b7c1                	j	1c005e80 <__rt_io_uart_wait_pending+0xa>
1c005ec2:	08f106a3          	sb	a5,141(sp)
1c005ec6:	1c0067b7          	lui	a5,0x1c006
1c005eca:	b7c78793          	addi	a5,a5,-1156 # 1c005b7c <__rt_io_uart_wait_req>
1c005ece:	4705                	li	a4,1
1c005ed0:	c83e                	sw	a5,16(sp)
1c005ed2:	0068                	addi	a0,sp,12
1c005ed4:	1c0087b7          	lui	a5,0x1c008
1c005ed8:	e4e7aa23          	sw	a4,-428(a5) # 1c007e54 <__rt_io_event+0x24>
1c005edc:	08010623          	sb	zero,140(sp)
1c005ee0:	d802                	sw	zero,48(sp)
1c005ee2:	da02                	sw	zero,52(sp)
1c005ee4:	ca2a                	sw	a0,20(sp)
1c005ee6:	cd7fe0ef          	jal	ra,1c004bbc <__rt_cluster_push_fc_event>
1c005eea:	4689                	li	a3,2
1c005eec:	00204737          	lui	a4,0x204
1c005ef0:	08c14783          	lbu	a5,140(sp)
1c005ef4:	0ff7f793          	andi	a5,a5,255
1c005ef8:	fbd5                	bnez	a5,1c005eac <__rt_io_uart_wait_pending+0x36>
1c005efa:	00d72423          	sw	a3,8(a4) # 204008 <__L2+0x184008>
1c005efe:	03c76783          	p.elw	a5,60(a4)
1c005f02:	00d72223          	sw	a3,4(a4)
1c005f06:	b7ed                	j	1c005ef0 <__rt_io_uart_wait_pending+0x7a>

1c005f08 <__rt_io_stop>:
1c005f08:	1141                	addi	sp,sp,-16
1c005f0a:	c422                	sw	s0,8(sp)
1c005f0c:	1c008437          	lui	s0,0x1c008
1c005f10:	c606                	sw	ra,12(sp)
1c005f12:	ef840413          	addi	s0,s0,-264 # 1c007ef8 <_rt_io_uart>
1c005f16:	f61ff0ef          	jal	ra,1c005e76 <__rt_io_uart_wait_pending>
1c005f1a:	4008                	lw	a0,0(s0)
1c005f1c:	4581                	li	a1,0
1c005f1e:	1de010ef          	jal	ra,1c0070fc <rt_uart_close>
1c005f22:	40b2                	lw	ra,12(sp)
1c005f24:	00042023          	sw	zero,0(s0)
1c005f28:	4422                	lw	s0,8(sp)
1c005f2a:	4501                	li	a0,0
1c005f2c:	0141                	addi	sp,sp,16
1c005f2e:	8082                	ret

1c005f30 <strcmp>:
1c005f30:	0015478b          	p.lbu	a5,1(a0!)
1c005f34:	0015c70b          	p.lbu	a4,1(a1!)
1c005f38:	c399                	beqz	a5,1c005f3e <strcmp+0xe>
1c005f3a:	fee78be3          	beq	a5,a4,1c005f30 <strcmp>
1c005f3e:	40e78533          	sub	a0,a5,a4
1c005f42:	8082                	ret

1c005f44 <strncmp>:
1c005f44:	ce11                	beqz	a2,1c005f60 <strncmp+0x1c>
1c005f46:	962a                	add	a2,a2,a0
1c005f48:	0015478b          	p.lbu	a5,1(a0!)
1c005f4c:	0015c70b          	p.lbu	a4,1(a1!)
1c005f50:	00e79563          	bne	a5,a4,1c005f5a <strncmp+0x16>
1c005f54:	00c50363          	beq	a0,a2,1c005f5a <strncmp+0x16>
1c005f58:	fbe5                	bnez	a5,1c005f48 <strncmp+0x4>
1c005f5a:	40e78533          	sub	a0,a5,a4
1c005f5e:	8082                	ret
1c005f60:	4501                	li	a0,0
1c005f62:	8082                	ret

1c005f64 <strlen>:
1c005f64:	87aa                	mv	a5,a0
1c005f66:	0007c703          	lbu	a4,0(a5)
1c005f6a:	00178693          	addi	a3,a5,1
1c005f6e:	e701                	bnez	a4,1c005f76 <strlen+0x12>
1c005f70:	40a78533          	sub	a0,a5,a0
1c005f74:	8082                	ret
1c005f76:	87b6                	mv	a5,a3
1c005f78:	b7fd                	j	1c005f66 <strlen+0x2>

1c005f7a <memset>:
1c005f7a:	962a                	add	a2,a2,a0
1c005f7c:	87aa                	mv	a5,a0
1c005f7e:	00c79363          	bne	a5,a2,1c005f84 <memset+0xa>
1c005f82:	8082                	ret
1c005f84:	00b780ab          	p.sb	a1,1(a5!)
1c005f88:	bfdd                	j	1c005f7e <memset+0x4>

1c005f8a <memcpy>:
1c005f8a:	00a5e733          	or	a4,a1,a0
1c005f8e:	fa273733          	p.bclr	a4,a4,29,2
1c005f92:	87aa                	mv	a5,a0
1c005f94:	c709                	beqz	a4,1c005f9e <memcpy+0x14>
1c005f96:	962e                	add	a2,a2,a1
1c005f98:	00c59f63          	bne	a1,a2,1c005fb6 <memcpy+0x2c>
1c005f9c:	8082                	ret
1c005f9e:	fa263733          	p.bclr	a4,a2,29,2
1c005fa2:	fb75                	bnez	a4,1c005f96 <memcpy+0xc>
1c005fa4:	962e                	add	a2,a2,a1
1c005fa6:	00c59363          	bne	a1,a2,1c005fac <memcpy+0x22>
1c005faa:	8082                	ret
1c005fac:	0045a70b          	p.lw	a4,4(a1!)
1c005fb0:	00e7a22b          	p.sw	a4,4(a5!)
1c005fb4:	bfcd                	j	1c005fa6 <memcpy+0x1c>
1c005fb6:	0015c70b          	p.lbu	a4,1(a1!)
1c005fba:	00e780ab          	p.sb	a4,1(a5!)
1c005fbe:	bfe9                	j	1c005f98 <memcpy+0xe>

1c005fc0 <strchr>:
1c005fc0:	0ff5f593          	andi	a1,a1,255
1c005fc4:	00054703          	lbu	a4,0(a0)
1c005fc8:	87aa                	mv	a5,a0
1c005fca:	0505                	addi	a0,a0,1
1c005fcc:	00b70563          	beq	a4,a1,1c005fd6 <strchr+0x16>
1c005fd0:	fb75                	bnez	a4,1c005fc4 <strchr+0x4>
1c005fd2:	c191                	beqz	a1,1c005fd6 <strchr+0x16>
1c005fd4:	4781                	li	a5,0
1c005fd6:	853e                	mv	a0,a5
1c005fd8:	8082                	ret

1c005fda <__rt_putc_debug_bridge>:
1c005fda:	1141                	addi	sp,sp,-16
1c005fdc:	c422                	sw	s0,8(sp)
1c005fde:	1c008437          	lui	s0,0x1c008
1c005fe2:	c226                	sw	s1,4(sp)
1c005fe4:	c606                	sw	ra,12(sp)
1c005fe6:	84aa                	mv	s1,a0
1c005fe8:	9c040413          	addi	s0,s0,-1600 # 1c0079c0 <__hal_debug_struct>
1c005fec:	485c                	lw	a5,20(s0)
1c005fee:	c791                	beqz	a5,1c005ffa <__rt_putc_debug_bridge+0x20>
1c005ff0:	06400513          	li	a0,100
1c005ff4:	86cfe0ef          	jal	ra,1c004060 <rt_time_wait_us>
1c005ff8:	bfd5                	j	1c005fec <__rt_putc_debug_bridge+0x12>
1c005ffa:	4c1c                	lw	a5,24(s0)
1c005ffc:	00178713          	addi	a4,a5,1
1c006000:	97a2                	add	a5,a5,s0
1c006002:	00978e23          	sb	s1,28(a5)
1c006006:	cc18                	sw	a4,24(s0)
1c006008:	4c14                	lw	a3,24(s0)
1c00600a:	08000793          	li	a5,128
1c00600e:	00f68463          	beq	a3,a5,1c006016 <__rt_putc_debug_bridge+0x3c>
1c006012:	00a4b663          	p.bneimm	s1,10,1c00601e <__rt_putc_debug_bridge+0x44>
1c006016:	c701                	beqz	a4,1c00601e <__rt_putc_debug_bridge+0x44>
1c006018:	c858                	sw	a4,20(s0)
1c00601a:	00042c23          	sw	zero,24(s0)
1c00601e:	4c1c                	lw	a5,24(s0)
1c006020:	e799                	bnez	a5,1c00602e <__rt_putc_debug_bridge+0x54>
1c006022:	4422                	lw	s0,8(sp)
1c006024:	40b2                	lw	ra,12(sp)
1c006026:	4492                	lw	s1,4(sp)
1c006028:	0141                	addi	sp,sp,16
1c00602a:	b07fd06f          	j	1c003b30 <__rt_bridge_printf_flush>
1c00602e:	40b2                	lw	ra,12(sp)
1c006030:	4422                	lw	s0,8(sp)
1c006032:	4492                	lw	s1,4(sp)
1c006034:	0141                	addi	sp,sp,16
1c006036:	8082                	ret

1c006038 <__rt_putc_uart>:
1c006038:	1101                	addi	sp,sp,-32
1c00603a:	c62a                	sw	a0,12(sp)
1c00603c:	ce06                	sw	ra,28(sp)
1c00603e:	e39ff0ef          	jal	ra,1c005e76 <__rt_io_uart_wait_pending>
1c006042:	1c0087b7          	lui	a5,0x1c008
1c006046:	9c078793          	addi	a5,a5,-1600 # 1c0079c0 <__hal_debug_struct>
1c00604a:	4f94                	lw	a3,24(a5)
1c00604c:	4532                	lw	a0,12(sp)
1c00604e:	00168713          	addi	a4,a3,1
1c006052:	cf98                	sw	a4,24(a5)
1c006054:	97b6                	add	a5,a5,a3
1c006056:	00a78e23          	sb	a0,28(a5)
1c00605a:	08000793          	li	a5,128
1c00605e:	00f70463          	beq	a4,a5,1c006066 <__rt_putc_uart+0x2e>
1c006062:	00a53663          	p.bneimm	a0,10,1c00606e <__rt_putc_uart+0x36>
1c006066:	40f2                	lw	ra,28(sp)
1c006068:	6105                	addi	sp,sp,32
1c00606a:	d33ff06f          	j	1c005d9c <__rt_io_uart_flush.constprop.11>
1c00606e:	40f2                	lw	ra,28(sp)
1c006070:	6105                	addi	sp,sp,32
1c006072:	8082                	ret

1c006074 <tfp_putc.isra.9>:
1c006074:	1c0087b7          	lui	a5,0x1c008
1c006078:	a847a783          	lw	a5,-1404(a5) # 1c007a84 <__rt_iodev>
1c00607c:	7135                	addi	sp,sp,-160
1c00607e:	cf06                	sw	ra,156(sp)
1c006080:	0427bf63          	p.bneimm	a5,2,1c0060de <tfp_putc.isra.9+0x6a>
1c006084:	014027f3          	csrr	a5,uhartid
1c006088:	8795                	srai	a5,a5,0x5
1c00608a:	f267b7b3          	p.bclr	a5,a5,25,6
1c00608e:	02000713          	li	a4,32
1c006092:	00e79763          	bne	a5,a4,1c0060a0 <tfp_putc.isra.9+0x2c>
1c006096:	b37ff0ef          	jal	ra,1c005bcc <__rt_do_putc_host>
1c00609a:	40fa                	lw	ra,156(sp)
1c00609c:	610d                	addi	sp,sp,160
1c00609e:	8082                	ret
1c0060a0:	08f10623          	sb	a5,140(sp)
1c0060a4:	1c0067b7          	lui	a5,0x1c006
1c0060a8:	4705                	li	a4,1
1c0060aa:	cf878793          	addi	a5,a5,-776 # 1c005cf8 <__rt_putc_host_cluster_req>
1c0060ae:	08a106a3          	sb	a0,141(sp)
1c0060b2:	0048                	addi	a0,sp,4
1c0060b4:	d63a                	sw	a4,44(sp)
1c0060b6:	c43e                	sw	a5,8(sp)
1c0060b8:	c502                	sw	zero,136(sp)
1c0060ba:	ce02                	sw	zero,28(sp)
1c0060bc:	c62a                	sw	a0,12(sp)
1c0060be:	00010c23          	sb	zero,24(sp)
1c0060c2:	afbfe0ef          	jal	ra,1c004bbc <__rt_cluster_push_fc_event>
1c0060c6:	4709                	li	a4,2
1c0060c8:	002047b7          	lui	a5,0x204
1c0060cc:	46aa                	lw	a3,136(sp)
1c0060ce:	f6f1                	bnez	a3,1c00609a <tfp_putc.isra.9+0x26>
1c0060d0:	00e7a423          	sw	a4,8(a5) # 204008 <__L2+0x184008>
1c0060d4:	03c7e683          	p.elw	a3,60(a5)
1c0060d8:	00e7a223          	sw	a4,4(a5)
1c0060dc:	bfc5                	j	1c0060cc <tfp_putc.isra.9+0x58>
1c0060de:	1c0087b7          	lui	a5,0x1c008
1c0060e2:	ef87a783          	lw	a5,-264(a5) # 1c007ef8 <_rt_io_uart>
1c0060e6:	c781                	beqz	a5,1c0060ee <tfp_putc.isra.9+0x7a>
1c0060e8:	f51ff0ef          	jal	ra,1c006038 <__rt_putc_uart>
1c0060ec:	b77d                	j	1c00609a <tfp_putc.isra.9+0x26>
1c0060ee:	1c0087b7          	lui	a5,0x1c008
1c0060f2:	9d07a783          	lw	a5,-1584(a5) # 1c0079d0 <__hal_debug_struct+0x10>
1c0060f6:	c395                	beqz	a5,1c00611a <tfp_putc.isra.9+0xa6>
1c0060f8:	014027f3          	csrr	a5,uhartid
1c0060fc:	00379713          	slli	a4,a5,0x3
1c006100:	1a1106b7          	lui	a3,0x1a110
1c006104:	ee873733          	p.bclr	a4,a4,23,8
1c006108:	9736                	add	a4,a4,a3
1c00610a:	6689                	lui	a3,0x2
1c00610c:	078a                	slli	a5,a5,0x2
1c00610e:	f8068693          	addi	a3,a3,-128 # 1f80 <__rt_stack_size+0x1780>
1c006112:	8ff5                	and	a5,a5,a3
1c006114:	00a767a3          	p.sw	a0,a5(a4)
1c006118:	b749                	j	1c00609a <tfp_putc.isra.9+0x26>
1c00611a:	ec1ff0ef          	jal	ra,1c005fda <__rt_putc_debug_bridge>
1c00611e:	bfb5                	j	1c00609a <tfp_putc.isra.9+0x26>

1c006120 <puts>:
1c006120:	1141                	addi	sp,sp,-16
1c006122:	c422                	sw	s0,8(sp)
1c006124:	c606                	sw	ra,12(sp)
1c006126:	842a                	mv	s0,a0
1c006128:	b61ff0ef          	jal	ra,1c005c88 <__rt_io_lock>
1c00612c:	0014450b          	p.lbu	a0,1(s0!)
1c006130:	c501                	beqz	a0,1c006138 <puts+0x18>
1c006132:	f43ff0ef          	jal	ra,1c006074 <tfp_putc.isra.9>
1c006136:	bfdd                	j	1c00612c <puts+0xc>
1c006138:	4529                	li	a0,10
1c00613a:	f3bff0ef          	jal	ra,1c006074 <tfp_putc.isra.9>
1c00613e:	befff0ef          	jal	ra,1c005d2c <__rt_io_unlock>
1c006142:	40b2                	lw	ra,12(sp)
1c006144:	4422                	lw	s0,8(sp)
1c006146:	4501                	li	a0,0
1c006148:	0141                	addi	sp,sp,16
1c00614a:	8082                	ret

1c00614c <fputc_locked>:
1c00614c:	1141                	addi	sp,sp,-16
1c00614e:	c422                	sw	s0,8(sp)
1c006150:	842a                	mv	s0,a0
1c006152:	0ff57513          	andi	a0,a0,255
1c006156:	c606                	sw	ra,12(sp)
1c006158:	f1dff0ef          	jal	ra,1c006074 <tfp_putc.isra.9>
1c00615c:	8522                	mv	a0,s0
1c00615e:	40b2                	lw	ra,12(sp)
1c006160:	4422                	lw	s0,8(sp)
1c006162:	0141                	addi	sp,sp,16
1c006164:	8082                	ret

1c006166 <fputc>:
1c006166:	1141                	addi	sp,sp,-16
1c006168:	c606                	sw	ra,12(sp)
1c00616a:	c422                	sw	s0,8(sp)
1c00616c:	842a                	mv	s0,a0
1c00616e:	b1bff0ef          	jal	ra,1c005c88 <__rt_io_lock>
1c006172:	0ff47513          	andi	a0,s0,255
1c006176:	effff0ef          	jal	ra,1c006074 <tfp_putc.isra.9>
1c00617a:	1c0087b7          	lui	a5,0x1c008
1c00617e:	9d07a783          	lw	a5,-1584(a5) # 1c0079d0 <__hal_debug_struct+0x10>
1c006182:	e399                	bnez	a5,1c006188 <fputc+0x22>
1c006184:	9adfd0ef          	jal	ra,1c003b30 <__rt_bridge_printf_flush>
1c006188:	ba5ff0ef          	jal	ra,1c005d2c <__rt_io_unlock>
1c00618c:	8522                	mv	a0,s0
1c00618e:	40b2                	lw	ra,12(sp)
1c006190:	4422                	lw	s0,8(sp)
1c006192:	0141                	addi	sp,sp,16
1c006194:	8082                	ret

1c006196 <putchar>:
1c006196:	4589                	li	a1,2
1c006198:	fcfff06f          	j	1c006166 <fputc>

1c00619c <_prf_locked>:
1c00619c:	1101                	addi	sp,sp,-32
1c00619e:	ce06                	sw	ra,28(sp)
1c0061a0:	c02a                	sw	a0,0(sp)
1c0061a2:	c62e                	sw	a1,12(sp)
1c0061a4:	c432                	sw	a2,8(sp)
1c0061a6:	c236                	sw	a3,4(sp)
1c0061a8:	ae1ff0ef          	jal	ra,1c005c88 <__rt_io_lock>
1c0061ac:	4692                	lw	a3,4(sp)
1c0061ae:	4622                	lw	a2,8(sp)
1c0061b0:	45b2                	lw	a1,12(sp)
1c0061b2:	4502                	lw	a0,0(sp)
1c0061b4:	2ca1                	jal	1c00640c <_prf>
1c0061b6:	c02a                	sw	a0,0(sp)
1c0061b8:	b75ff0ef          	jal	ra,1c005d2c <__rt_io_unlock>
1c0061bc:	40f2                	lw	ra,28(sp)
1c0061be:	4502                	lw	a0,0(sp)
1c0061c0:	6105                	addi	sp,sp,32
1c0061c2:	8082                	ret

1c0061c4 <exit>:
1c0061c4:	1101                	addi	sp,sp,-32
1c0061c6:	cc22                	sw	s0,24(sp)
1c0061c8:	c84a                	sw	s2,16(sp)
1c0061ca:	c62a                	sw	a0,12(sp)
1c0061cc:	ce06                	sw	ra,28(sp)
1c0061ce:	ca26                	sw	s1,20(sp)
1c0061d0:	ccafd0ef          	jal	ra,1c00369a <__rt_deinit>
1c0061d4:	4532                	lw	a0,12(sp)
1c0061d6:	1a104437          	lui	s0,0x1a104
1c0061da:	0a040793          	addi	a5,s0,160 # 1a1040a0 <__l1_end+0xa104080>
1c0061de:	c1f54933          	p.bset	s2,a0,0,31
1c0061e2:	0127a023          	sw	s2,0(a5)
1c0061e6:	1c0087b7          	lui	a5,0x1c008
1c0061ea:	a847a783          	lw	a5,-1404(a5) # 1c007a84 <__rt_iodev>
1c0061ee:	0027bf63          	p.bneimm	a5,2,1c00620c <exit+0x48>
1c0061f2:	c901                	beqz	a0,1c006202 <exit+0x3e>
1c0061f4:	00020537          	lui	a0,0x20
1c0061f8:	02350513          	addi	a0,a0,35 # 20023 <__L1Cl+0x10023>
1c0061fc:	ab8fd0ef          	jal	ra,1c0034b4 <semihost_exit>
1c006200:	a001                	j	1c006200 <exit+0x3c>
1c006202:	00020537          	lui	a0,0x20
1c006206:	02650513          	addi	a0,a0,38 # 20026 <__L1Cl+0x10026>
1c00620a:	bfcd                	j	1c0061fc <exit+0x38>
1c00620c:	1c0084b7          	lui	s1,0x1c008
1c006210:	9c048493          	addi	s1,s1,-1600 # 1c0079c0 <__hal_debug_struct>
1c006214:	91dfd0ef          	jal	ra,1c003b30 <__rt_bridge_printf_flush>
1c006218:	0124a623          	sw	s2,12(s1)
1c00621c:	8d7fd0ef          	jal	ra,1c003af2 <__rt_bridge_send_notif>
1c006220:	449c                	lw	a5,8(s1)
1c006222:	dff9                	beqz	a5,1c006200 <exit+0x3c>
1c006224:	07440413          	addi	s0,s0,116
1c006228:	401c                	lw	a5,0(s0)
1c00622a:	83a5                	srli	a5,a5,0x9
1c00622c:	f837b7b3          	p.bclr	a5,a5,28,3
1c006230:	fe77bce3          	p.bneimm	a5,7,1c006228 <exit+0x64>
1c006234:	8dffd0ef          	jal	ra,1c003b12 <__rt_bridge_clear_notif>
1c006238:	b7e1                	j	1c006200 <exit+0x3c>

1c00623a <abort>:
1c00623a:	1141                	addi	sp,sp,-16
1c00623c:	557d                	li	a0,-1
1c00623e:	c606                	sw	ra,12(sp)
1c006240:	f85ff0ef          	jal	ra,1c0061c4 <exit>

1c006244 <__rt_io_init>:
#endif
}

RT_FC_BOOT_CODE void __attribute__((constructor)) __rt_io_init()
{
  __rt_putc_host_buffer_index = 0;
1c006244:	1c0087b7          	lui	a5,0x1c008
1c006248:	ee07aa23          	sw	zero,-268(a5) # 1c007ef4 <__rt_putc_host_buffer_index>
void __rt_fc_cluster_unlock(rt_fc_lock_t *lock, rt_fc_lock_req_t *req);

static inline void __rt_fc_lock_init(rt_fc_lock_t *lock)
{
#if defined(ARCHI_HAS_FC)
  lock->waiting = NULL;
1c00624c:	1b0017b7          	lui	a5,0x1b001
1c006250:	c0c78793          	addi	a5,a5,-1012 # 1b000c0c <__rt_io_fc_lock>
1c006254:	0007a223          	sw	zero,4(a5)
  lock->locked = 0;
1c006258:	0007a023          	sw	zero,0(a5)
  lock->fc_wait = NULL;
1c00625c:	0007a623          	sw	zero,12(a5)
  __rt_fc_lock_init(&__rt_io_fc_lock);

#if defined(__RT_USE_UART)
  _rt_io_uart = NULL;
1c006260:	1c0087b7          	lui	a5,0x1c008
1c006264:	ee07ac23          	sw	zero,-264(a5) # 1c007ef8 <_rt_io_uart>
  __rt_io_event_current = NULL;
1c006268:	1c0087b7          	lui	a5,0x1c008
1c00626c:	ee07a623          	sw	zero,-276(a5) # 1c007eec <__rt_io_event_current>
  return __rt_iodev;
1c006270:	1c0087b7          	lui	a5,0x1c008

  if (rt_iodev() == RT_IODEV_UART)
1c006274:	a847a783          	lw	a5,-1404(a5) # 1c007a84 <__rt_iodev>
1c006278:	0217be63          	p.bneimm	a5,1,1c0062b4 <__rt_io_init+0x70>
  {
    __rt_cbsys_add(RT_CBSYS_START, __rt_io_start, NULL);
1c00627c:	1c0065b7          	lui	a1,0x1c006
{
1c006280:	1141                	addi	sp,sp,-16
    __rt_cbsys_add(RT_CBSYS_START, __rt_io_start, NULL);
1c006282:	4601                	li	a2,0
1c006284:	c0e58593          	addi	a1,a1,-1010 # 1c005c0e <__rt_io_start>
1c006288:	4501                	li	a0,0
{
1c00628a:	c606                	sw	ra,12(sp)
    __rt_cbsys_add(RT_CBSYS_START, __rt_io_start, NULL);
1c00628c:	da6fd0ef          	jal	ra,1c003832 <__rt_cbsys_add>
    __rt_cbsys_add(RT_CBSYS_STOP, __rt_io_stop, NULL);
1c006290:	1c0065b7          	lui	a1,0x1c006
1c006294:	f0858593          	addi	a1,a1,-248 # 1c005f08 <__rt_io_stop>
1c006298:	4601                	li	a2,0
1c00629a:	4505                	li	a0,1
1c00629c:	d96fd0ef          	jal	ra,1c003832 <__rt_cbsys_add>
    __rt_io_pending_flush = 0;
    rt_event_alloc(NULL, 1);
  }
#endif

}
1c0062a0:	40b2                	lw	ra,12(sp)
    __rt_io_pending_flush = 0;
1c0062a2:	1c0087b7          	lui	a5,0x1c008
1c0062a6:	ee07a823          	sw	zero,-272(a5) # 1c007ef0 <__rt_io_pending_flush>
    rt_event_alloc(NULL, 1);
1c0062aa:	4585                	li	a1,1
1c0062ac:	4501                	li	a0,0
}
1c0062ae:	0141                	addi	sp,sp,16
    rt_event_alloc(NULL, 1);
1c0062b0:	99dfd06f          	j	1c003c4c <rt_event_alloc>
1c0062b4:	8082                	ret

1c0062b6 <printf>:

	return r;
}

int printf(const char *format, ...)
{
1c0062b6:	7139                	addi	sp,sp,-64
1c0062b8:	d432                	sw	a2,40(sp)
	va_list vargs;
	int     r;

	va_start(vargs, format);
	r = _prf_locked(fputc_locked, DESC(stdout), format, vargs);
1c0062ba:	862a                	mv	a2,a0
1c0062bc:	1c006537          	lui	a0,0x1c006
{
1c0062c0:	d22e                	sw	a1,36(sp)
1c0062c2:	d636                	sw	a3,44(sp)
	r = _prf_locked(fputc_locked, DESC(stdout), format, vargs);
1c0062c4:	4589                	li	a1,2
	va_start(vargs, format);
1c0062c6:	1054                	addi	a3,sp,36
	r = _prf_locked(fputc_locked, DESC(stdout), format, vargs);
1c0062c8:	14c50513          	addi	a0,a0,332 # 1c00614c <fputc_locked>
{
1c0062cc:	ce06                	sw	ra,28(sp)
1c0062ce:	d83a                	sw	a4,48(sp)
1c0062d0:	da3e                	sw	a5,52(sp)
1c0062d2:	dc42                	sw	a6,56(sp)
1c0062d4:	de46                	sw	a7,60(sp)
	va_start(vargs, format);
1c0062d6:	c636                	sw	a3,12(sp)
	r = _prf_locked(fputc_locked, DESC(stdout), format, vargs);
1c0062d8:	ec5ff0ef          	jal	ra,1c00619c <_prf_locked>
	va_end(vargs);

	return r;
}
1c0062dc:	40f2                	lw	ra,28(sp)
1c0062de:	6121                	addi	sp,sp,64
1c0062e0:	8082                	ret

1c0062e2 <_to_x>:
 * Writes the specified number into the buffer in the given base,
 * using the digit characters 0-9a-z (i.e. base>36 will start writing
 * odd bytes).
 */
static int _to_x(char *buf, unsigned VALTYPE n, unsigned int base)
{
1c0062e2:	7179                	addi	sp,sp,-48
1c0062e4:	d422                	sw	s0,40(sp)
1c0062e6:	d226                	sw	s1,36(sp)
1c0062e8:	ce4e                	sw	s3,28(sp)
1c0062ea:	cc52                	sw	s4,24(sp)
1c0062ec:	ca56                	sw	s5,20(sp)
1c0062ee:	c85a                	sw	s6,16(sp)
1c0062f0:	d606                	sw	ra,44(sp)
1c0062f2:	d04a                	sw	s2,32(sp)
1c0062f4:	c65e                	sw	s7,12(sp)
1c0062f6:	84aa                	mv	s1,a0
1c0062f8:	89ae                	mv	s3,a1
1c0062fa:	8a32                	mv	s4,a2
1c0062fc:	8ab6                	mv	s5,a3
1c0062fe:	842a                	mv	s0,a0

	do {
		unsigned int d = n % base;

		n /= base;
		*buf++ = '0' + d + (d > 9 ? ('a' - '0' - 10) : 0);
1c006300:	4b25                	li	s6,9
		unsigned int d = n % base;
1c006302:	8656                	mv	a2,s5
1c006304:	4681                	li	a3,0
1c006306:	854e                	mv	a0,s3
1c006308:	85d2                	mv	a1,s4
1c00630a:	e26fa0ef          	jal	ra,1c000930 <__umoddi3>
		n /= base;
1c00630e:	85d2                	mv	a1,s4
		unsigned int d = n % base;
1c006310:	892a                	mv	s2,a0
		n /= base;
1c006312:	8656                	mv	a2,s5
1c006314:	854e                	mv	a0,s3
1c006316:	4681                	li	a3,0
1c006318:	adcfa0ef          	jal	ra,1c0005f4 <__udivdi3>
1c00631c:	89aa                	mv	s3,a0
1c00631e:	8a2e                	mv	s4,a1
		*buf++ = '0' + d + (d > 9 ? ('a' - '0' - 10) : 0);
1c006320:	02700713          	li	a4,39
1c006324:	012b6363          	bltu	s6,s2,1c00632a <_to_x+0x48>
1c006328:	4701                	li	a4,0
1c00632a:	03090913          	addi	s2,s2,48
1c00632e:	974a                	add	a4,a4,s2
1c006330:	00e40023          	sb	a4,0(s0)
	} while (n);
1c006334:	8dc9                	or	a1,a1,a0
		*buf++ = '0' + d + (d > 9 ? ('a' - '0' - 10) : 0);
1c006336:	00140793          	addi	a5,s0,1
	} while (n);
1c00633a:	e195                	bnez	a1,1c00635e <_to_x+0x7c>

	*buf = 0;
1c00633c:	00078023          	sb	zero,0(a5)
	len = buf - start;
1c006340:	40978533          	sub	a0,a5,s1

	for (buf--; buf > start; buf--, start++) {
1c006344:	0084ef63          	bltu	s1,s0,1c006362 <_to_x+0x80>
		*buf = *start;
		*start = tmp;
	}

	return len;
}
1c006348:	50b2                	lw	ra,44(sp)
1c00634a:	5422                	lw	s0,40(sp)
1c00634c:	5492                	lw	s1,36(sp)
1c00634e:	5902                	lw	s2,32(sp)
1c006350:	49f2                	lw	s3,28(sp)
1c006352:	4a62                	lw	s4,24(sp)
1c006354:	4ad2                	lw	s5,20(sp)
1c006356:	4b42                	lw	s6,16(sp)
1c006358:	4bb2                	lw	s7,12(sp)
1c00635a:	6145                	addi	sp,sp,48
1c00635c:	8082                	ret
1c00635e:	843e                	mv	s0,a5
1c006360:	b74d                	j	1c006302 <_to_x+0x20>
		*buf = *start;
1c006362:	0004c703          	lbu	a4,0(s1)
		char tmp = *buf;
1c006366:	00044783          	lbu	a5,0(s0)
		*buf = *start;
1c00636a:	fee40fab          	p.sb	a4,-1(s0!)
		*start = tmp;
1c00636e:	00f480ab          	p.sb	a5,1(s1!)
1c006372:	bfc9                	j	1c006344 <_to_x+0x62>

1c006374 <_rlrshift>:
	return (buf + _to_udec(buf, value)) - start;
}

static	void _rlrshift(uint64_t *v)
{
	*v = (*v & 1) + (*v >> 1);
1c006374:	411c                	lw	a5,0(a0)
1c006376:	4154                	lw	a3,4(a0)
1c006378:	fc17b733          	p.bclr	a4,a5,30,1
1c00637c:	01f69613          	slli	a2,a3,0x1f
1c006380:	8385                	srli	a5,a5,0x1
1c006382:	8fd1                	or	a5,a5,a2
1c006384:	97ba                	add	a5,a5,a4
1c006386:	8285                	srli	a3,a3,0x1
1c006388:	00e7b733          	sltu	a4,a5,a4
1c00638c:	9736                	add	a4,a4,a3
1c00638e:	c11c                	sw	a5,0(a0)
1c006390:	c158                	sw	a4,4(a0)
}
1c006392:	8082                	ret

1c006394 <_ldiv5>:
 * taken from the full 64 bit space.
 */
static void _ldiv5(uint64_t *v)
{
	uint32_t hi;
	uint64_t rem = *v, quot = 0U, q;
1c006394:	4118                	lw	a4,0(a0)
1c006396:	4154                	lw	a3,4(a0)
	 */
	rem += 2U;

	for (i = 0; i < 3; i++) {
		hi = rem >> shifts[i];
		q = (uint64_t)(hi / 5U) << shifts[i];
1c006398:	4615                	li	a2,5
	rem += 2U;
1c00639a:	00270793          	addi	a5,a4,2
1c00639e:	00e7b733          	sltu	a4,a5,a4
1c0063a2:	9736                	add	a4,a4,a3
		q = (uint64_t)(hi / 5U) << shifts[i];
1c0063a4:	02c755b3          	divu	a1,a4,a2
		rem -= q * 5U;
1c0063a8:	42b61733          	p.msu	a4,a2,a1
		hi = rem >> shifts[i];
1c0063ac:	01d71693          	slli	a3,a4,0x1d
1c0063b0:	0037d713          	srli	a4,a5,0x3
1c0063b4:	8f55                	or	a4,a4,a3
		q = (uint64_t)(hi / 5U) << shifts[i];
1c0063b6:	02c75733          	divu	a4,a4,a2
1c0063ba:	01d75693          	srli	a3,a4,0x1d
1c0063be:	070e                	slli	a4,a4,0x3
		rem -= q * 5U;
1c0063c0:	42e617b3          	p.msu	a5,a2,a4
		quot += q;
1c0063c4:	95b6                	add	a1,a1,a3
		q = (uint64_t)(hi / 5U) << shifts[i];
1c0063c6:	02c7d7b3          	divu	a5,a5,a2
		quot += q;
1c0063ca:	973e                	add	a4,a4,a5
1c0063cc:	00f737b3          	sltu	a5,a4,a5
1c0063d0:	97ae                	add	a5,a5,a1
	}

	*v = quot;
1c0063d2:	c118                	sw	a4,0(a0)
1c0063d4:	c15c                	sw	a5,4(a0)
}
1c0063d6:	8082                	ret

1c0063d8 <_get_digit>:

static	char _get_digit(uint64_t *fr, int *digit_count)
{
	char rval;

	if (*digit_count > 0) {
1c0063d8:	419c                	lw	a5,0(a1)
		*digit_count -= 1;
		*fr = *fr * 10U;
		rval = ((*fr >> 60) & 0xF) + '0';
		*fr &= 0x0FFFFFFFFFFFFFFFull;
	} else {
		rval = '0';
1c0063da:	03000713          	li	a4,48
	if (*digit_count > 0) {
1c0063de:	02f05563          	blez	a5,1c006408 <_get_digit+0x30>
		*digit_count -= 1;
1c0063e2:	17fd                	addi	a5,a5,-1
1c0063e4:	c19c                	sw	a5,0(a1)
		*fr = *fr * 10U;
1c0063e6:	411c                	lw	a5,0(a0)
1c0063e8:	4729                	li	a4,10
1c0063ea:	4150                	lw	a2,4(a0)
1c0063ec:	02f706b3          	mul	a3,a4,a5
1c0063f0:	02f737b3          	mulhu	a5,a4,a5
		*fr &= 0x0FFFFFFFFFFFFFFFull;
1c0063f4:	c114                	sw	a3,0(a0)
		*fr = *fr * 10U;
1c0063f6:	42c707b3          	p.mac	a5,a4,a2
		rval = ((*fr >> 60) & 0xF) + '0';
1c0063fa:	01c7d713          	srli	a4,a5,0x1c
		*fr &= 0x0FFFFFFFFFFFFFFFull;
1c0063fe:	c7c7b7b3          	p.bclr	a5,a5,3,28
		rval = ((*fr >> 60) & 0xF) + '0';
1c006402:	03070713          	addi	a4,a4,48
		*fr &= 0x0FFFFFFFFFFFFFFFull;
1c006406:	c15c                	sw	a5,4(a0)
	}

	return rval;
}
1c006408:	853a                	mv	a0,a4
1c00640a:	8082                	ret

1c00640c <_prf>:
	*sptr = p;
	return i;
}

int _prf(int (*func)(), void *dest, const char *format, va_list vargs)
{
1c00640c:	7135                	addi	sp,sp,-160
1c00640e:	c94a                	sw	s2,144(sp)
1c006410:	c74e                	sw	s3,140(sp)
1c006412:	c15a                	sw	s6,128(sp)
1c006414:	dede                	sw	s7,124(sp)
1c006416:	cf06                	sw	ra,156(sp)
1c006418:	cd22                	sw	s0,152(sp)
1c00641a:	cb26                	sw	s1,148(sp)
1c00641c:	c552                	sw	s4,136(sp)
1c00641e:	c356                	sw	s5,132(sp)
1c006420:	dce2                	sw	s8,120(sp)
1c006422:	dae6                	sw	s9,116(sp)
1c006424:	d8ea                	sw	s10,112(sp)
1c006426:	d6ee                	sw	s11,108(sp)
1c006428:	8b2a                	mv	s6,a0
1c00642a:	8bae                	mv	s7,a1
1c00642c:	8936                	mv	s2,a3
	struct zero_padding zero;
	VALTYPE val;

#define PUTC(c)	do { if ((*func)(c, dest) == EOF) return EOF; } while (false)

	count = 0;
1c00642e:	4981                	li	s3,0

	while ((c = *format++)) {
1c006430:	00064503          	lbu	a0,0(a2)
1c006434:	00160c13          	addi	s8,a2,1
1c006438:	c911                	beqz	a0,1c00644c <_prf+0x40>
		if (c != '%') {
1c00643a:	02500793          	li	a5,37
1c00643e:	14f50563          	beq	a0,a5,1c006588 <_prf+0x17c>
			PUTC(c);
1c006442:	85de                	mv	a1,s7
1c006444:	9b02                	jalr	s6
1c006446:	13f53fe3          	p.bneimm	a0,-1,1c006d84 <_prf+0x978>
1c00644a:	59fd                	li	s3,-1
		}
	}
	return count;

#undef PUTC
}
1c00644c:	40fa                	lw	ra,156(sp)
1c00644e:	446a                	lw	s0,152(sp)
1c006450:	854e                	mv	a0,s3
1c006452:	44da                	lw	s1,148(sp)
1c006454:	494a                	lw	s2,144(sp)
1c006456:	49ba                	lw	s3,140(sp)
1c006458:	4a2a                	lw	s4,136(sp)
1c00645a:	4a9a                	lw	s5,132(sp)
1c00645c:	4b0a                	lw	s6,128(sp)
1c00645e:	5bf6                	lw	s7,124(sp)
1c006460:	5c66                	lw	s8,120(sp)
1c006462:	5cd6                	lw	s9,116(sp)
1c006464:	5d46                	lw	s10,112(sp)
1c006466:	5db6                	lw	s11,108(sp)
1c006468:	610d                	addi	sp,sp,160
1c00646a:	8082                	ret
				switch (c) {
1c00646c:	108d8663          	beq	s11,s0,1c006578 <_prf+0x16c>
1c006470:	0fb46863          	bltu	s0,s11,1c006560 <_prf+0x154>
1c006474:	fc0d8ce3          	beqz	s11,1c00644c <_prf+0x40>
1c006478:	0ecd8d63          	beq	s11,a2,1c006572 <_prf+0x166>
					fplus = true;
1c00647c:	8c52                	mv	s8,s4
			while (strchr("-+ #0", (c = *format++)) != NULL) {
1c00647e:	000c4d83          	lbu	s11,0(s8)
1c006482:	1c008737          	lui	a4,0x1c008
1c006486:	87870513          	addi	a0,a4,-1928 # 1c007878 <__hyper_pad+0xe0>
1c00648a:	85ee                	mv	a1,s11
1c00648c:	c232                	sw	a2,4(sp)
1c00648e:	b33ff0ef          	jal	ra,1c005fc0 <strchr>
1c006492:	001c0a13          	addi	s4,s8,1
1c006496:	4612                	lw	a2,4(sp)
1c006498:	f971                	bnez	a0,1c00646c <_prf+0x60>
			if (c == '*') {
1c00649a:	02a00713          	li	a4,42
1c00649e:	10ed9563          	bne	s11,a4,1c0065a8 <_prf+0x19c>
				width = va_arg(vargs, int);
1c0064a2:	00092c83          	lw	s9,0(s2)
1c0064a6:	00490713          	addi	a4,s2,4
				if (width < 0) {
1c0064aa:	000cd663          	bgez	s9,1c0064b6 <_prf+0xaa>
					fminus = true;
1c0064ae:	4785                	li	a5,1
					width = -width;
1c0064b0:	41900cb3          	neg	s9,s9
					fminus = true;
1c0064b4:	cc3e                	sw	a5,24(sp)
				c = *format++;
1c0064b6:	000a4d83          	lbu	s11,0(s4)
				width = va_arg(vargs, int);
1c0064ba:	893a                	mv	s2,a4
				c = *format++;
1c0064bc:	002c0a13          	addi	s4,s8,2
			if (c == '.') {
1c0064c0:	02e00713          	li	a4,46
			precision = -1;
1c0064c4:	547d                	li	s0,-1
			if (c == '.') {
1c0064c6:	00ed9f63          	bne	s11,a4,1c0064e4 <_prf+0xd8>
				if (c == '*') {
1c0064ca:	000a4703          	lbu	a4,0(s4)
1c0064ce:	02a00793          	li	a5,42
1c0064d2:	10f71e63          	bne	a4,a5,1c0065ee <_prf+0x1e2>
					precision = va_arg(vargs, int);
1c0064d6:	00092403          	lw	s0,0(s2)
				c = *format++;
1c0064da:	0a05                	addi	s4,s4,1
					precision = va_arg(vargs, int);
1c0064dc:	0911                	addi	s2,s2,4
				c = *format++;
1c0064de:	000a4d83          	lbu	s11,0(s4)
1c0064e2:	0a05                	addi	s4,s4,1
			if (strchr("hlz", c) != NULL) {
1c0064e4:	1c008737          	lui	a4,0x1c008
1c0064e8:	85ee                	mv	a1,s11
1c0064ea:	88070513          	addi	a0,a4,-1920 # 1c007880 <__hyper_pad+0xe8>
1c0064ee:	84ee                	mv	s1,s11
1c0064f0:	ad1ff0ef          	jal	ra,1c005fc0 <strchr>
1c0064f4:	10050e63          	beqz	a0,1c006610 <_prf+0x204>
				if (i == 'l' && c == 'l') {
1c0064f8:	06c00693          	li	a3,108
				c = *format++;
1c0064fc:	001a0c13          	addi	s8,s4,1
1c006500:	000a4d83          	lbu	s11,0(s4)
				if (i == 'l' && c == 'l') {
1c006504:	0ed49963          	bne	s1,a3,1c0065f6 <_prf+0x1ea>
1c006508:	009d9863          	bne	s11,s1,1c006518 <_prf+0x10c>
					c = *format++;
1c00650c:	001a4d83          	lbu	s11,1(s4)
1c006510:	002a0c13          	addi	s8,s4,2
					i = 'L';
1c006514:	04c00493          	li	s1,76
			switch (c) {
1c006518:	06700693          	li	a3,103
1c00651c:	17b6e263          	bltu	a3,s11,1c006680 <_prf+0x274>
1c006520:	06500693          	li	a3,101
1c006524:	32ddfc63          	bleu	a3,s11,1c00685c <_prf+0x450>
1c006528:	04700693          	li	a3,71
1c00652c:	0fb6e563          	bltu	a3,s11,1c006616 <_prf+0x20a>
1c006530:	04500713          	li	a4,69
1c006534:	32edf463          	bleu	a4,s11,1c00685c <_prf+0x450>
1c006538:	f00d8ae3          	beqz	s11,1c00644c <_prf+0x40>
1c00653c:	02500713          	li	a4,37
1c006540:	02ed8de3          	beq	s11,a4,1c006d7a <_prf+0x96e>
				PUTC('%');
1c006544:	85de                	mv	a1,s7
1c006546:	02500513          	li	a0,37
1c00654a:	9b02                	jalr	s6
1c00654c:	eff52fe3          	p.beqimm	a0,-1,1c00644a <_prf+0x3e>
				PUTC(c);
1c006550:	85de                	mv	a1,s7
1c006552:	856e                	mv	a0,s11
1c006554:	9b02                	jalr	s6
1c006556:	eff52ae3          	p.beqimm	a0,-1,1c00644a <_prf+0x3e>
				count += 2;
1c00655a:	0989                	addi	s3,s3,2
1c00655c:	02b0006f          	j	1c006d86 <_prf+0x97a>
				switch (c) {
1c006560:	039d8163          	beq	s11,s9,1c006582 <_prf+0x176>
1c006564:	009d8c63          	beq	s11,s1,1c00657c <_prf+0x170>
1c006568:	f1ad9ae3          	bne	s11,s10,1c00647c <_prf+0x70>
					fplus = true;
1c00656c:	4705                	li	a4,1
1c00656e:	c63a                	sw	a4,12(sp)
					break;
1c006570:	b731                	j	1c00647c <_prf+0x70>
					fspace = true;
1c006572:	4785                	li	a5,1
1c006574:	c83e                	sw	a5,16(sp)
					break;
1c006576:	b719                	j	1c00647c <_prf+0x70>
					falt = true;
1c006578:	4a85                	li	s5,1
					break;
1c00657a:	b709                	j	1c00647c <_prf+0x70>
					fzero = true;
1c00657c:	4705                	li	a4,1
1c00657e:	ce3a                	sw	a4,28(sp)
					break;
1c006580:	bdf5                	j	1c00647c <_prf+0x70>
					fminus = true;
1c006582:	4785                	li	a5,1
1c006584:	cc3e                	sw	a5,24(sp)
1c006586:	bddd                	j	1c00647c <_prf+0x70>
			fminus = fplus = fspace = falt = fzero = false;
1c006588:	ce02                	sw	zero,28(sp)
1c00658a:	c802                	sw	zero,16(sp)
1c00658c:	c602                	sw	zero,12(sp)
1c00658e:	cc02                	sw	zero,24(sp)
1c006590:	4a81                	li	s5,0
				switch (c) {
1c006592:	02300413          	li	s0,35
1c006596:	02d00c93          	li	s9,45
1c00659a:	03000493          	li	s1,48
1c00659e:	02b00d13          	li	s10,43
1c0065a2:	02000613          	li	a2,32
1c0065a6:	bde1                	j	1c00647e <_prf+0x72>
	return ((((unsigned)c) >= ' ') && (((unsigned)c) <= '~'));
}

static inline int isdigit(int a)
{
	return (((unsigned)(a)-'0') < 10);
1c0065a8:	fd0d8713          	addi	a4,s11,-48
			} else if (!isdigit(c)) {
1c0065ac:	46a5                	li	a3,9
				width = 0;
1c0065ae:	4c81                	li	s9,0
			} else if (!isdigit(c)) {
1c0065b0:	f0e6e8e3          	bltu	a3,a4,1c0064c0 <_prf+0xb4>
	while (isdigit(*p)) {
1c0065b4:	4725                	li	a4,9
		i = 10 * i + *p++ - '0';
1c0065b6:	4629                	li	a2,10
	while (isdigit(*p)) {
1c0065b8:	8a62                	mv	s4,s8
1c0065ba:	001a4d8b          	p.lbu	s11,1(s4!)
1c0065be:	fd0d8693          	addi	a3,s11,-48
1c0065c2:	eed76fe3          	bltu	a4,a3,1c0064c0 <_prf+0xb4>
		i = 10 * i + *p++ - '0';
1c0065c6:	87ee                	mv	a5,s11
1c0065c8:	42cc87b3          	p.mac	a5,s9,a2
1c0065cc:	8c52                	mv	s8,s4
1c0065ce:	fd078c93          	addi	s9,a5,-48
1c0065d2:	b7dd                	j	1c0065b8 <_prf+0x1ac>
1c0065d4:	42b407b3          	p.mac	a5,s0,a1
1c0065d8:	8a3a                	mv	s4,a4
1c0065da:	fd078413          	addi	s0,a5,-48
	while (isdigit(*p)) {
1c0065de:	8752                	mv	a4,s4
1c0065e0:	0017478b          	p.lbu	a5,1(a4!)
1c0065e4:	fd078613          	addi	a2,a5,-48
1c0065e8:	fec6f6e3          	bleu	a2,a3,1c0065d4 <_prf+0x1c8>
1c0065ec:	bdcd                	j	1c0064de <_prf+0xd2>
	int i = 0;
1c0065ee:	4401                	li	s0,0
	while (isdigit(*p)) {
1c0065f0:	46a5                	li	a3,9
		i = 10 * i + *p++ - '0';
1c0065f2:	45a9                	li	a1,10
1c0065f4:	b7ed                	j	1c0065de <_prf+0x1d2>
				} else if (i == 'h' && c == 'h') {
1c0065f6:	06800693          	li	a3,104
1c0065fa:	f0d49fe3          	bne	s1,a3,1c006518 <_prf+0x10c>
1c0065fe:	f09d9de3          	bne	s11,s1,1c006518 <_prf+0x10c>
					c = *format++;
1c006602:	002a0c13          	addi	s8,s4,2
1c006606:	001a4d83          	lbu	s11,1(s4)
					i = 'H';
1c00660a:	04800493          	li	s1,72
1c00660e:	b729                	j	1c006518 <_prf+0x10c>
1c006610:	8c52                	mv	s8,s4
			i = 0;
1c006612:	4481                	li	s1,0
1c006614:	b711                	j	1c006518 <_prf+0x10c>
			switch (c) {
1c006616:	06300693          	li	a3,99
1c00661a:	12dd8a63          	beq	s11,a3,1c00674e <_prf+0x342>
1c00661e:	09b6e163          	bltu	a3,s11,1c0066a0 <_prf+0x294>
1c006622:	05800693          	li	a3,88
1c006626:	f0dd9fe3          	bne	s11,a3,1c006544 <_prf+0x138>
				switch (i) {
1c00662a:	06c00693          	li	a3,108
1c00662e:	6cd48363          	beq	s1,a3,1c006cf4 <_prf+0x8e8>
1c006632:	07a00693          	li	a3,122
1c006636:	6ad48f63          	beq	s1,a3,1c006cf4 <_prf+0x8e8>
1c00663a:	04c00693          	li	a3,76
1c00663e:	6ad49b63          	bne	s1,a3,1c006cf4 <_prf+0x8e8>
					val = va_arg(vargs, unsigned long long);
1c006642:	091d                	addi	s2,s2,7
1c006644:	c4093933          	p.bclr	s2,s2,2,0
1c006648:	00092583          	lw	a1,0(s2)
1c00664c:	00492603          	lw	a2,4(s2)
1c006650:	00890a13          	addi	s4,s2,8
				if (c == 'o') {
1c006654:	06f00713          	li	a4,111
1c006658:	00c4                	addi	s1,sp,68
1c00665a:	6aed9d63          	bne	s11,a4,1c006d14 <_prf+0x908>
	if (alt_form) {
1c00665e:	6a0a8163          	beqz	s5,1c006d00 <_prf+0x8f4>
		*buf++ = '0';
1c006662:	03000793          	li	a5,48
1c006666:	04f10223          	sb	a5,68(sp)
		if (!value) {
1c00666a:	00c5e7b3          	or	a5,a1,a2
		*buf++ = '0';
1c00666e:	04510513          	addi	a0,sp,69
		if (!value) {
1c006672:	68079863          	bnez	a5,1c006d02 <_prf+0x8f6>
			*buf++ = 0;
1c006676:	040102a3          	sb	zero,69(sp)
			prefix = 0;
1c00667a:	4901                	li	s2,0
			return 1;
1c00667c:	4d85                	li	s11,1
1c00667e:	a069                	j	1c006708 <_prf+0x2fc>
			switch (c) {
1c006680:	07000693          	li	a3,112
1c006684:	62dd8f63          	beq	s11,a3,1c006cc2 <_prf+0x8b6>
1c006688:	09b6e663          	bltu	a3,s11,1c006714 <_prf+0x308>
1c00668c:	06e00693          	li	a3,110
1c006690:	5edd8463          	beq	s11,a3,1c006c78 <_prf+0x86c>
1c006694:	f9b6ebe3          	bltu	a3,s11,1c00662a <_prf+0x21e>
1c006698:	06900693          	li	a3,105
1c00669c:	eadd94e3          	bne	s11,a3,1c006544 <_prf+0x138>
				switch (i) {
1c0066a0:	06c00793          	li	a5,108
1c0066a4:	18f48563          	beq	s1,a5,1c00682e <_prf+0x422>
1c0066a8:	07a00793          	li	a5,122
1c0066ac:	18f48163          	beq	s1,a5,1c00682e <_prf+0x422>
1c0066b0:	04c00793          	li	a5,76
1c0066b4:	16f49d63          	bne	s1,a5,1c00682e <_prf+0x422>
					val = va_arg(vargs, long long);
1c0066b8:	091d                	addi	s2,s2,7
1c0066ba:	c4093933          	p.bclr	s2,s2,2,0
1c0066be:	00092583          	lw	a1,0(s2)
1c0066c2:	00492a83          	lw	s5,4(s2)
1c0066c6:	00890a13          	addi	s4,s2,8
1c0066ca:	04410d93          	addi	s11,sp,68
	if (value < 0) {
1c0066ce:	160ad763          	bgez	s5,1c00683c <_prf+0x430>
		*buf++ = '-';
1c0066d2:	02d00793          	li	a5,45
		value = -value;
1c0066d6:	40b005b3          	neg	a1,a1
		*buf++ = '-';
1c0066da:	04f10223          	sb	a5,68(sp)
		value = -value;
1c0066de:	41500633          	neg	a2,s5
1c0066e2:	00b037b3          	snez	a5,a1
1c0066e6:	8e1d                	sub	a2,a2,a5
		*buf++ = ' ';
1c0066e8:	04510913          	addi	s2,sp,69
	return _to_x(buf, value, 10);
1c0066ec:	854a                	mv	a0,s2
1c0066ee:	46a9                	li	a3,10
1c0066f0:	bf3ff0ef          	jal	ra,1c0062e2 <_to_x>
				if (fplus || fspace || val < 0) {
1c0066f4:	47b2                	lw	a5,12(sp)
	return (buf + _to_udec(buf, value)) - start;
1c0066f6:	954a                	add	a0,a0,s2
1c0066f8:	41b50db3          	sub	s11,a0,s11
					prefix = 1;
1c0066fc:	4905                	li	s2,1
				if (fplus || fspace || val < 0) {
1c0066fe:	e789                	bnez	a5,1c006708 <_prf+0x2fc>
1c006700:	4742                	lw	a4,16(sp)
1c006702:	e319                	bnez	a4,1c006708 <_prf+0x2fc>
1c006704:	01fad913          	srli	s2,s5,0x1f
			if (precision >= 0) {
1c006708:	04045c63          	bgez	s0,1c006760 <_prf+0x354>
			zero.predot = zero.postdot = zero.trail = 0;
1c00670c:	4401                	li	s0,0
1c00670e:	4a81                	li	s5,0
1c006710:	4681                	li	a3,0
1c006712:	a401                	j	1c006912 <_prf+0x506>
			switch (c) {
1c006714:	07500693          	li	a3,117
1c006718:	f0dd89e3          	beq	s11,a3,1c00662a <_prf+0x21e>
1c00671c:	07800693          	li	a3,120
1c006720:	f0dd85e3          	beq	s11,a3,1c00662a <_prf+0x21e>
1c006724:	07300713          	li	a4,115
1c006728:	e0ed9ee3          	bne	s11,a4,1c006544 <_prf+0x138>
				cptr = va_arg(vargs, char *);
1c00672c:	00490a13          	addi	s4,s2,4
1c006730:	00092783          	lw	a5,0(s2)
				if (precision < 0) {
1c006734:	00045663          	bgez	s0,1c006740 <_prf+0x334>
					precision = INT_MAX;
1c006738:	80000737          	lui	a4,0x80000
1c00673c:	fff74413          	not	s0,a4
1c006740:	86be                	mv	a3,a5
				for (clen = 0; clen < precision; clen++) {
1c006742:	4d81                	li	s11,0
1c006744:	5bb41263          	bne	s0,s11,1c006ce8 <_prf+0x8dc>
1c006748:	4901                	li	s2,0
1c00674a:	4401                	li	s0,0
1c00674c:	a819                	j	1c006762 <_prf+0x356>
				buf[0] = va_arg(vargs, int);
1c00674e:	00092783          	lw	a5,0(s2)
1c006752:	00490a13          	addi	s4,s2,4
				clen = 1;
1c006756:	4d85                	li	s11,1
				buf[0] = va_arg(vargs, int);
1c006758:	04f10223          	sb	a5,68(sp)
				break;
1c00675c:	4901                	li	s2,0
1c00675e:	4401                	li	s0,0
1c006760:	00dc                	addi	a5,sp,68
				zero_head = precision - clen + prefix;
1c006762:	41b40d33          	sub	s10,s0,s11
1c006766:	9d4a                	add	s10,s10,s2
			zero.predot = zero.postdot = zero.trail = 0;
1c006768:	4401                	li	s0,0
1c00676a:	4a81                	li	s5,0
1c00676c:	4681                	li	a3,0
1c00676e:	040d6d33          	p.max	s10,s10,zero
			if (!fminus && width > 0) {
1c006772:	4762                	lw	a4,24(sp)
			width -= clen + zero_head;
1c006774:	01bd0633          	add	a2,s10,s11
1c006778:	40cc8cb3          	sub	s9,s9,a2
			if (!fminus && width > 0) {
1c00677c:	e701                	bnez	a4,1c006784 <_prf+0x378>
1c00677e:	84e6                	mv	s1,s9
1c006780:	63904263          	bgtz	s9,1c006da4 <_prf+0x998>
1c006784:	012784b3          	add	s1,a5,s2
			while (prefix-- > 0) {
1c006788:	62979463          	bne	a5,s1,1c006db0 <_prf+0x9a4>
1c00678c:	84ea                	mv	s1,s10
			while (zero_head-- > 0) {
1c00678e:	14fd                	addi	s1,s1,-1
1c006790:	63f4bc63          	p.bneimm	s1,-1,1c006dc8 <_prf+0x9bc>
			clen -= prefix;
1c006794:	412d84b3          	sub	s1,s11,s2
1c006798:	8726                	mv	a4,s1
			if (zero.predot) {
1c00679a:	c295                	beqz	a3,1c0067be <_prf+0x3b2>
				c = *cptr;
1c00679c:	0007c503          	lbu	a0,0(a5)
				while (isdigit(c)) {
1c0067a0:	8dbe                	mv	s11,a5
1c0067a2:	00978833          	add	a6,a5,s1
1c0067a6:	4625                	li	a2,9
1c0067a8:	fd050593          	addi	a1,a0,-48
1c0067ac:	41b80733          	sub	a4,a6,s11
1c0067b0:	62b67863          	bleu	a1,a2,1c006de0 <_prf+0x9d4>
1c0067b4:	8636                	mv	a2,a3
				while (zero.predot-- > 0) {
1c0067b6:	64061363          	bnez	a2,1c006dfc <_prf+0x9f0>
				clen -= zero.predot;
1c0067ba:	8f15                	sub	a4,a4,a3
1c0067bc:	87ee                	mv	a5,s11
			if (zero.postdot) {
1c0067be:	020a8e63          	beqz	s5,1c0067fa <_prf+0x3ee>
1c0067c2:	8dbe                	mv	s11,a5
1c0067c4:	00e78833          	add	a6,a5,a4
				} while (c != '.');
1c0067c8:	02e00613          	li	a2,46
					c = *cptr++;
1c0067cc:	001dc68b          	p.lbu	a3,1(s11!)
					PUTC(c);
1c0067d0:	85de                	mv	a1,s7
1c0067d2:	c232                	sw	a2,4(sp)
1c0067d4:	8536                	mv	a0,a3
1c0067d6:	c036                	sw	a3,0(sp)
1c0067d8:	c442                	sw	a6,8(sp)
1c0067da:	9b02                	jalr	s6
1c0067dc:	4612                	lw	a2,4(sp)
1c0067de:	4682                	lw	a3,0(sp)
1c0067e0:	4822                	lw	a6,8(sp)
1c0067e2:	c7f524e3          	p.beqimm	a0,-1,1c00644a <_prf+0x3e>
1c0067e6:	41b80733          	sub	a4,a6,s11
				} while (c != '.');
1c0067ea:	fec691e3          	bne	a3,a2,1c0067cc <_prf+0x3c0>
1c0067ee:	86d6                	mv	a3,s5
				while (zero.postdot-- > 0) {
1c0067f0:	62d04563          	bgtz	a3,1c006e1a <_prf+0xa0e>
				clen -= zero.postdot;
1c0067f4:	41570733          	sub	a4,a4,s5
					c = *cptr++;
1c0067f8:	87ee                	mv	a5,s11
			if (zero.trail) {
1c0067fa:	c415                	beqz	s0,1c006826 <_prf+0x41a>
				c = *cptr;
1c0067fc:	0007c503          	lbu	a0,0(a5)
				while (isdigit(c) || c == '.') {
1c006800:	8dbe                	mv	s11,a5
1c006802:	973e                	add	a4,a4,a5
1c006804:	4625                	li	a2,9
1c006806:	02e00693          	li	a3,46
1c00680a:	fd050593          	addi	a1,a0,-48
1c00680e:	41b70ab3          	sub	s5,a4,s11
1c006812:	62b67163          	bleu	a1,a2,1c006e34 <_prf+0xa28>
1c006816:	60d50f63          	beq	a0,a3,1c006e34 <_prf+0xa28>
1c00681a:	8722                	mv	a4,s0
				while (zero.trail-- > 0) {
1c00681c:	62e04a63          	bgtz	a4,1c006e50 <_prf+0xa44>
				clen -= zero.trail;
1c006820:	408a8733          	sub	a4,s5,s0
1c006824:	87ee                	mv	a5,s11
1c006826:	843e                	mv	s0,a5
1c006828:	00e78ab3          	add	s5,a5,a4
1c00682c:	a599                	j	1c006e72 <_prf+0xa66>
					val = va_arg(vargs, int);
1c00682e:	00092583          	lw	a1,0(s2)
1c006832:	00490a13          	addi	s4,s2,4
1c006836:	41f5da93          	srai	s5,a1,0x1f
					break;
1c00683a:	bd41                	j	1c0066ca <_prf+0x2be>
	} else if (fplus) {
1c00683c:	47b2                	lw	a5,12(sp)
1c00683e:	c799                	beqz	a5,1c00684c <_prf+0x440>
		*buf++ = '+';
1c006840:	02b00793          	li	a5,43
		*buf++ = ' ';
1c006844:	04f10223          	sb	a5,68(sp)
1c006848:	8656                	mv	a2,s5
1c00684a:	bd79                	j	1c0066e8 <_prf+0x2dc>
	} else if (fspace) {
1c00684c:	4742                	lw	a4,16(sp)
1c00684e:	c701                	beqz	a4,1c006856 <_prf+0x44a>
		*buf++ = ' ';
1c006850:	02000793          	li	a5,32
1c006854:	bfc5                	j	1c006844 <_prf+0x438>
	} else if (fspace) {
1c006856:	8656                	mv	a2,s5
1c006858:	896e                	mv	s2,s11
1c00685a:	bd49                	j	1c0066ec <_prf+0x2e0>
				u.d = va_arg(vargs, double);
1c00685c:	091d                	addi	s2,s2,7
1c00685e:	c4093933          	p.bclr	s2,s2,2,0
				double_val = u.i;
1c006862:	00092583          	lw	a1,0(s2)
1c006866:	00492683          	lw	a3,4(s2)
	fract = (double_temp << 11) & ~HIGHBIT64;
1c00686a:	800007b7          	lui	a5,0x80000
1c00686e:	0155d613          	srli	a2,a1,0x15
1c006872:	00b69713          	slli	a4,a3,0xb
1c006876:	8f51                	or	a4,a4,a2
1c006878:	fff7c793          	not	a5,a5
1c00687c:	05ae                	slli	a1,a1,0xb
1c00687e:	8f7d                	and	a4,a4,a5
				u.d = va_arg(vargs, double);
1c006880:	00890a13          	addi	s4,s2,8
	fract = (double_temp << 11) & ~HIGHBIT64;
1c006884:	d82e                	sw	a1,48(sp)
	exp = double_temp >> 52 & 0x7ff;
1c006886:	0146d913          	srli	s2,a3,0x14
	fract = (double_temp << 11) & ~HIGHBIT64;
1c00688a:	da3a                	sw	a4,52(sp)
	exp = double_temp >> 52 & 0x7ff;
1c00688c:	e8b93933          	p.bclr	s2,s2,20,11
	if (sign) {
1c006890:	0806d863          	bgez	a3,1c006920 <_prf+0x514>
		*buf++ = '-';
1c006894:	02d00693          	li	a3,45
		*buf++ = ' ';
1c006898:	04d10223          	sb	a3,68(sp)
1c00689c:	04510493          	addi	s1,sp,69
	if (exp == 0x7ff) {
1c0068a0:	7ff00693          	li	a3,2047
1c0068a4:	0cd91363          	bne	s2,a3,1c00696a <_prf+0x55e>
		if (!fract) {
1c0068a8:	8f4d                	or	a4,a4,a1
1c0068aa:	fbfd8793          	addi	a5,s11,-65
1c0068ae:	00348513          	addi	a0,s1,3
1c0068b2:	eb49                	bnez	a4,1c006944 <_prf+0x538>
			if (isupper(c)) {
1c0068b4:	4765                	li	a4,25
1c0068b6:	06f76f63          	bltu	a4,a5,1c006934 <_prf+0x528>
				*buf++ = 'I';
1c0068ba:	6795                	lui	a5,0x5
1c0068bc:	e4978793          	addi	a5,a5,-439 # 4e49 <__rt_stack_size+0x4649>
1c0068c0:	00f49023          	sh	a5,0(s1)
				*buf++ = 'N';
1c0068c4:	04600793          	li	a5,70
		return buf - start;
1c0068c8:	04410913          	addi	s2,sp,68
				*buf++ = 'a';
1c0068cc:	00f48123          	sb	a5,2(s1)
		*buf = 0;
1c0068d0:	000481a3          	sb	zero,3(s1)
		return buf - start;
1c0068d4:	41250533          	sub	a0,a0,s2
			zero.predot = zero.postdot = zero.trail = 0;
1c0068d8:	4401                	li	s0,0
1c0068da:	4a81                	li	s5,0
1c0068dc:	4681                	li	a3,0
				if (fplus || fspace || (buf[0] == '-')) {
1c0068de:	4732                	lw	a4,12(sp)
					prefix = 1;
1c0068e0:	4905                	li	s2,1
				if (fplus || fspace || (buf[0] == '-')) {
1c0068e2:	eb09                	bnez	a4,1c0068f4 <_prf+0x4e8>
1c0068e4:	47c2                	lw	a5,16(sp)
1c0068e6:	e799                	bnez	a5,1c0068f4 <_prf+0x4e8>
1c0068e8:	04414903          	lbu	s2,68(sp)
1c0068ec:	fd390913          	addi	s2,s2,-45
1c0068f0:	00193913          	seqz	s2,s2
				if (!isdigit(buf[prefix])) {
1c0068f4:	1098                	addi	a4,sp,96
1c0068f6:	012707b3          	add	a5,a4,s2
1c0068fa:	fe47c783          	lbu	a5,-28(a5)
				clen += zero.predot + zero.postdot + zero.trail;
1c0068fe:	015684b3          	add	s1,a3,s5
1c006902:	94a2                	add	s1,s1,s0
1c006904:	fd078793          	addi	a5,a5,-48
				if (!isdigit(buf[prefix])) {
1c006908:	4625                	li	a2,9
				clen += zero.predot + zero.postdot + zero.trail;
1c00690a:	00a48db3          	add	s11,s1,a0
				if (!isdigit(buf[prefix])) {
1c00690e:	46f66e63          	bltu	a2,a5,1c006d8a <_prf+0x97e>
			} else if (fzero) {
1c006912:	47f2                	lw	a5,28(sp)
1c006914:	46078b63          	beqz	a5,1c006d8a <_prf+0x97e>
				zero_head = width - clen;
1c006918:	41bc8d33          	sub	s10,s9,s11
1c00691c:	00dc                	addi	a5,sp,68
1c00691e:	bd81                	j	1c00676e <_prf+0x362>
	} else if (fplus) {
1c006920:	47b2                	lw	a5,12(sp)
		*buf++ = '+';
1c006922:	02b00693          	li	a3,43
	} else if (fplus) {
1c006926:	fbad                	bnez	a5,1c006898 <_prf+0x48c>
	} else if (fspace) {
1c006928:	47c2                	lw	a5,16(sp)
1c00692a:	00c4                	addi	s1,sp,68
1c00692c:	dbb5                	beqz	a5,1c0068a0 <_prf+0x494>
		*buf++ = ' ';
1c00692e:	02000693          	li	a3,32
1c006932:	b79d                	j	1c006898 <_prf+0x48c>
				*buf++ = 'i';
1c006934:	679d                	lui	a5,0x7
1c006936:	e6978793          	addi	a5,a5,-407 # 6e69 <__rt_stack_size+0x6669>
1c00693a:	00f49023          	sh	a5,0(s1)
				*buf++ = 'n';
1c00693e:	06600793          	li	a5,102
1c006942:	b759                	j	1c0068c8 <_prf+0x4bc>
			if (isupper(c)) {
1c006944:	4765                	li	a4,25
1c006946:	00f76a63          	bltu	a4,a5,1c00695a <_prf+0x54e>
				*buf++ = 'N';
1c00694a:	6791                	lui	a5,0x4
1c00694c:	14e78793          	addi	a5,a5,334 # 414e <__rt_stack_size+0x394e>
1c006950:	00f49023          	sh	a5,0(s1)
				*buf++ = 'A';
1c006954:	04e00793          	li	a5,78
1c006958:	bf85                	j	1c0068c8 <_prf+0x4bc>
				*buf++ = 'n';
1c00695a:	6799                	lui	a5,0x6
1c00695c:	16e78793          	addi	a5,a5,366 # 616e <__rt_stack_size+0x596e>
1c006960:	00f49023          	sh	a5,0(s1)
				*buf++ = 'a';
1c006964:	06e00793          	li	a5,110
1c006968:	b785                	j	1c0068c8 <_prf+0x4bc>
	if (c == 'F') {
1c00696a:	04600693          	li	a3,70
1c00696e:	00dd9463          	bne	s11,a3,1c006976 <_prf+0x56a>
		c = 'f';
1c006972:	06600d93          	li	s11,102
	if ((exp | fract) != 0) {
1c006976:	41f95613          	srai	a2,s2,0x1f
1c00697a:	00b966b3          	or	a3,s2,a1
1c00697e:	8e59                	or	a2,a2,a4
1c006980:	8ed1                	or	a3,a3,a2
1c006982:	1c068263          	beqz	a3,1c006b46 <_prf+0x73a>
		if (exp == 0) {
1c006986:	10090d63          	beqz	s2,1c006aa0 <_prf+0x694>
		fract |= HIGHBIT64;
1c00698a:	5752                	lw	a4,52(sp)
1c00698c:	800007b7          	lui	a5,0x80000
		exp -= (1023 - 1);	/* +1 since .1 vs 1. */
1c006990:	c0290913          	addi	s2,s2,-1022
		fract |= HIGHBIT64;
1c006994:	8f5d                	or	a4,a4,a5
1c006996:	da3a                	sw	a4,52(sp)
1c006998:	4d01                	li	s10,0
	while (exp <= -3) {
1c00699a:	5779                	li	a4,-2
1c00699c:	10e94f63          	blt	s2,a4,1c006aba <_prf+0x6ae>
	while (exp > 0) {
1c0069a0:	17204663          	bgtz	s2,1c006b0c <_prf+0x700>
		_rlrshift(&fract);
1c0069a4:	1808                	addi	a0,sp,48
		exp++;
1c0069a6:	0905                	addi	s2,s2,1
		_rlrshift(&fract);
1c0069a8:	9cdff0ef          	jal	ra,1c006374 <_rlrshift>
	while (exp < (0 + 4)) {
1c0069ac:	fe493ce3          	p.bneimm	s2,4,1c0069a4 <_prf+0x598>
	if (precision < 0) {
1c0069b0:	00045363          	bgez	s0,1c0069b6 <_prf+0x5aa>
		precision = 6;		/* Default precision if none given */
1c0069b4:	4419                	li	s0,6
	if ((c == 'g') || (c == 'G')) {
1c0069b6:	0dfdf713          	andi	a4,s11,223
1c0069ba:	04700693          	li	a3,71
	prune_zero = false;		/* Assume trailing 0's allowed     */
1c0069be:	ca02                	sw	zero,20(sp)
	if ((c == 'g') || (c == 'G')) {
1c0069c0:	02d71563          	bne	a4,a3,1c0069ea <_prf+0x5de>
		if (decexp < (-4 + 1) || decexp > precision) {
1c0069c4:	5775                	li	a4,-3
1c0069c6:	00ed4463          	blt	s10,a4,1c0069ce <_prf+0x5c2>
1c0069ca:	19a45163          	ble	s10,s0,1c006b4c <_prf+0x740>
			c += 'e' - 'g';
1c0069ce:	ffed8793          	addi	a5,s11,-2
1c0069d2:	0ff7fd93          	andi	s11,a5,255
			if (precision > 0) {
1c0069d6:	4c040e63          	beqz	s0,1c006eb2 <_prf+0xaa6>
				precision--;
1c0069da:	147d                	addi	s0,s0,-1
		if (!falt && (precision > 0)) {
1c0069dc:	4c0a9b63          	bnez	s5,1c006eb2 <_prf+0xaa6>
1c0069e0:	00802933          	sgtz	s2,s0
1c0069e4:	0ff97913          	andi	s2,s2,255
1c0069e8:	ca4a                	sw	s2,20(sp)
	if (c == 'f') {
1c0069ea:	06600713          	li	a4,102
1c0069ee:	4ced9363          	bne	s11,a4,1c006eb4 <_prf+0xaa8>
		exp = precision + decexp;
1c0069f2:	008d0733          	add	a4,s10,s0
		if (exp < 0) {
1c0069f6:	06600d93          	li	s11,102
1c0069fa:	4a075f63          	bgez	a4,1c006eb8 <_prf+0xaac>
	digit_count = 16;
1c0069fe:	4741                	li	a4,16
1c006a00:	d63a                	sw	a4,44(sp)
			exp = 0;
1c006a02:	4901                	li	s2,0
	ltemp = 0x0800000000000000;
1c006a04:	4601                	li	a2,0
1c006a06:	080006b7          	lui	a3,0x8000
1c006a0a:	dc32                	sw	a2,56(sp)
1c006a0c:	de36                	sw	a3,60(sp)
	while (exp--) {
1c006a0e:	197d                	addi	s2,s2,-1
1c006a10:	15f93563          	p.bneimm	s2,-1,1c006b5a <_prf+0x74e>
	fract += ltemp;
1c006a14:	5742                	lw	a4,48(sp)
1c006a16:	56e2                	lw	a3,56(sp)
1c006a18:	5652                	lw	a2,52(sp)
1c006a1a:	55f2                	lw	a1,60(sp)
1c006a1c:	96ba                	add	a3,a3,a4
1c006a1e:	00e6b733          	sltu	a4,a3,a4
1c006a22:	962e                	add	a2,a2,a1
1c006a24:	9732                	add	a4,a4,a2
1c006a26:	da3a                	sw	a4,52(sp)
1c006a28:	d836                	sw	a3,48(sp)
	if ((fract >> 32) & 0xF0000000) {
1c006a2a:	f6073733          	p.bclr	a4,a4,27,0
1c006a2e:	cb01                	beqz	a4,1c006a3e <_prf+0x632>
		_ldiv5(&fract);
1c006a30:	1808                	addi	a0,sp,48
1c006a32:	963ff0ef          	jal	ra,1c006394 <_ldiv5>
		_rlrshift(&fract);
1c006a36:	1808                	addi	a0,sp,48
1c006a38:	93dff0ef          	jal	ra,1c006374 <_rlrshift>
		decexp++;
1c006a3c:	0d05                	addi	s10,s10,1
	if (c == 'f') {
1c006a3e:	06600713          	li	a4,102
1c006a42:	16ed9163          	bne	s11,a4,1c006ba4 <_prf+0x798>
		if (decexp > 0) {
1c006a46:	8926                	mv	s2,s1
1c006a48:	13a04963          	bgtz	s10,1c006b7a <_prf+0x76e>
			*buf++ = '0';
1c006a4c:	03000713          	li	a4,48
1c006a50:	00e48023          	sb	a4,0(s1)
1c006a54:	00148913          	addi	s2,s1,1
			zero.predot = zero.postdot = zero.trail = 0;
1c006a58:	4681                	li	a3,0
		if (falt || (precision > 0)) {
1c006a5a:	120a8763          	beqz	s5,1c006b88 <_prf+0x77c>
			*buf++ = '.';
1c006a5e:	02e00593          	li	a1,46
1c006a62:	00b90023          	sb	a1,0(s2)
1c006a66:	00190713          	addi	a4,s2,1
		if (decexp < 0 && precision > 0) {
1c006a6a:	440d0263          	beqz	s10,1c006eae <_prf+0xaa2>
1c006a6e:	12805863          	blez	s0,1c006b9e <_prf+0x792>
			zp->postdot = -decexp;
1c006a72:	41a00ab3          	neg	s5,s10
1c006a76:	048acab3          	p.min	s5,s5,s0
			precision -= zp->postdot;
1c006a7a:	41540433          	sub	s0,s0,s5
			zero.predot = zero.postdot = zero.trail = 0;
1c006a7e:	893a                	mv	s2,a4
		while (precision > 0 && digit_count > 0) {
1c006a80:	10805763          	blez	s0,1c006b8e <_prf+0x782>
1c006a84:	5732                	lw	a4,44(sp)
1c006a86:	10e05463          	blez	a4,1c006b8e <_prf+0x782>
			*buf++ = _get_digit(&fract, &digit_count);
1c006a8a:	106c                	addi	a1,sp,44
1c006a8c:	1808                	addi	a0,sp,48
1c006a8e:	c036                	sw	a3,0(sp)
1c006a90:	949ff0ef          	jal	ra,1c0063d8 <_get_digit>
1c006a94:	00a900ab          	p.sb	a0,1(s2!)
			precision--;
1c006a98:	147d                	addi	s0,s0,-1
1c006a9a:	4682                	lw	a3,0(sp)
1c006a9c:	b7d5                	j	1c006a80 <_prf+0x674>
				exp--;
1c006a9e:	197d                	addi	s2,s2,-1
			while (((fract <<= 1) & HIGHBIT64) == 0) {
1c006aa0:	01f5d693          	srli	a3,a1,0x1f
1c006aa4:	0706                	slli	a4,a4,0x1
1c006aa6:	8f55                	or	a4,a4,a3
1c006aa8:	0586                	slli	a1,a1,0x1
1c006aaa:	fe075ae3          	bgez	a4,1c006a9e <_prf+0x692>
1c006aae:	d82e                	sw	a1,48(sp)
1c006ab0:	da3a                	sw	a4,52(sp)
1c006ab2:	bde1                	j	1c00698a <_prf+0x57e>
			_rlrshift(&fract);
1c006ab4:	1808                	addi	a0,sp,48
1c006ab6:	8bfff0ef          	jal	ra,1c006374 <_rlrshift>
		while ((fract >> 32) >= (MAXFP1 / 5)) {
1c006aba:	55d2                	lw	a1,52(sp)
1c006abc:	33333737          	lui	a4,0x33333
1c006ac0:	33270713          	addi	a4,a4,818 # 33333332 <__l2_end+0x1732b31a>
1c006ac4:	5642                	lw	a2,48(sp)
1c006ac6:	0905                	addi	s2,s2,1
1c006ac8:	feb766e3          	bltu	a4,a1,1c006ab4 <_prf+0x6a8>
		fract *= 5U;
1c006acc:	4695                	li	a3,5
1c006ace:	02c6b733          	mulhu	a4,a3,a2
		decexp--;
1c006ad2:	1d7d                	addi	s10,s10,-1
		fract *= 5U;
1c006ad4:	02c68633          	mul	a2,a3,a2
1c006ad8:	42b68733          	p.mac	a4,a3,a1
1c006adc:	d832                	sw	a2,48(sp)
		decexp--;
1c006ade:	4681                	li	a3,0
		fract *= 5U;
1c006ae0:	da3a                	sw	a4,52(sp)
		while ((fract >> 32) <= (MAXFP1 / 2)) {
1c006ae2:	800007b7          	lui	a5,0x80000
1c006ae6:	fff7c793          	not	a5,a5
1c006aea:	00e7f763          	bleu	a4,a5,1c006af8 <_prf+0x6ec>
1c006aee:	ea0686e3          	beqz	a3,1c00699a <_prf+0x58e>
1c006af2:	d832                	sw	a2,48(sp)
1c006af4:	da3a                	sw	a4,52(sp)
1c006af6:	b555                	j	1c00699a <_prf+0x58e>
			fract <<= 1;
1c006af8:	01f65593          	srli	a1,a2,0x1f
1c006afc:	00171693          	slli	a3,a4,0x1
1c006b00:	00d5e733          	or	a4,a1,a3
1c006b04:	0606                	slli	a2,a2,0x1
			exp--;
1c006b06:	197d                	addi	s2,s2,-1
1c006b08:	4685                	li	a3,1
1c006b0a:	bfe1                	j	1c006ae2 <_prf+0x6d6>
		_ldiv5(&fract);
1c006b0c:	1808                	addi	a0,sp,48
1c006b0e:	887ff0ef          	jal	ra,1c006394 <_ldiv5>
1c006b12:	5642                	lw	a2,48(sp)
1c006b14:	5752                	lw	a4,52(sp)
		exp--;
1c006b16:	197d                	addi	s2,s2,-1
		decexp++;
1c006b18:	0d05                	addi	s10,s10,1
1c006b1a:	4681                	li	a3,0
		while ((fract >> 32) <= (MAXFP1 / 2)) {
1c006b1c:	800007b7          	lui	a5,0x80000
1c006b20:	fff7c793          	not	a5,a5
1c006b24:	00e7f763          	bleu	a4,a5,1c006b32 <_prf+0x726>
1c006b28:	e6068ce3          	beqz	a3,1c0069a0 <_prf+0x594>
1c006b2c:	d832                	sw	a2,48(sp)
1c006b2e:	da3a                	sw	a4,52(sp)
1c006b30:	bd85                	j	1c0069a0 <_prf+0x594>
			fract <<= 1;
1c006b32:	01f65593          	srli	a1,a2,0x1f
1c006b36:	00171693          	slli	a3,a4,0x1
1c006b3a:	00d5e733          	or	a4,a1,a3
1c006b3e:	0606                	slli	a2,a2,0x1
			exp--;
1c006b40:	197d                	addi	s2,s2,-1
1c006b42:	4685                	li	a3,1
1c006b44:	bfe1                	j	1c006b1c <_prf+0x710>
	if ((exp | fract) != 0) {
1c006b46:	4d01                	li	s10,0
1c006b48:	4901                	li	s2,0
1c006b4a:	bda9                	j	1c0069a4 <_prf+0x598>
			precision -= decexp;
1c006b4c:	41a40433          	sub	s0,s0,s10
		if (!falt && (precision > 0)) {
1c006b50:	ea0a91e3          	bnez	s5,1c0069f2 <_prf+0x5e6>
			c = 'f';
1c006b54:	06600d93          	li	s11,102
1c006b58:	b561                	j	1c0069e0 <_prf+0x5d4>
		_ldiv5(&ltemp);
1c006b5a:	1828                	addi	a0,sp,56
1c006b5c:	839ff0ef          	jal	ra,1c006394 <_ldiv5>
		_rlrshift(&ltemp);
1c006b60:	1828                	addi	a0,sp,56
1c006b62:	813ff0ef          	jal	ra,1c006374 <_rlrshift>
1c006b66:	b565                	j	1c006a0e <_prf+0x602>
				*buf++ = _get_digit(&fract, &digit_count);
1c006b68:	106c                	addi	a1,sp,44
1c006b6a:	1808                	addi	a0,sp,48
1c006b6c:	86dff0ef          	jal	ra,1c0063d8 <_get_digit>
1c006b70:	00a900ab          	p.sb	a0,1(s2!)
				decexp--;
1c006b74:	1d7d                	addi	s10,s10,-1
			while (decexp > 0 && digit_count > 0) {
1c006b76:	000d0563          	beqz	s10,1c006b80 <_prf+0x774>
1c006b7a:	5732                	lw	a4,44(sp)
1c006b7c:	fee046e3          	bgtz	a4,1c006b68 <_prf+0x75c>
		if (falt || (precision > 0)) {
1c006b80:	300a9f63          	bnez	s5,1c006e9e <_prf+0xa92>
			zp->predot = decexp;
1c006b84:	86ea                	mv	a3,s10
			decexp = 0;
1c006b86:	4d01                	li	s10,0
			zero.predot = zero.postdot = zero.trail = 0;
1c006b88:	4a81                	li	s5,0
		if (falt || (precision > 0)) {
1c006b8a:	ec804ae3          	bgtz	s0,1c006a5e <_prf+0x652>
	if (prune_zero) {
1c006b8e:	4752                	lw	a4,20(sp)
1c006b90:	eb31                	bnez	a4,1c006be4 <_prf+0x7d8>
	return buf - start;
1c006b92:	00c8                	addi	a0,sp,68
	*buf = 0;
1c006b94:	00090023          	sb	zero,0(s2)
	return buf - start;
1c006b98:	40a90533          	sub	a0,s2,a0
1c006b9c:	b389                	j	1c0068de <_prf+0x4d2>
			*buf++ = '.';
1c006b9e:	893a                	mv	s2,a4
			zero.predot = zero.postdot = zero.trail = 0;
1c006ba0:	4a81                	li	s5,0
1c006ba2:	b7f5                	j	1c006b8e <_prf+0x782>
		*buf = _get_digit(&fract, &digit_count);
1c006ba4:	106c                	addi	a1,sp,44
1c006ba6:	1808                	addi	a0,sp,48
1c006ba8:	831ff0ef          	jal	ra,1c0063d8 <_get_digit>
1c006bac:	00a48023          	sb	a0,0(s1)
		if (*buf++ != '0') {
1c006bb0:	03000713          	li	a4,48
1c006bb4:	00e50363          	beq	a0,a4,1c006bba <_prf+0x7ae>
			decexp--;
1c006bb8:	1d7d                	addi	s10,s10,-1
		if (falt || (precision > 0)) {
1c006bba:	000a9663          	bnez	s5,1c006bc6 <_prf+0x7ba>
		if (*buf++ != '0') {
1c006bbe:	00148913          	addi	s2,s1,1
		if (falt || (precision > 0)) {
1c006bc2:	00805d63          	blez	s0,1c006bdc <_prf+0x7d0>
			*buf++ = '.';
1c006bc6:	02e00713          	li	a4,46
1c006bca:	00248913          	addi	s2,s1,2
1c006bce:	00e480a3          	sb	a4,1(s1)
		while (precision > 0 && digit_count > 0) {
1c006bd2:	00805563          	blez	s0,1c006bdc <_prf+0x7d0>
1c006bd6:	5732                	lw	a4,44(sp)
1c006bd8:	08e04663          	bgtz	a4,1c006c64 <_prf+0x858>
	if (prune_zero) {
1c006bdc:	47d2                	lw	a5,20(sp)
			zero.predot = zero.postdot = zero.trail = 0;
1c006bde:	4a81                	li	s5,0
1c006be0:	4681                	li	a3,0
	if (prune_zero) {
1c006be2:	cf99                	beqz	a5,1c006c00 <_prf+0x7f4>
		while (*--buf == '0')
1c006be4:	03000513          	li	a0,48
1c006be8:	fff90713          	addi	a4,s2,-1
1c006bec:	00074583          	lbu	a1,0(a4)
1c006bf0:	08a58263          	beq	a1,a0,1c006c74 <_prf+0x868>
		if (*buf != '.') {
1c006bf4:	02e00513          	li	a0,46
		zp->trail = 0;
1c006bf8:	4401                	li	s0,0
		if (*buf != '.') {
1c006bfa:	00a59363          	bne	a1,a0,1c006c00 <_prf+0x7f4>
		while (*--buf == '0')
1c006bfe:	893a                	mv	s2,a4
	if ((c == 'e') || (c == 'E')) {
1c006c00:	0dfdf713          	andi	a4,s11,223
1c006c04:	04500593          	li	a1,69
1c006c08:	f8b715e3          	bne	a4,a1,1c006b92 <_prf+0x786>
		*buf++ = c;
1c006c0c:	85ca                	mv	a1,s2
1c006c0e:	01b5812b          	p.sb	s11,2(a1!)
			*buf++ = '+';
1c006c12:	02b00793          	li	a5,43
		if (decexp < 0) {
1c006c16:	000d5663          	bgez	s10,1c006c22 <_prf+0x816>
			decexp = -decexp;
1c006c1a:	41a00d33          	neg	s10,s10
			*buf++ = '-';
1c006c1e:	02d00793          	li	a5,45
			*buf++ = '+';
1c006c22:	00f900a3          	sb	a5,1(s2)
		if (decexp >= 100) {
1c006c26:	06300793          	li	a5,99
1c006c2a:	01a7de63          	ble	s10,a5,1c006c46 <_prf+0x83a>
			*buf++ = (decexp / 100) + '0';
1c006c2e:	06400713          	li	a4,100
1c006c32:	02ed47b3          	div	a5,s10,a4
1c006c36:	00390593          	addi	a1,s2,3
			decexp %= 100;
1c006c3a:	02ed6d33          	rem	s10,s10,a4
			*buf++ = (decexp / 100) + '0';
1c006c3e:	03078793          	addi	a5,a5,48 # 80000030 <pulp__FC+0x80000031>
1c006c42:	00f90123          	sb	a5,2(s2)
		*buf++ = (decexp / 10) + '0';
1c006c46:	47a9                	li	a5,10
1c006c48:	892e                	mv	s2,a1
1c006c4a:	02fd4733          	div	a4,s10,a5
		decexp %= 10;
1c006c4e:	02fd68b3          	rem	a7,s10,a5
		*buf++ = (decexp / 10) + '0';
1c006c52:	03070713          	addi	a4,a4,48
1c006c56:	00e9012b          	p.sb	a4,2(s2!)
		*buf++ = decexp + '0';
1c006c5a:	03088893          	addi	a7,a7,48
1c006c5e:	011580a3          	sb	a7,1(a1)
1c006c62:	bf05                	j	1c006b92 <_prf+0x786>
			*buf++ = _get_digit(&fract, &digit_count);
1c006c64:	106c                	addi	a1,sp,44
1c006c66:	1808                	addi	a0,sp,48
1c006c68:	f70ff0ef          	jal	ra,1c0063d8 <_get_digit>
1c006c6c:	00a900ab          	p.sb	a0,1(s2!)
			precision--;
1c006c70:	147d                	addi	s0,s0,-1
1c006c72:	b785                	j	1c006bd2 <_prf+0x7c6>
		while (*--buf == '0')
1c006c74:	893a                	mv	s2,a4
1c006c76:	bf8d                	j	1c006be8 <_prf+0x7dc>
1c006c78:	8a4a                	mv	s4,s2
				switch (i) {
1c006c7a:	04c00693          	li	a3,76
1c006c7e:	004a278b          	p.lw	a5,4(s4!)
1c006c82:	02d48a63          	beq	s1,a3,1c006cb6 <_prf+0x8aa>
1c006c86:	0096c963          	blt	a3,s1,1c006c98 <_prf+0x88c>
1c006c8a:	04800693          	li	a3,72
1c006c8e:	02d48063          	beq	s1,a3,1c006cae <_prf+0x8a2>
					*va_arg(vargs, int *) = count;
1c006c92:	0137a023          	sw	s3,0(a5)
					break;
1c006c96:	a801                	j	1c006ca6 <_prf+0x89a>
				switch (i) {
1c006c98:	06800693          	li	a3,104
1c006c9c:	fed49be3          	bne	s1,a3,1c006c92 <_prf+0x886>
					*va_arg(vargs, short *) = count;
1c006ca0:	874e                	mv	a4,s3
1c006ca2:	00e79023          	sh	a4,0(a5)
				continue;
1c006ca6:	8952                	mv	s2,s4
1c006ca8:	8662                	mv	a2,s8
1c006caa:	f86ff06f          	j	1c006430 <_prf+0x24>
					*va_arg(vargs, char *) = count;
1c006cae:	874e                	mv	a4,s3
1c006cb0:	00e78023          	sb	a4,0(a5)
					break;
1c006cb4:	bfcd                	j	1c006ca6 <_prf+0x89a>
					*va_arg(vargs, long long *) = count;
1c006cb6:	41f9d713          	srai	a4,s3,0x1f
1c006cba:	0137a023          	sw	s3,0(a5)
1c006cbe:	c3d8                	sw	a4,4(a5)
					break;
1c006cc0:	b7dd                	j	1c006ca6 <_prf+0x89a>
				clen = _to_hex(buf, val, true, 'x');
1c006cc2:	00092583          	lw	a1,0(s2)
		*buf++ = '0';
1c006cc6:	77e1                	lui	a5,0xffff8
1c006cc8:	8307c793          	xori	a5,a5,-2000
	len = _to_x(buf, value, 16);
1c006ccc:	46c1                	li	a3,16
1c006cce:	4601                	li	a2,0
1c006cd0:	04610513          	addi	a0,sp,70
		*buf++ = '0';
1c006cd4:	04f11223          	sh	a5,68(sp)
	len = _to_x(buf, value, 16);
1c006cd8:	e0aff0ef          	jal	ra,1c0062e2 <_to_x>
				val = (uintptr_t) va_arg(vargs, void *);
1c006cdc:	00490a13          	addi	s4,s2,4
	return len + (buf - buf0);
1c006ce0:	00250d93          	addi	s11,a0,2
				prefix = 2;
1c006ce4:	4909                	li	s2,2
				break;
1c006ce6:	b40d                	j	1c006708 <_prf+0x2fc>
					if (cptr[clen] == '\0') {
1c006ce8:	0016c60b          	p.lbu	a2,1(a3!) # 8000001 <__L2+0x7f80001>
1c006cec:	a4060ee3          	beqz	a2,1c006748 <_prf+0x33c>
				for (clen = 0; clen < precision; clen++) {
1c006cf0:	0d85                	addi	s11,s11,1
1c006cf2:	bc89                	j	1c006744 <_prf+0x338>
					val = va_arg(vargs, unsigned int);
1c006cf4:	00490a13          	addi	s4,s2,4
1c006cf8:	00092583          	lw	a1,0(s2)
1c006cfc:	4601                	li	a2,0
					break;
1c006cfe:	ba99                	j	1c006654 <_prf+0x248>
	if (alt_form) {
1c006d00:	8526                	mv	a0,s1
	return (buf - buf0) + _to_x(buf, value, 8);
1c006d02:	46a1                	li	a3,8
1c006d04:	409504b3          	sub	s1,a0,s1
1c006d08:	ddaff0ef          	jal	ra,1c0062e2 <_to_x>
1c006d0c:	00a48db3          	add	s11,s1,a0
			prefix = 0;
1c006d10:	4901                	li	s2,0
1c006d12:	badd                	j	1c006708 <_prf+0x2fc>
				} else if (c == 'u') {
1c006d14:	07500713          	li	a4,117
1c006d18:	00ed9863          	bne	s11,a4,1c006d28 <_prf+0x91c>
	return _to_x(buf, value, 10);
1c006d1c:	46a9                	li	a3,10
1c006d1e:	8526                	mv	a0,s1
1c006d20:	dc2ff0ef          	jal	ra,1c0062e2 <_to_x>
1c006d24:	8daa                	mv	s11,a0
1c006d26:	b7ed                	j	1c006d10 <_prf+0x904>
	if (alt_form) {
1c006d28:	8d26                	mv	s10,s1
1c006d2a:	000a8963          	beqz	s5,1c006d3c <_prf+0x930>
		*buf++ = '0';
1c006d2e:	7761                	lui	a4,0xffff8
1c006d30:	83074713          	xori	a4,a4,-2000
1c006d34:	04e11223          	sh	a4,68(sp)
		*buf++ = 'x';
1c006d38:	04610d13          	addi	s10,sp,70
	len = _to_x(buf, value, 16);
1c006d3c:	46c1                	li	a3,16
1c006d3e:	856a                	mv	a0,s10
1c006d40:	da2ff0ef          	jal	ra,1c0062e2 <_to_x>
	if (prefix == 'X') {
1c006d44:	05800713          	li	a4,88
1c006d48:	02ed9263          	bne	s11,a4,1c006d6c <_prf+0x960>
1c006d4c:	87a6                	mv	a5,s1
		if (*buf >= 'a' && *buf <= 'z') {
1c006d4e:	45e5                	li	a1,25
1c006d50:	0017c68b          	p.lbu	a3,1(a5!) # ffff8001 <pulp__FC+0xffff8002>
1c006d54:	f9f68613          	addi	a2,a3,-97
1c006d58:	0ff67613          	andi	a2,a2,255
1c006d5c:	00c5e563          	bltu	a1,a2,1c006d66 <_prf+0x95a>
			*buf += 'A' - 'a';
1c006d60:	1681                	addi	a3,a3,-32
1c006d62:	fed78fa3          	sb	a3,-1(a5)
	} while (*buf++);
1c006d66:	fff7c703          	lbu	a4,-1(a5)
1c006d6a:	f37d                	bnez	a4,1c006d50 <_prf+0x944>
	return len + (buf - buf0);
1c006d6c:	409d0733          	sub	a4,s10,s1
1c006d70:	00a70db3          	add	s11,a4,a0
			prefix = 0;
1c006d74:	001a9913          	slli	s2,s5,0x1
1c006d78:	ba41                	j	1c006708 <_prf+0x2fc>
				PUTC('%');
1c006d7a:	85de                	mv	a1,s7
1c006d7c:	02500513          	li	a0,37
1c006d80:	ec4ff06f          	j	1c006444 <_prf+0x38>
				count++;
1c006d84:	0985                	addi	s3,s3,1
				continue;
1c006d86:	8a4a                	mv	s4,s2
1c006d88:	bf39                	j	1c006ca6 <_prf+0x89a>
1c006d8a:	00dc                	addi	a5,sp,68
				zero_head = 0;
1c006d8c:	4d01                	li	s10,0
1c006d8e:	b2d5                	j	1c006772 <_prf+0x366>
					PUTC(' ');
1c006d90:	85de                	mv	a1,s7
1c006d92:	02000513          	li	a0,32
1c006d96:	c036                	sw	a3,0(sp)
1c006d98:	c43e                	sw	a5,8(sp)
1c006d9a:	9b02                	jalr	s6
1c006d9c:	4682                	lw	a3,0(sp)
1c006d9e:	47a2                	lw	a5,8(sp)
1c006da0:	ebf52563          	p.beqimm	a0,-1,1c00644a <_prf+0x3e>
				while (width-- > 0) {
1c006da4:	14fd                	addi	s1,s1,-1
1c006da6:	fff4b5e3          	p.bneimm	s1,-1,1c006d90 <_prf+0x984>
				count += width;
1c006daa:	99e6                	add	s3,s3,s9
				while (width-- > 0) {
1c006dac:	5cfd                	li	s9,-1
1c006dae:	bad9                	j	1c006784 <_prf+0x378>
				PUTC(*cptr++);
1c006db0:	0017c50b          	p.lbu	a0,1(a5!)
1c006db4:	85de                	mv	a1,s7
1c006db6:	c036                	sw	a3,0(sp)
1c006db8:	c43e                	sw	a5,8(sp)
1c006dba:	9b02                	jalr	s6
1c006dbc:	4682                	lw	a3,0(sp)
1c006dbe:	47a2                	lw	a5,8(sp)
1c006dc0:	9df534e3          	p.bneimm	a0,-1,1c006788 <_prf+0x37c>
1c006dc4:	e86ff06f          	j	1c00644a <_prf+0x3e>
				PUTC('0');
1c006dc8:	85de                	mv	a1,s7
1c006dca:	03000513          	li	a0,48
1c006dce:	c036                	sw	a3,0(sp)
1c006dd0:	c43e                	sw	a5,8(sp)
1c006dd2:	9b02                	jalr	s6
1c006dd4:	4682                	lw	a3,0(sp)
1c006dd6:	47a2                	lw	a5,8(sp)
1c006dd8:	9bf53be3          	p.bneimm	a0,-1,1c00678e <_prf+0x382>
1c006ddc:	e6eff06f          	j	1c00644a <_prf+0x3e>
					PUTC(c);
1c006de0:	85de                	mv	a1,s7
1c006de2:	c232                	sw	a2,4(sp)
1c006de4:	c036                	sw	a3,0(sp)
1c006de6:	c442                	sw	a6,8(sp)
1c006de8:	9b02                	jalr	s6
1c006dea:	4612                	lw	a2,4(sp)
1c006dec:	4682                	lw	a3,0(sp)
1c006dee:	4822                	lw	a6,8(sp)
1c006df0:	e5f52d63          	p.beqimm	a0,-1,1c00644a <_prf+0x3e>
					c = *++cptr;
1c006df4:	0d85                	addi	s11,s11,1
1c006df6:	000dc503          	lbu	a0,0(s11)
1c006dfa:	b27d                	j	1c0067a8 <_prf+0x39c>
					PUTC('0');
1c006dfc:	85de                	mv	a1,s7
1c006dfe:	03000513          	li	a0,48
1c006e02:	c232                	sw	a2,4(sp)
1c006e04:	c036                	sw	a3,0(sp)
1c006e06:	c43a                	sw	a4,8(sp)
1c006e08:	9b02                	jalr	s6
1c006e0a:	4612                	lw	a2,4(sp)
1c006e0c:	4682                	lw	a3,0(sp)
1c006e0e:	4722                	lw	a4,8(sp)
1c006e10:	167d                	addi	a2,a2,-1
1c006e12:	9bf532e3          	p.bneimm	a0,-1,1c0067b6 <_prf+0x3aa>
1c006e16:	e34ff06f          	j	1c00644a <_prf+0x3e>
					PUTC('0');
1c006e1a:	85de                	mv	a1,s7
1c006e1c:	03000513          	li	a0,48
1c006e20:	c036                	sw	a3,0(sp)
1c006e22:	c43a                	sw	a4,8(sp)
1c006e24:	9b02                	jalr	s6
1c006e26:	4682                	lw	a3,0(sp)
1c006e28:	4722                	lw	a4,8(sp)
1c006e2a:	16fd                	addi	a3,a3,-1
1c006e2c:	9df532e3          	p.bneimm	a0,-1,1c0067f0 <_prf+0x3e4>
1c006e30:	e1aff06f          	j	1c00644a <_prf+0x3e>
					PUTC(c);
1c006e34:	85de                	mv	a1,s7
1c006e36:	c232                	sw	a2,4(sp)
1c006e38:	c036                	sw	a3,0(sp)
1c006e3a:	c43a                	sw	a4,8(sp)
1c006e3c:	9b02                	jalr	s6
1c006e3e:	4612                	lw	a2,4(sp)
1c006e40:	4682                	lw	a3,0(sp)
1c006e42:	4722                	lw	a4,8(sp)
1c006e44:	e1f52363          	p.beqimm	a0,-1,1c00644a <_prf+0x3e>
					c = *++cptr;
1c006e48:	0d85                	addi	s11,s11,1
1c006e4a:	000dc503          	lbu	a0,0(s11)
1c006e4e:	ba75                	j	1c00680a <_prf+0x3fe>
					PUTC('0');
1c006e50:	85de                	mv	a1,s7
1c006e52:	03000513          	li	a0,48
1c006e56:	c43a                	sw	a4,8(sp)
1c006e58:	9b02                	jalr	s6
1c006e5a:	4722                	lw	a4,8(sp)
1c006e5c:	177d                	addi	a4,a4,-1
1c006e5e:	9bf53fe3          	p.bneimm	a0,-1,1c00681c <_prf+0x410>
1c006e62:	de8ff06f          	j	1c00644a <_prf+0x3e>
				PUTC(*cptr++);
1c006e66:	0014450b          	p.lbu	a0,1(s0!)
1c006e6a:	85de                	mv	a1,s7
1c006e6c:	9b02                	jalr	s6
1c006e6e:	ddf52e63          	p.beqimm	a0,-1,1c00644a <_prf+0x3e>
1c006e72:	408a87b3          	sub	a5,s5,s0
			while (clen-- > 0) {
1c006e76:	fef048e3          	bgtz	a5,1c006e66 <_prf+0xa5a>
			count += prefix;
1c006e7a:	994e                	add	s2,s2,s3
			count += zero_head;
1c006e7c:	012d09b3          	add	s3,s10,s2
			count += clen;
1c006e80:	99a6                	add	s3,s3,s1
			if (width > 0) {
1c006e82:	e39052e3          	blez	s9,1c006ca6 <_prf+0x89a>
				count += width;
1c006e86:	99e6                	add	s3,s3,s9
				while (width-- > 0) {
1c006e88:	1cfd                	addi	s9,s9,-1
1c006e8a:	e1fcaee3          	p.beqimm	s9,-1,1c006ca6 <_prf+0x89a>
					PUTC(' ');
1c006e8e:	85de                	mv	a1,s7
1c006e90:	02000513          	li	a0,32
1c006e94:	9b02                	jalr	s6
1c006e96:	fff539e3          	p.bneimm	a0,-1,1c006e88 <_prf+0xa7c>
1c006e9a:	db0ff06f          	j	1c00644a <_prf+0x3e>
			*buf++ = '.';
1c006e9e:	02e00693          	li	a3,46
1c006ea2:	00d90023          	sb	a3,0(s2)
1c006ea6:	00190713          	addi	a4,s2,1
			zp->predot = decexp;
1c006eaa:	86ea                	mv	a3,s10
			decexp = 0;
1c006eac:	4d01                	li	s10,0
			zero.predot = zero.postdot = zero.trail = 0;
1c006eae:	4a81                	li	s5,0
1c006eb0:	b6f9                	j	1c006a7e <_prf+0x672>
	prune_zero = false;		/* Assume trailing 0's allowed     */
1c006eb2:	ca02                	sw	zero,20(sp)
		exp = precision + 1;
1c006eb4:	00140713          	addi	a4,s0,1
	digit_count = 16;
1c006eb8:	46c1                	li	a3,16
1c006eba:	d636                	sw	a3,44(sp)
1c006ebc:	04d74933          	p.min	s2,a4,a3
1c006ec0:	b691                	j	1c006a04 <_prf+0x5f8>

1c006ec2 <sprintf_out>:
	r = _prf_locked(sprintf_out, (void *) (&p), format, vargs);
	va_end(vargs);

	*(p.ptr) = 0;
	return r;
}
1c006ec2:	41d8                	lw	a4,4(a1)
1c006ec4:	4785                	li	a5,1
1c006ec6:	00e7db63          	ble	a4,a5,1c006edc <sprintf_out+0x1a>
1c006eca:	419c                	lw	a5,0(a1)
1c006ecc:	00a78023          	sb	a0,0(a5)
1c006ed0:	419c                	lw	a5,0(a1)
1c006ed2:	0785                	addi	a5,a5,1
1c006ed4:	c19c                	sw	a5,0(a1)
1c006ed6:	41dc                	lw	a5,4(a1)
1c006ed8:	17fd                	addi	a5,a5,-1
1c006eda:	c1dc                	sw	a5,4(a1)
1c006edc:	4501                	li	a0,0
1c006ede:	8082                	ret

1c006ee0 <sprintf>:

int sprintf(char *s, const char *format, ...)
{
1c006ee0:	7139                	addi	sp,sp,-64
1c006ee2:	da3e                	sw	a5,52(sp)
	va_list vargs;

	struct emitter p;
	int     r;

	p.ptr = s;
1c006ee4:	c42a                	sw	a0,8(sp)
	p.len = (int) 0x7fffffff; /* allow up to "maxint" characters */
1c006ee6:	800007b7          	lui	a5,0x80000

	va_start(vargs, format);
	r = _prf_locked(sprintf_out, (void *) (&p), format, vargs);
1c006eea:	1c007537          	lui	a0,0x1c007
{
1c006eee:	d432                	sw	a2,40(sp)
1c006ef0:	d636                	sw	a3,44(sp)
	p.len = (int) 0x7fffffff; /* allow up to "maxint" characters */
1c006ef2:	fff7c793          	not	a5,a5
	va_start(vargs, format);
1c006ef6:	1034                	addi	a3,sp,40
	r = _prf_locked(sprintf_out, (void *) (&p), format, vargs);
1c006ef8:	862e                	mv	a2,a1
1c006efa:	ec250513          	addi	a0,a0,-318 # 1c006ec2 <sprintf_out>
1c006efe:	002c                	addi	a1,sp,8
{
1c006f00:	ce06                	sw	ra,28(sp)
	p.len = (int) 0x7fffffff; /* allow up to "maxint" characters */
1c006f02:	c63e                	sw	a5,12(sp)
{
1c006f04:	d83a                	sw	a4,48(sp)
1c006f06:	dc42                	sw	a6,56(sp)
1c006f08:	de46                	sw	a7,60(sp)
	va_start(vargs, format);
1c006f0a:	c236                	sw	a3,4(sp)
	r = _prf_locked(sprintf_out, (void *) (&p), format, vargs);
1c006f0c:	a90ff0ef          	jal	ra,1c00619c <_prf_locked>
	va_end(vargs);

	*(p.ptr) = 0;
1c006f10:	47a2                	lw	a5,8(sp)
1c006f12:	00078023          	sb	zero,0(a5) # 80000000 <pulp__FC+0x80000001>
	return r;
}
1c006f16:	40f2                	lw	ra,28(sp)
1c006f18:	6121                	addi	sp,sp,64
1c006f1a:	8082                	ret

1c006f1c <__rt_uart_cluster_req_done>:
  }

  return __rt_uart_open(channel, conf, event, dev_name);
  
error:
  rt_warning("[UART] Failed to open uart device\n");
1c006f1c:	300476f3          	csrrci	a3,mstatus,8
1c006f20:	4785                	li	a5,1
1c006f22:	08f50623          	sb	a5,140(a0)
1c006f26:	08d54783          	lbu	a5,141(a0)
1c006f2a:	00201737          	lui	a4,0x201
1c006f2e:	e0470713          	addi	a4,a4,-508 # 200e04 <__L2+0x180e04>
1c006f32:	04078793          	addi	a5,a5,64
1c006f36:	07da                	slli	a5,a5,0x16
1c006f38:	0007e723          	p.sw	zero,a4(a5)
1c006f3c:	30069073          	csrw	mstatus,a3
1c006f40:	8082                	ret

1c006f42 <__rt_uart_setup.isra.5>:
1c006f42:	1c008737          	lui	a4,0x1c008
1c006f46:	fc472703          	lw	a4,-60(a4) # 1c007fc4 <__rt_freq_domains>
1c006f4a:	00155793          	srli	a5,a0,0x1
1c006f4e:	97ba                	add	a5,a5,a4
1c006f50:	02a7d7b3          	divu	a5,a5,a0
1c006f54:	1a102737          	lui	a4,0x1a102
1c006f58:	17fd                	addi	a5,a5,-1
1c006f5a:	07c2                	slli	a5,a5,0x10
1c006f5c:	3067e793          	ori	a5,a5,774
1c006f60:	22f72223          	sw	a5,548(a4) # 1a102224 <__l1_end+0xa102204>
1c006f64:	8082                	ret

1c006f66 <__rt_uart_setfreq_after>:
1c006f66:	1c0087b7          	lui	a5,0x1c008
1c006f6a:	eb078793          	addi	a5,a5,-336 # 1c007eb0 <__rt_uart>
1c006f6e:	4398                	lw	a4,0(a5)
1c006f70:	cb11                	beqz	a4,1c006f84 <__rt_uart_setfreq_after+0x1e>
1c006f72:	4788                	lw	a0,8(a5)
1c006f74:	1141                	addi	sp,sp,-16
1c006f76:	c606                	sw	ra,12(sp)
1c006f78:	fcbff0ef          	jal	ra,1c006f42 <__rt_uart_setup.isra.5>
1c006f7c:	40b2                	lw	ra,12(sp)
1c006f7e:	4501                	li	a0,0
1c006f80:	0141                	addi	sp,sp,16
1c006f82:	8082                	ret
1c006f84:	4501                	li	a0,0
1c006f86:	8082                	ret

1c006f88 <__rt_uart_wait_tx_done.isra.6>:
1c006f88:	1a102737          	lui	a4,0x1a102
1c006f8c:	1141                	addi	sp,sp,-16
1c006f8e:	21870713          	addi	a4,a4,536 # 1a102218 <__l1_end+0xa1021f8>
1c006f92:	002046b7          	lui	a3,0x204
1c006f96:	431c                	lw	a5,0(a4)
1c006f98:	8bc1                	andi	a5,a5,16
1c006f9a:	e38d                	bnez	a5,1c006fbc <__rt_uart_wait_tx_done.isra.6+0x34>
1c006f9c:	1a102737          	lui	a4,0x1a102
1c006fa0:	22070713          	addi	a4,a4,544 # 1a102220 <__l1_end+0xa102200>
1c006fa4:	431c                	lw	a5,0(a4)
1c006fa6:	fc17b7b3          	p.bclr	a5,a5,30,1
1c006faa:	ffed                	bnez	a5,1c006fa4 <__rt_uart_wait_tx_done.isra.6+0x1c>
1c006fac:	c602                	sw	zero,12(sp)
1c006fae:	7cf00713          	li	a4,1999
1c006fb2:	47b2                	lw	a5,12(sp)
1c006fb4:	00f75763          	ble	a5,a4,1c006fc2 <__rt_uart_wait_tx_done.isra.6+0x3a>
1c006fb8:	0141                	addi	sp,sp,16
1c006fba:	8082                	ret
1c006fbc:	0386e783          	p.elw	a5,56(a3) # 204038 <__L2+0x184038>
1c006fc0:	bfd9                	j	1c006f96 <__rt_uart_wait_tx_done.isra.6+0xe>
1c006fc2:	47b2                	lw	a5,12(sp)
1c006fc4:	0785                	addi	a5,a5,1
1c006fc6:	c63e                	sw	a5,12(sp)
1c006fc8:	b7ed                	j	1c006fb2 <__rt_uart_wait_tx_done.isra.6+0x2a>

1c006fca <__rt_uart_setfreq_before>:
1c006fca:	1c0087b7          	lui	a5,0x1c008
1c006fce:	eb07a783          	lw	a5,-336(a5) # 1c007eb0 <__rt_uart>
1c006fd2:	c385                	beqz	a5,1c006ff2 <__rt_uart_setfreq_before+0x28>
1c006fd4:	1141                	addi	sp,sp,-16
1c006fd6:	c606                	sw	ra,12(sp)
1c006fd8:	fb1ff0ef          	jal	ra,1c006f88 <__rt_uart_wait_tx_done.isra.6>
1c006fdc:	40b2                	lw	ra,12(sp)
1c006fde:	005007b7          	lui	a5,0x500
1c006fe2:	1a102737          	lui	a4,0x1a102
1c006fe6:	0799                	addi	a5,a5,6
1c006fe8:	22f72223          	sw	a5,548(a4) # 1a102224 <__l1_end+0xa102204>
1c006fec:	4501                	li	a0,0
1c006fee:	0141                	addi	sp,sp,16
1c006ff0:	8082                	ret
1c006ff2:	4501                	li	a0,0
1c006ff4:	8082                	ret

1c006ff6 <__rt_uart_cluster_req>:
1c006ff6:	1141                	addi	sp,sp,-16
1c006ff8:	c606                	sw	ra,12(sp)
1c006ffa:	c422                	sw	s0,8(sp)
1c006ffc:	30047473          	csrrci	s0,mstatus,8
1c007000:	1c0077b7          	lui	a5,0x1c007
1c007004:	f1c78793          	addi	a5,a5,-228 # 1c006f1c <__rt_uart_cluster_req_done>
1c007008:	c91c                	sw	a5,16(a0)
1c00700a:	4785                	li	a5,1
1c00700c:	d91c                	sw	a5,48(a0)
1c00700e:	411c                	lw	a5,0(a0)
1c007010:	02052a23          	sw	zero,52(a0)
1c007014:	c948                	sw	a0,20(a0)
1c007016:	43cc                	lw	a1,4(a5)
1c007018:	4514                	lw	a3,8(a0)
1c00701a:	4150                	lw	a2,4(a0)
1c00701c:	0586                	slli	a1,a1,0x1
1c00701e:	00c50793          	addi	a5,a0,12
1c007022:	4701                	li	a4,0
1c007024:	0585                	addi	a1,a1,1
1c007026:	4501                	li	a0,0
1c007028:	9dafd0ef          	jal	ra,1c004202 <rt_periph_copy>
1c00702c:	30041073          	csrw	mstatus,s0
1c007030:	40b2                	lw	ra,12(sp)
1c007032:	4422                	lw	s0,8(sp)
1c007034:	0141                	addi	sp,sp,16
1c007036:	8082                	ret

1c007038 <soc_eu_fcEventMask_setEvent>:
1c007038:	47fd                	li	a5,31
1c00703a:	4721                	li	a4,8
1c00703c:	00a7d463          	ble	a0,a5,1c007044 <soc_eu_fcEventMask_setEvent+0xc>
1c007040:	1501                	addi	a0,a0,-32
1c007042:	4711                	li	a4,4
1c007044:	1a1066b7          	lui	a3,0x1a106
1c007048:	20e6f603          	p.lw	a2,a4(a3)
1c00704c:	4785                	li	a5,1
1c00704e:	00a79533          	sll	a0,a5,a0
1c007052:	fff54513          	not	a0,a0
1c007056:	8d71                	and	a0,a0,a2
1c007058:	00a6e723          	p.sw	a0,a4(a3)
1c00705c:	8082                	ret

1c00705e <rt_uart_conf_init>:
1c00705e:	000997b7          	lui	a5,0x99
1c007062:	96878793          	addi	a5,a5,-1688 # 98968 <__L2+0x18968>
1c007066:	c11c                	sw	a5,0(a0)
1c007068:	57fd                	li	a5,-1
1c00706a:	c15c                	sw	a5,4(a0)
1c00706c:	8082                	ret

1c00706e <__rt_uart_open>:
1c00706e:	1141                	addi	sp,sp,-16
1c007070:	c606                	sw	ra,12(sp)
1c007072:	c422                	sw	s0,8(sp)
1c007074:	c226                	sw	s1,4(sp)
1c007076:	c04a                	sw	s2,0(sp)
1c007078:	30047973          	csrrci	s2,mstatus,8
1c00707c:	cd8d                	beqz	a1,1c0070b6 <__rt_uart_open+0x48>
1c00707e:	4198                	lw	a4,0(a1)
1c007080:	1c0086b7          	lui	a3,0x1c008
1c007084:	ffc50793          	addi	a5,a0,-4
1c007088:	eb068413          	addi	s0,a3,-336 # 1c007eb0 <__rt_uart>
1c00708c:	0792                	slli	a5,a5,0x4
1c00708e:	943e                	add	s0,s0,a5
1c007090:	4010                	lw	a2,0(s0)
1c007092:	eb068693          	addi	a3,a3,-336
1c007096:	c60d                	beqz	a2,1c0070c0 <__rt_uart_open+0x52>
1c007098:	c589                	beqz	a1,1c0070a2 <__rt_uart_open+0x34>
1c00709a:	418c                	lw	a1,0(a1)
1c00709c:	4418                	lw	a4,8(s0)
1c00709e:	04e59d63          	bne	a1,a4,1c0070f8 <__rt_uart_open+0x8a>
1c0070a2:	0605                	addi	a2,a2,1
1c0070a4:	00c6e7a3          	p.sw	a2,a5(a3)
1c0070a8:	8522                	mv	a0,s0
1c0070aa:	40b2                	lw	ra,12(sp)
1c0070ac:	4422                	lw	s0,8(sp)
1c0070ae:	4492                	lw	s1,4(sp)
1c0070b0:	4902                	lw	s2,0(sp)
1c0070b2:	0141                	addi	sp,sp,16
1c0070b4:	8082                	ret
1c0070b6:	00099737          	lui	a4,0x99
1c0070ba:	96870713          	addi	a4,a4,-1688 # 98968 <__L2+0x18968>
1c0070be:	b7c9                	j	1c007080 <__rt_uart_open+0x12>
1c0070c0:	c418                	sw	a4,8(s0)
1c0070c2:	4785                	li	a5,1
1c0070c4:	1a102737          	lui	a4,0x1a102
1c0070c8:	78070713          	addi	a4,a4,1920 # 1a102780 <__l1_end+0xa102760>
1c0070cc:	c01c                	sw	a5,0(s0)
1c0070ce:	c048                	sw	a0,4(s0)
1c0070d0:	4314                	lw	a3,0(a4)
1c0070d2:	00a797b3          	sll	a5,a5,a0
1c0070d6:	00151493          	slli	s1,a0,0x1
1c0070da:	8fd5                	or	a5,a5,a3
1c0070dc:	c31c                	sw	a5,0(a4)
1c0070de:	8526                	mv	a0,s1
1c0070e0:	f59ff0ef          	jal	ra,1c007038 <soc_eu_fcEventMask_setEvent>
1c0070e4:	00148513          	addi	a0,s1,1
1c0070e8:	f51ff0ef          	jal	ra,1c007038 <soc_eu_fcEventMask_setEvent>
1c0070ec:	4408                	lw	a0,8(s0)
1c0070ee:	e55ff0ef          	jal	ra,1c006f42 <__rt_uart_setup.isra.5>
1c0070f2:	30091073          	csrw	mstatus,s2
1c0070f6:	bf4d                	j	1c0070a8 <__rt_uart_open+0x3a>
1c0070f8:	4401                	li	s0,0
1c0070fa:	b77d                	j	1c0070a8 <__rt_uart_open+0x3a>

1c0070fc <rt_uart_close>:
}



void rt_uart_close(rt_uart_t *uart, rt_event_t *event)
{
1c0070fc:	1141                	addi	sp,sp,-16
1c0070fe:	c606                	sw	ra,12(sp)
1c007100:	c422                	sw	s0,8(sp)
1c007102:	c226                	sw	s1,4(sp)
  return __builtin_pulp_read_then_spr_bit_clr(reg, val);
1c007104:	300474f3          	csrrci	s1,mstatus,8
  int irq = rt_irq_disable();

  rt_trace(RT_TRACE_DEV_CTRL, "[UART] Closing uart device (handle: %p)\n", uart);

  uart->open_count--;
1c007108:	411c                	lw	a5,0(a0)
1c00710a:	17fd                	addi	a5,a5,-1
1c00710c:	c11c                	sw	a5,0(a0)

  if (uart->open_count == 0)
1c00710e:	e79d                	bnez	a5,1c00713c <rt_uart_close+0x40>
1c007110:	842a                	mv	s0,a0
  {
      // First wait for pending transfers to finish before stoppping uart in case
      // some printf are still pending
      __rt_uart_wait_tx_done(uart);
1c007112:	e77ff0ef          	jal	ra,1c006f88 <__rt_uart_wait_tx_done.isra.6>
  pulp_write32(ARCHI_UDMA_ADDR + UDMA_UART_OFFSET(channel) + UDMA_CHANNEL_CUSTOM_OFFSET + UART_SETUP_OFFSET, 0x00500006);
1c007116:	1a102737          	lui	a4,0x1a102
1c00711a:	005007b7          	lui	a5,0x500
1c00711e:	22470693          	addi	a3,a4,548 # 1a102224 <__l1_end+0xa102204>
1c007122:	0799                	addi	a5,a5,6
1c007124:	c29c                	sw	a5,0(a3)
      // Set enable bits for uart channel back to 0 
      // This is needed to be able to propagate new configs when re-opening
      plp_uart_disable(uart->channel - ARCHI_UDMA_UART_ID(0));      

      // Then stop the uart
      plp_udma_cg_set(plp_udma_cg_get() & ~(1<<uart->channel));
1c007126:	4050                	lw	a2,4(s0)
  return pulp_read32(ARCHI_SOC_PERIPHERALS_ADDR + ARCHI_UDMA_OFFSET + UDMA_CONF_OFFSET + UDMA_CONF_CG_OFFSET);
1c007128:	78070713          	addi	a4,a4,1920
1c00712c:	4314                	lw	a3,0(a4)
1c00712e:	4785                	li	a5,1
1c007130:	00c797b3          	sll	a5,a5,a2
1c007134:	fff7c793          	not	a5,a5
1c007138:	8ff5                	and	a5,a5,a3
  pulp_write32(ARCHI_SOC_PERIPHERALS_ADDR + ARCHI_UDMA_OFFSET + UDMA_CONF_OFFSET + UDMA_CONF_CG_OFFSET, value);
1c00713a:	c31c                	sw	a5,0(a4)
  __builtin_pulp_spr_write(reg, val);
1c00713c:	30049073          	csrw	mstatus,s1
  }

  rt_irq_restore(irq);
}
1c007140:	40b2                	lw	ra,12(sp)
1c007142:	4422                	lw	s0,8(sp)
1c007144:	4492                	lw	s1,4(sp)
1c007146:	0141                	addi	sp,sp,16
1c007148:	8082                	ret

1c00714a <rt_uart_cluster_write>:
  asm("csrr %0, 0x014" : "=r" (hart_id) : );
1c00714a:	014027f3          	csrr	a5,uhartid
  return (hart_id >> 5) & 0x3f;
1c00714e:	8795                	srai	a5,a5,0x5
1c007150:	f267b7b3          	p.bclr	a5,a5,25,6
void rt_uart_cluster_write(rt_uart_t *handle, void *buffer, size_t size, rt_uart_req_t *req)
{
  req->uart = handle;
  req->buffer = buffer;
  req->size = size;
  req->cid = rt_cluster_id();
1c007154:	08f686a3          	sb	a5,141(a3)
  event->arg[0] = (uintptr_t)callback;
1c007158:	1c0077b7          	lui	a5,0x1c007
1c00715c:	ff678793          	addi	a5,a5,-10 # 1c006ff6 <__rt_uart_cluster_req>
1c007160:	ca9c                	sw	a5,16(a3)
  event->implem.pending = 1;  
1c007162:	4785                	li	a5,1
  req->uart = handle;
1c007164:	c288                	sw	a0,0(a3)
  req->buffer = buffer;
1c007166:	c2cc                	sw	a1,4(a3)
  req->size = size;
1c007168:	c690                	sw	a2,8(a3)
  req->done = 0;
1c00716a:	08068623          	sb	zero,140(a3)
  event->implem.keep = 0;
1c00716e:	0206aa23          	sw	zero,52(a3)
  event->arg[1] = (uintptr_t)arg;
1c007172:	cad4                	sw	a3,20(a3)
  event->implem.pending = 1;  
1c007174:	da9c                	sw	a5,48(a3)
  __rt_init_event(&req->event, __rt_cluster_sched_get(), __rt_uart_cluster_req, (void *)req);
  __rt_event_set_pending(&req->event);
  __rt_cluster_push_fc_event(&req->event);
1c007176:	00c68513          	addi	a0,a3,12
1c00717a:	a43fd06f          	j	1c004bbc <__rt_cluster_push_fc_event>

1c00717e <__rt_uart_init>:
{
  // In case the peripheral clock can dynamically change, we need to be notified
  // when this happens so that we flush pending transfers before updating the frequency
  int err = 0;

  err |= __rt_cbsys_add(RT_CBSYS_PERIPH_SETFREQ_BEFORE, __rt_uart_setfreq_before, NULL);
1c00717e:	1c0075b7          	lui	a1,0x1c007
{
1c007182:	1141                	addi	sp,sp,-16
  err |= __rt_cbsys_add(RT_CBSYS_PERIPH_SETFREQ_BEFORE, __rt_uart_setfreq_before, NULL);
1c007184:	4601                	li	a2,0
1c007186:	fca58593          	addi	a1,a1,-54 # 1c006fca <__rt_uart_setfreq_before>
1c00718a:	4511                	li	a0,4
{
1c00718c:	c606                	sw	ra,12(sp)
1c00718e:	c422                	sw	s0,8(sp)
  err |= __rt_cbsys_add(RT_CBSYS_PERIPH_SETFREQ_BEFORE, __rt_uart_setfreq_before, NULL);
1c007190:	ea2fc0ef          	jal	ra,1c003832 <__rt_cbsys_add>

  err |= __rt_cbsys_add(RT_CBSYS_PERIPH_SETFREQ_AFTER, __rt_uart_setfreq_after, NULL);
1c007194:	1c0075b7          	lui	a1,0x1c007
  err |= __rt_cbsys_add(RT_CBSYS_PERIPH_SETFREQ_BEFORE, __rt_uart_setfreq_before, NULL);
1c007198:	842a                	mv	s0,a0
  err |= __rt_cbsys_add(RT_CBSYS_PERIPH_SETFREQ_AFTER, __rt_uart_setfreq_after, NULL);
1c00719a:	4601                	li	a2,0
1c00719c:	f6658593          	addi	a1,a1,-154 # 1c006f66 <__rt_uart_setfreq_after>
1c0071a0:	4515                	li	a0,5
1c0071a2:	e90fc0ef          	jal	ra,1c003832 <__rt_cbsys_add>


  for (int i=0; i<ARCHI_UDMA_NB_UART; i++)
  {
    __rt_uart[i].open_count = 0;
1c0071a6:	1c0087b7          	lui	a5,0x1c008
1c0071aa:	ea07a823          	sw	zero,-336(a5) # 1c007eb0 <__rt_uart>
  err |= __rt_cbsys_add(RT_CBSYS_PERIPH_SETFREQ_AFTER, __rt_uart_setfreq_after, NULL);
1c0071ae:	8d41                	or	a0,a0,s0
  }

  if (err) rt_fatal("Unable to initialize uart driver\n");
1c0071b0:	c10d                	beqz	a0,1c0071d2 <__rt_uart_init+0x54>
  asm("csrr %0, 0x014" : "=r" (hart_id) : );
1c0071b2:	01402673          	csrr	a2,uhartid
1c0071b6:	1c007537          	lui	a0,0x1c007
  return (hart_id >> 5) & 0x3f;
1c0071ba:	40565593          	srai	a1,a2,0x5
1c0071be:	f265b5b3          	p.bclr	a1,a1,25,6
1c0071c2:	f4563633          	p.bclr	a2,a2,26,5
1c0071c6:	7cc50513          	addi	a0,a0,1996 # 1c0077cc <__hyper_pad+0x34>
1c0071ca:	8ecff0ef          	jal	ra,1c0062b6 <printf>
1c0071ce:	86cff0ef          	jal	ra,1c00623a <abort>
}
1c0071d2:	40b2                	lw	ra,12(sp)
1c0071d4:	4422                	lw	s0,8(sp)
1c0071d6:	0141                	addi	sp,sp,16
1c0071d8:	8082                	ret
	...

1c0071dc <__cluster_text_start>:
  .global __rt_pe_start
__rt_pe_start:

#endif

    csrr    a0, 0xF14
1c0071dc:	f1402573          	csrr	a0,mhartid
    andi    a1, a0, 0x1f
1c0071e0:	01f57593          	andi	a1,a0,31
    srli    a0, a0, 5
1c0071e4:	8115                	srli	a0,a0,0x5
    
    // Activate a few events
    li      t0, (1<<PULP_DISPATCH_EVENT) | (1<<PULP_HW_BAR_EVENT) | (1<<PULP_MUTEX_EVENT)
1c0071e6:	000702b7          	lui	t0,0x70
    li      t1, ARCHI_EU_DEMUX_ADDR
1c0071ea:	00204337          	lui	t1,0x204
    sw      t0, EU_CORE_MASK(t1)
1c0071ee:	00532023          	sw	t0,0(t1) # 204000 <__L2+0x184000>

#ifndef ARCHI_NO_L1_TINY
    sw      x0, %tiny(__rt_dma_first_pending)(x0)
1c0071f2:	00002a23          	sw	zero,20(zero) # 14 <__rt_bridge_eeprom_handle>

#ifdef ARCHI_HAS_CC
    li      t2, ARCHI_CC_CORE_ID
    bne     a1, t2, __rt_slave_start
#else
    bne     a1, x0, __rt_slave_start
1c0071f6:	10059063          	bnez	a1,1c0072f6 <__rt_slave_start>
#endif

    li      t0, (1<<ARCHI_CL_EVT_DMA1)
1c0071fa:	20000293          	li	t0,512
    li      t1, ARCHI_EU_DEMUX_ADDR
1c0071fe:	00204337          	lui	t1,0x204
    sw      t0, EU_CORE_MASK_IRQ_OR(t1)
1c007202:	00532a23          	sw	t0,20(t1) # 204014 <__L2+0x184014>



    // Prepare few values that will be kept in saved registers to optimize the loop
    la      s0, __rt_cluster_pool
1c007206:	e3ff9417          	auipc	s0,0xe3ff9
1c00720a:	dfe40413          	addi	s0,s0,-514 # 4 <__rt_bridge_flash_handle>
    li      s3, ARCHI_EU_DEMUX_ADDR
1c00720e:	002049b7          	lui	s3,0x204
    li      s4, 1<<RT_CLUSTER_CALL_EVT
1c007212:	4a09                	li	s4,2
    la      s5, __rt_master_event
1c007214:	00000a97          	auipc	s5,0x0
1c007218:	038a8a93          	addi	s5,s5,56 # 1c00724c <__rt_master_event>
    la      s7, __rt_fc_cluster_data
1c00721c:	00001b97          	auipc	s7,0x1
1c007220:	db8b8b93          	addi	s7,s7,-584 # 1c007fd4 <__rt_fc_cluster_data>
    li      t2, RT_FC_CLUSTER_DATA_T_SIZEOF
1c007224:	02800393          	li	t2,40
    mul     t2, t2, a0
1c007228:	02a383b3          	mul	t2,t2,a0
    add     s7, s7, t2
1c00722c:	9b9e                	add	s7,s7,t2
    addi    s7, s7, RT_FC_CLUSTER_DATA_T_EVENTS
1c00722e:	0b91                	addi	s7,s7,4
#if defined(ARCHI_HAS_FC)
#if defined(ITC_VERSION)
    li      s9, ARCHI_FC_ITC_ADDR + ITC_STATUS_SET_OFFSET
    li      s8, 1<<RT_FC_ENQUEUE_EVENT
#else
    li      s9, ARCHI_FC_GLOBAL_ADDR + ARCHI_FC_PERIPHERALS_OFFSET + ARCHI_FC_EU_OFFSET + EU_SW_EVENTS_AREA_BASE + EU_CORE_TRIGG_SW_EVENT + (RT_FC_ENQUEUE_EVENT << 2)
1c007230:	1b201cb7          	lui	s9,0x1b201
1c007234:	e04c8c93          	addi	s9,s9,-508 # 1b200e04 <__fc_tcdm_end+0x1ff9e4>
    li      s8, 1
1c007238:	4c05                	li	s8,1
    // In case there is no FC, the event must be sent to cluster 0 event unit
    li      s9, ARCHI_CLUSTER_PERIPHERALS_GLOBAL_ADDR(0) + ARCHI_EU_OFFSET + EU_SW_EVENTS_AREA_BASE + EU_CORE_TRIGG_SW_EVENT + (RT_FC_ENQUEUE_EVENT << 2)
    li      s8, 1    
#endif
#ifndef ARCHI_HAS_NO_DISPATCH
    la      s10, __rt_set_slave_stack
1c00723a:	00000d17          	auipc	s10,0x0
1c00723e:	0fad0d13          	addi	s10,s10,250 # 1c007334 <__rt_set_slave_stack>
    ori     s10, s10, 1
1c007242:	001d6d13          	ori	s10,s10,1
#endif

    csrwi   0x300, 0x8
1c007246:	30045073          	csrwi	mstatus,8

    j       __rt_master_loop
1c00724a:	a819                	j	1c007260 <__rt_master_loop>

1c00724c <__rt_master_event>:



__rt_master_event:
    beq     s6, x0, __rt_master_loop
1c00724c:	000b0a63          	beqz	s6,1c007260 <__rt_master_loop>

1c007250 <__rt_push_event_to_fc_retry>:

__rt_push_event_to_fc_retry:
    // Now we have to push the termination event to FC side
    // First wait until the slot for posting events is free
    lw      t0, 0(s7)
1c007250:	000ba283          	lw	t0,0(s7)
    bne     t0, x0, __rt_push_event_to_fc_wait
1c007254:	08029a63          	bnez	t0,1c0072e8 <__rt_push_event_to_fc_wait>

    // Push it
    sw      s6, 0(s7)
1c007258:	016ba023          	sw	s6,0(s7)

    // And notify the FC side with a HW event in case it is sleeping
    sw      s8, 0(s9)
1c00725c:	018ca023          	sw	s8,0(s9)

1c007260 <__rt_master_loop>:


__rt_master_loop:
    // Check if a task is ready in the pool
    lw      t3, 0(s0)
1c007260:	00042e03          	lw	t3,0(s0)
    // Check if a call is ready, e.g. if nb_pe is not zero
    // otherwise go to sleep
    beq     t3, x0, __rt_master_sleep
1c007264:	060e0b63          	beqz	t3,1c0072da <__rt_master_sleep>

1c007268 <__rt_master_loop_update_next>:

__rt_master_loop_update_next:
    lw      t4, RT_CLUSTER_TASK_NEXT(t3)
1c007268:	020e2e83          	lw	t4,32(t3)
    sw      x0, RT_CLUSTER_TASK_PENDING(t3)
1c00726c:	020e2223          	sw	zero,36(t3)
    sw      t4, 0(s0)
1c007270:	01d42023          	sw	t4,0(s0)

    // Check again next pointer in case it was updated by the FC.
    // If so, do it it again as this will ensure that either we see the new
    // value or the FC sees our write
    lw      t5, RT_CLUSTER_TASK_NEXT(t3)
1c007274:	020e2f03          	lw	t5,32(t3)
    bne     t4, t5, __rt_master_loop_update_next
1c007278:	ffee98e3          	bne	t4,t5,1c007268 <__rt_master_loop_update_next>
    li      a4, 0
    ebreak
#endif

#ifdef __RT_USE_ASSERT
    csrwi   0x7D0, 0
1c00727c:	7d005073          	csrwi	0x7d0,0
#endif

    // Reads entry point information
    lw      a0, RT_CLUSTER_TASK_ARG(t3)
1c007280:	004e2503          	lw	a0,4(t3)
    lw      t0, RT_CLUSTER_TASK_ENTRY(t3)
1c007284:	000e2283          	lw	t0,0(t3)
    lw      sp, RT_CLUSTER_TASK_STACKS(t3)
1c007288:	008e2103          	lw	sp,8(t3)
    lw      t1, RT_CLUSTER_TASK_STACK_SIZE(t3)
1c00728c:	00ce2303          	lw	t1,12(t3)
    lw      t2, RT_CLUSTER_TASK_SLAVE_STACK_SIZE(t3)
1c007290:	010e2383          	lw	t2,16(t3)
    lw      t5, RT_CLUSTER_TASK_CORE_MASK(t3)
1c007294:	028e2f03          	lw	t5,40(t3)
    lw      s6, RT_CLUSTER_TASK_COMPLETION_CALLBACK(t3)
1c007298:	018e2b03          	lw	s6,24(t3)
    lw      t6, RT_CLUSTER_TASK_NB_CORES(t3)
1c00729c:	014e2f83          	lw	t6,20(t3)
    mv      ra, s5
1c0072a0:	80d6                	mv	ra,s5

    add     sp, sp, t1
1c0072a2:	911a                	add	sp,sp,t1

#ifdef ARCHI_NO_L1_TINY
    la      t4, __rt_cluster_nb_active_pe
    sw      t6, 0(t4)
#else
    sw      t6, %tiny(__rt_cluster_nb_active_pe)(x0)
1c0072a4:	01f02c23          	sw	t6,24(zero) # 18 <__rt_first_free>
#endif

#ifdef __RT_USE_ASSERT
    // Update stack checking information
    beqz    t1, __rt_no_stack_check
1c0072a8:	00030a63          	beqz	t1,1c0072bc <__rt_no_stack_check>
    sub     t4, sp, t1
1c0072ac:	40610eb3          	sub	t4,sp,t1
    csrw    0x7D1, t4
1c0072b0:	7d1e9073          	csrw	0x7d1,t4
    csrw    0x7D2, sp
1c0072b4:	7d211073          	csrw	0x7d2,sp
    csrwi   0x7D0, 1
1c0072b8:	7d00d073          	csrwi	0x7d0,1

1c0072bc <__rt_no_stack_check>:
#endif

__rt_no_stack_check:
    // Whatever the number of cores, we need to setup the barrier as the master code is compiled to use it
    sw      t5, EU_DISPATCH_DEMUX_OFFSET + EU_DISPATCH_TEAM_CONFIG(s3)
1c0072bc:	09e9a223          	sw	t5,132(s3) # 204084 <__L2+0x184084>
#ifdef ARCHI_HAS_CC
    // When we have a cluster controller, don't configure the slave barrier
    // if we don't have have any slave
    beqz    t5, __rt_master_no_slave_barrier
#endif
    sw      t5, EU_BARRIER_DEMUX_OFFSET + EU_HW_BARR_TRIGGER_MASK(s3)
1c0072c0:	21e9a023          	sw	t5,512(s3)
    sw      t5, EU_BARRIER_DEMUX_OFFSET + EU_HW_BARR_TARGET_MASK(s3)
1c0072c4:	21e9a623          	sw	t5,524(s3)

1c0072c8 <__rt_master_no_slave_barrier>:
    sw      t6, EU_BARRIER_DEMUX_OFFSET + EU_HW_BARR_TARGET_MASK + EU_BARRIER_SIZE(s3)
#endif

    // Set stack on slaves
    // For that we push first the function for setting stack, then the stack size and the base
    p.beqimm t5, 0, __rt_master_loop_no_slave
1c0072c8:	000f2863          	p.beqimm	t5,0,1c0072d8 <__rt_master_loop_no_slave>
    sw      s10, EU_DISPATCH_DEMUX_OFFSET + EU_DISPATCH_FIFO_ACCESS(s3)
1c0072cc:	09a9a023          	sw	s10,128(s3)
    sw      t2, EU_DISPATCH_DEMUX_OFFSET + EU_DISPATCH_FIFO_ACCESS(s3)
1c0072d0:	0879a023          	sw	t2,128(s3)
    sw      sp, EU_DISPATCH_DEMUX_OFFSET + EU_DISPATCH_FIFO_ACCESS(s3)
1c0072d4:	0829a023          	sw	sp,128(s3)

1c0072d8 <__rt_master_loop_no_slave>:

__rt_master_loop_no_slave:

    // Call the entry point, this will directly come back to the master loop
    jr      t0
1c0072d8:	8282                	jr	t0

1c0072da <__rt_master_sleep>:
    lw      a1, %tiny(__rt_pe_trace)(x0)
    li      a2, 1
    ebreak
#endif

    sw      s4, EU_CORE_MASK_OR(s3)
1c0072da:	0149a423          	sw	s4,8(s3)
    p.elw   x0, EU_CORE_EVENT_WAIT_CLEAR(s3)
1c0072de:	03c9e003          	p.elw	zero,60(s3)
    sw      s4, EU_CORE_MASK_AND(s3)
1c0072e2:	0149a223          	sw	s4,4(s3)
    j       __rt_master_loop
1c0072e6:	bfad                	j	1c007260 <__rt_master_loop>

1c0072e8 <__rt_push_event_to_fc_wait>:




__rt_push_event_to_fc_wait:
    sw      s4, EU_CORE_MASK_OR(s3)
1c0072e8:	0149a423          	sw	s4,8(s3)
    p.elw   x0, EU_CORE_EVENT_WAIT_CLEAR(s3)
1c0072ec:	03c9e003          	p.elw	zero,60(s3)
    sw      s4, EU_CORE_MASK_AND(s3)
1c0072f0:	0149a223          	sw	s4,4(s3)
    j       __rt_push_event_to_fc_retry
1c0072f4:	bfb1                	j	1c007250 <__rt_push_event_to_fc_retry>

1c0072f6 <__rt_slave_start>:
__rt_slave_start:


#ifndef ARCHI_HAS_NO_DISPATCH

    li      s2, ARCHI_EU_DEMUX_ADDR
1c0072f6:	00204937          	lui	s2,0x204
    csrr    s3, 0xF14
1c0072fa:	f14029f3          	csrr	s3,mhartid
    and     s3, s3, 0x1f
1c0072fe:	01f9f993          	andi	s3,s3,31
    la      s4, __rt_fork_return
1c007302:	00000a17          	auipc	s4,0x0
1c007306:	012a0a13          	addi	s4,s4,18 # 1c007314 <__rt_fork_return>
    la      s5, __rt_wait_for_dispatch
1c00730a:	00000a97          	auipc	s5,0x0
1c00730e:	00ea8a93          	addi	s5,s5,14 # 1c007318 <__rt_wait_for_dispatch>
    j       __rt_wait_for_dispatch
1c007312:	a019                	j	1c007318 <__rt_wait_for_dispatch>

1c007314 <__rt_fork_return>:
    // When the cluster has a controller barrier 0 is used for normal team barrier
    // and barrier 1 is used for end of offload
    p.elw   t0, EU_BARRIER_DEMUX_OFFSET + EU_HW_BARR_TRIGGER_WAIT_CLEAR + EU_BARRIER_SIZE(s2)
#else
#ifndef ARCHI_HAS_NO_BARRIER
    p.elw   t0, EU_BARRIER_DEMUX_OFFSET + EU_HW_BARR_TRIGGER_WAIT_CLEAR(s2)
1c007314:	21c96283          	p.elw	t0,540(s2) # 20421c <__L2+0x18421c>

1c007318 <__rt_wait_for_dispatch>:
    li      a2, 1
    ebreak
#endif

    // Wait for PC + arg information from dispatcher
    p.elw   t0, EU_DISPATCH_DEMUX_OFFSET + EU_DISPATCH_FIFO_ACCESS(s2)
1c007318:	08096283          	p.elw	t0,128(s2)
    p.elw   a0, EU_DISPATCH_DEMUX_OFFSET + EU_DISPATCH_FIFO_ACCESS(s2)
1c00731c:	08096503          	p.elw	a0,128(s2)
    ebreak
    mv      a0, t1
#endif

    // Check if this is an entry with a barrier at the end (fork entry)
    andi    t1, t0, 1
1c007320:	0012f313          	andi	t1,t0,1
    bne     t1, zero, __rt_other_entry
1c007324:	00031563          	bnez	t1,1c00732e <__rt_other_entry>

1c007328 <__rt_fork_entry>:

__rt_fork_entry:

    // Jump to the handler and prepare r9 to jump back just before the main loop
    add     ra, s4, x0
1c007328:	000a00b3          	add	ra,s4,zero
    jr      t0
1c00732c:	8282                	jr	t0

1c00732e <__rt_other_entry>:

__rt_other_entry:

  // Jump to the handler and prepare r9 to jump back directly to the main loop
    add     ra, s5, x0
1c00732e:	000a80b3          	add	ra,s5,zero
    jr      t0
1c007332:	8282                	jr	t0

1c007334 <__rt_set_slave_stack>:

  .global __rt_set_slave_stack
__rt_set_slave_stack:

#ifdef __RT_USE_ASSERT
    csrwi   0x7D0, 0
1c007334:	7d005073          	csrwi	0x7d0,0
#endif

    // Multiply the stack size by the core ID and add the stack base to get our stack
    p.elw   t0, EU_DISPATCH_DEMUX_OFFSET + EU_DISPATCH_FIFO_ACCESS(s2)
1c007338:	08096283          	p.elw	t0,128(s2)
    // If the cluster has a cluster controller, the first slave has core ID 0
    // and thus we need to take the next stack
    addi     t5, s3, 1
    p.mul   t4, t5, a0
#else
    p.mul   t4, s3, a0
1c00733c:	02a98eb3          	mul	t4,s3,a0
#endif
    add     sp, t4, t0
1c007340:	005e8133          	add	sp,t4,t0

#ifdef __RT_USE_ASSERT
    beqz    a0, __rt_no_stack_check_end
1c007344:	c909                	beqz	a0,1c007356 <__rt_no_stack_check_end>
    sub     t4, sp, a0
1c007346:	40a10eb3          	sub	t4,sp,a0
    csrw    0x7D1, t4
1c00734a:	7d1e9073          	csrw	0x7d1,t4
    csrw    0x7D2, sp
1c00734e:	7d211073          	csrw	0x7d2,sp
    csrwi   0x7D0, 1
1c007352:	7d00d073          	csrwi	0x7d0,1

1c007356 <__rt_no_stack_check_end>:
#endif
__rt_no_stack_check_end:
    ret
1c007356:	8082                	ret

1c007358 <__rt_dma_2d>:
#if defined(ARCHI_HAS_CLUSTER)
#ifndef ARCHI_NO_L1_TINY
    .global __rt_dma_2d
__rt_dma_2d:

    sw  x8, -4(sp)
1c007358:	fe812e23          	sw	s0,-4(sp)
    sw  x9, -8(sp)
1c00735c:	fe912c23          	sw	s1,-8(sp)
    sw  a0, -12(sp)
1c007360:	fea12a23          	sw	a0,-12(sp)
    sw  a1, -16(sp)
1c007364:	feb12823          	sw	a1,-16(sp)
    sw  a2, -20(sp)
1c007368:	fec12623          	sw	a2,-20(sp)

    li  a2, ARCHI_MCHAN_DEMUX_ADDR
1c00736c:	00204637          	lui	a2,0x204
1c007370:	40060613          	addi	a2,a2,1024 # 204400 <__L2+0x184400>

    lw  x8, %tiny(__rt_dma_first_pending)(x0)
1c007374:	01402403          	lw	s0,20(zero) # 14 <__rt_bridge_eeprom_handle>

    lw  a1, CL_DMA_CMD_T_ID(x8)
1c007378:	400c                	lw	a1,0(s0)
    lw  a0, CL_DMA_CMD_T_SIZE(x8)
1c00737a:	4408                	lw	a0,8(s0)
    p.bsetr a1, x0, a1
1c00737c:	80b045b3          	p.bsetr	a1,zero,a1
    sw  a1, MCHAN_STATUS_OFFSET(a2)
1c007380:	c24c                	sw	a1,4(a2)
    lw  a1, CL_DMA_CMD_T_LENGTH(x8)
1c007382:	480c                	lw	a1,16(s0)

    beqz a0, __rt_dma_2d_done
1c007384:	c131                	beqz	a0,1c0073c8 <__rt_dma_2d_done>

1c007386 <__rt_dma_2d_redo>:

__rt_dma_2d_redo:
    lw  x9, CL_DMA_CMD_T_CMD(x8)
1c007386:	4044                	lw	s1,4(s0)
    
    bgt a0, a1, __rt_dma_2d_not_last
1c007388:	00a5c363          	blt	a1,a0,1c00738e <__rt_dma_2d_not_last>
    mv  a1, a0
1c00738c:	85aa                	mv	a1,a0

1c00738e <__rt_dma_2d_not_last>:

__rt_dma_2d_not_last:
    lw  a0, MCHAN_CMD_OFFSET(a2)
1c00738e:	4208                	lw	a0,0(a2)
    sw  a0, CL_DMA_CMD_T_ID(x8)
1c007390:	c008                	sw	a0,0(s0)

    lw  a0, CL_DMA_CMD_T_SIZE(x8)
1c007392:	4408                	lw	a0,8(s0)

    p.inserti x9, a1, MCHAN_CMD_CMD_LEN_WIDTH-1, MCHAN_CMD_CMD_LEN_BIT
1c007394:	de05a4b3          	p.insert	s1,a1,15,0

    sw  x9, MCHAN_CMD_OFFSET(a2)   // cmd
1c007398:	c204                	sw	s1,0(a2)

    sub a0, a0, a1
1c00739a:	8d0d                	sub	a0,a0,a1
    sw  a0, CL_DMA_CMD_T_SIZE(x8)
1c00739c:	c408                	sw	a0,8(s0)

    lw  a0, CL_DMA_CMD_T_LOC_ADDR(x8)
1c00739e:	4848                	lw	a0,20(s0)

    sw  a0, MCHAN_CMD_OFFSET(a2)   // local address
1c0073a0:	c208                	sw	a0,0(a2)
    add a0, a0, a1
1c0073a2:	952e                	add	a0,a0,a1
    sw  a0, CL_DMA_CMD_T_LOC_ADDR(x8)
1c0073a4:	c848                	sw	a0,20(s0)


    lw  a0, CL_DMA_CMD_T_EXT_ADDR(x8)
1c0073a6:	4c08                	lw	a0,24(s0)
    lw  a1, CL_DMA_CMD_T_STRIDE(x8)
1c0073a8:	444c                	lw	a1,12(s0)

    sw  a0, MCHAN_CMD_OFFSET(a2)   // external address
1c0073aa:	c208                	sw	a0,0(a2)
    add a0, a0, a1
1c0073ac:	952e                	add	a0,a0,a1
    sw  a0, CL_DMA_CMD_T_EXT_ADDR(x8)
1c0073ae:	cc08                	sw	a0,24(s0)

1c0073b0 <__rt_dma_2d_exit>:

__rt_dma_2d_exit:
    lw  x8, -4(sp)
1c0073b0:	ffc12403          	lw	s0,-4(sp)
    lw  x9, -8(sp)
1c0073b4:	ff812483          	lw	s1,-8(sp)
    lw  a0, -12(sp)
1c0073b8:	ff412503          	lw	a0,-12(sp)
    lw  a1, -16(sp)
1c0073bc:	ff012583          	lw	a1,-16(sp)
    lw  a2, -20(sp)
1c0073c0:	fec12603          	lw	a2,-20(sp)

    mret
1c0073c4:	30200073          	mret

1c0073c8 <__rt_dma_2d_done>:

__rt_dma_2d_done:
    sw  x0, CL_DMA_CMD_T_EXT_ADDR(x8)
1c0073c8:	00042c23          	sw	zero,24(s0)

    lw  x9, CL_DMA_CMD_T_NEXT(x8)
1c0073cc:	4c44                	lw	s1,28(s0)
    sw  x9, %tiny(__rt_dma_first_pending)(x0)
1c0073ce:	00902a23          	sw	s1,20(zero) # 14 <__rt_bridge_eeprom_handle>

    li  x8, ARCHI_EU_DEMUX_ADDR + EU_SW_EVENTS_DEMUX_OFFSET + (RT_DMA_EVENT<<2)
1c0073d2:	00204437          	lui	s0,0x204
1c0073d6:	11440413          	addi	s0,s0,276 # 204114 <__L2+0x184114>
    sw  x0, EU_CORE_TRIGG_SW_EVENT(x8)
1c0073da:	00042023          	sw	zero,0(s0)

    beqz x9, __rt_dma_2d_exit
1c0073de:	d8e9                	beqz	s1,1c0073b0 <__rt_dma_2d_exit>

    mv  x8, x9
1c0073e0:	8426                	mv	s0,s1

    lw  a0, CL_DMA_CMD_T_SIZE(x8)
1c0073e2:	4408                	lw	a0,8(s0)
    lw  a1, CL_DMA_CMD_T_LENGTH(x8)
1c0073e4:	480c                	lw	a1,16(s0)

    j   __rt_dma_2d_redo
1c0073e6:	b745                	j	1c007386 <__rt_dma_2d_redo>
